ARM GAS  C:\Users\SMART\AppData\Local\Temp\ccxuUQJj.s 			page 1


   1              		.arch armv8.1-m.main
   2              		.fpu fpv5-d16
   3              		.arch_extension dsp
   4              		.arch_extension fp
   5              		.arch_extension fp.dp
   6              		.arch_extension mve
   7              		.arch_extension mve.fp
   8              		.eabi_attribute 5, "cortex-m55"
   9              		.eabi_attribute 28, 1
  10              		.eabi_attribute 20, 1
  11              		.eabi_attribute 21, 1
  12              		.eabi_attribute 23, 3
  13              		.eabi_attribute 24, 1
  14              		.eabi_attribute 25, 1
  15              		.eabi_attribute 26, 1
  16              		.eabi_attribute 30, 1
  17              		.eabi_attribute 34, 1
  18              		.eabi_attribute 38, 1
  19              		.eabi_attribute 18, 4
  20              		.file	"app_freertos.c"
  21              		.text
  22              	.Ltext0:
  23              		.cfi_sections	.debug_frame
  24              		.file 1 "../../Appli/Core/Src/app_freertos.c"
  25              		.section	.text.StartDefaultTask,"ax",%progbits
  26              		.align	1
  27              		.global	StartDefaultTask
  28              		.syntax unified
  29              		.thumb
  30              		.thumb_func
  32              	StartDefaultTask:
  33              	.LVL0:
  34              	.LFB863:
   1:../../Appli/Core/Src/app_freertos.c **** /* USER CODE BEGIN Header */
   2:../../Appli/Core/Src/app_freertos.c **** /**
   3:../../Appli/Core/Src/app_freertos.c ****   ******************************************************************************
   4:../../Appli/Core/Src/app_freertos.c ****   * File Name          : app_freertos.c
   5:../../Appli/Core/Src/app_freertos.c ****   * Description        : FreeRTOS applicative file
   6:../../Appli/Core/Src/app_freertos.c ****   ******************************************************************************
   7:../../Appli/Core/Src/app_freertos.c ****   * @attention
   8:../../Appli/Core/Src/app_freertos.c ****   *
   9:../../Appli/Core/Src/app_freertos.c ****   * Copyright (c) 2026 STMicroelectronics.
  10:../../Appli/Core/Src/app_freertos.c ****   * All rights reserved.
  11:../../Appli/Core/Src/app_freertos.c ****   *
  12:../../Appli/Core/Src/app_freertos.c ****   * This software is licensed under terms that can be found in the LICENSE file
  13:../../Appli/Core/Src/app_freertos.c ****   * in the root directory of this software component.
  14:../../Appli/Core/Src/app_freertos.c ****   * If no LICENSE file comes with this software, it is provided AS-IS.
  15:../../Appli/Core/Src/app_freertos.c ****   *
  16:../../Appli/Core/Src/app_freertos.c ****   ******************************************************************************
  17:../../Appli/Core/Src/app_freertos.c ****   */
  18:../../Appli/Core/Src/app_freertos.c **** /* USER CODE END Header */
  19:../../Appli/Core/Src/app_freertos.c **** 
  20:../../Appli/Core/Src/app_freertos.c **** /* Includes ------------------------------------------------------------------*/
  21:../../Appli/Core/Src/app_freertos.c **** #include "app_freertos.h"
  22:../../Appli/Core/Src/app_freertos.c **** 
  23:../../Appli/Core/Src/app_freertos.c **** /* Private includes ----------------------------------------------------------*/
  24:../../Appli/Core/Src/app_freertos.c **** /* USER CODE BEGIN Includes */
ARM GAS  C:\Users\SMART\AppData\Local\Temp\ccxuUQJj.s 			page 2


  25:../../Appli/Core/Src/app_freertos.c **** 
  26:../../Appli/Core/Src/app_freertos.c **** /* USER CODE END Includes */
  27:../../Appli/Core/Src/app_freertos.c **** 
  28:../../Appli/Core/Src/app_freertos.c **** /* Private typedef -----------------------------------------------------------*/
  29:../../Appli/Core/Src/app_freertos.c **** /* USER CODE BEGIN PTD */
  30:../../Appli/Core/Src/app_freertos.c **** 
  31:../../Appli/Core/Src/app_freertos.c **** /* USER CODE END PTD */
  32:../../Appli/Core/Src/app_freertos.c **** 
  33:../../Appli/Core/Src/app_freertos.c **** /* Private define ------------------------------------------------------------*/
  34:../../Appli/Core/Src/app_freertos.c **** /* USER CODE BEGIN PD */
  35:../../Appli/Core/Src/app_freertos.c **** 
  36:../../Appli/Core/Src/app_freertos.c **** /* USER CODE END PD */
  37:../../Appli/Core/Src/app_freertos.c **** 
  38:../../Appli/Core/Src/app_freertos.c **** /* Private macro -------------------------------------------------------------*/
  39:../../Appli/Core/Src/app_freertos.c **** /* USER CODE BEGIN PM */
  40:../../Appli/Core/Src/app_freertos.c **** 
  41:../../Appli/Core/Src/app_freertos.c **** /* USER CODE END PM */
  42:../../Appli/Core/Src/app_freertos.c **** 
  43:../../Appli/Core/Src/app_freertos.c **** /* Private variables ---------------------------------------------------------*/
  44:../../Appli/Core/Src/app_freertos.c **** /* USER CODE BEGIN Variables */
  45:../../Appli/Core/Src/app_freertos.c **** 
  46:../../Appli/Core/Src/app_freertos.c **** /* USER CODE END Variables */
  47:../../Appli/Core/Src/app_freertos.c **** /* Definitions for defaultTask */
  48:../../Appli/Core/Src/app_freertos.c **** osThreadId_t defaultTaskHandle;
  49:../../Appli/Core/Src/app_freertos.c **** const osThreadAttr_t defaultTask_attributes = {
  50:../../Appli/Core/Src/app_freertos.c ****   .name = "defaultTask",
  51:../../Appli/Core/Src/app_freertos.c ****   .priority = (osPriority_t) osPriorityNormal,
  52:../../Appli/Core/Src/app_freertos.c ****   .stack_size = 128 * 4
  53:../../Appli/Core/Src/app_freertos.c **** };
  54:../../Appli/Core/Src/app_freertos.c **** 
  55:../../Appli/Core/Src/app_freertos.c **** /* Private function prototypes -----------------------------------------------*/
  56:../../Appli/Core/Src/app_freertos.c **** /* USER CODE BEGIN FunctionPrototypes */
  57:../../Appli/Core/Src/app_freertos.c **** 
  58:../../Appli/Core/Src/app_freertos.c **** /* USER CODE END FunctionPrototypes */
  59:../../Appli/Core/Src/app_freertos.c **** 
  60:../../Appli/Core/Src/app_freertos.c **** /**
  61:../../Appli/Core/Src/app_freertos.c ****   * @brief  FreeRTOS initialization
  62:../../Appli/Core/Src/app_freertos.c ****   * @param  None
  63:../../Appli/Core/Src/app_freertos.c ****   * @retval None
  64:../../Appli/Core/Src/app_freertos.c ****   */
  65:../../Appli/Core/Src/app_freertos.c **** void MX_FREERTOS_Init(void) {
  66:../../Appli/Core/Src/app_freertos.c ****   /* USER CODE BEGIN Init */
  67:../../Appli/Core/Src/app_freertos.c **** 
  68:../../Appli/Core/Src/app_freertos.c ****   /* USER CODE END Init */
  69:../../Appli/Core/Src/app_freertos.c **** 
  70:../../Appli/Core/Src/app_freertos.c ****   /* USER CODE BEGIN RTOS_MUTEX */
  71:../../Appli/Core/Src/app_freertos.c ****   /* add mutexes, ... */
  72:../../Appli/Core/Src/app_freertos.c ****   /* USER CODE END RTOS_MUTEX */
  73:../../Appli/Core/Src/app_freertos.c **** 
  74:../../Appli/Core/Src/app_freertos.c ****   /* USER CODE BEGIN RTOS_SEMAPHORES */
  75:../../Appli/Core/Src/app_freertos.c ****   /* add semaphores, ... */
  76:../../Appli/Core/Src/app_freertos.c ****   /* USER CODE END RTOS_SEMAPHORES */
  77:../../Appli/Core/Src/app_freertos.c **** 
  78:../../Appli/Core/Src/app_freertos.c ****   /* USER CODE BEGIN RTOS_TIMERS */
  79:../../Appli/Core/Src/app_freertos.c ****   /* start timers, add new ones, ... */
  80:../../Appli/Core/Src/app_freertos.c ****   /* USER CODE END RTOS_TIMERS */
  81:../../Appli/Core/Src/app_freertos.c **** 
ARM GAS  C:\Users\SMART\AppData\Local\Temp\ccxuUQJj.s 			page 3


  82:../../Appli/Core/Src/app_freertos.c ****   /* USER CODE BEGIN RTOS_QUEUES */
  83:../../Appli/Core/Src/app_freertos.c ****   /* add queues, ... */
  84:../../Appli/Core/Src/app_freertos.c ****   /* USER CODE END RTOS_QUEUES */
  85:../../Appli/Core/Src/app_freertos.c ****   /* creation of defaultTask */
  86:../../Appli/Core/Src/app_freertos.c ****   defaultTaskHandle = osThreadNew(StartDefaultTask, NULL, &defaultTask_attributes);
  87:../../Appli/Core/Src/app_freertos.c **** 
  88:../../Appli/Core/Src/app_freertos.c ****   /* USER CODE BEGIN RTOS_THREADS */
  89:../../Appli/Core/Src/app_freertos.c ****   /* add threads, ... */
  90:../../Appli/Core/Src/app_freertos.c ****   /* USER CODE END RTOS_THREADS */
  91:../../Appli/Core/Src/app_freertos.c **** 
  92:../../Appli/Core/Src/app_freertos.c ****   /* USER CODE BEGIN RTOS_EVENTS */
  93:../../Appli/Core/Src/app_freertos.c ****   /* add events, ... */
  94:../../Appli/Core/Src/app_freertos.c ****   /* USER CODE END RTOS_EVENTS */
  95:../../Appli/Core/Src/app_freertos.c **** 
  96:../../Appli/Core/Src/app_freertos.c **** }
  97:../../Appli/Core/Src/app_freertos.c **** /* USER CODE BEGIN Header_StartDefaultTask */
  98:../../Appli/Core/Src/app_freertos.c **** /**
  99:../../Appli/Core/Src/app_freertos.c **** * @brief Function implementing the defaultTask thread.
 100:../../Appli/Core/Src/app_freertos.c **** * @param argument: Not used
 101:../../Appli/Core/Src/app_freertos.c **** * @retval None
 102:../../Appli/Core/Src/app_freertos.c **** */
 103:../../Appli/Core/Src/app_freertos.c **** /* USER CODE END Header_StartDefaultTask */
 104:../../Appli/Core/Src/app_freertos.c **** void StartDefaultTask(void *argument)
 105:../../Appli/Core/Src/app_freertos.c **** {
  35              		.loc 1 105 1 view -0
  36              		.cfi_startproc
  37              		@ args = 0, pretend = 0, frame = 0
  38              		@ frame_needed = 0, uses_anonymous_args = 0
  39              		.loc 1 105 1 is_stmt 0 view .LVU1
  40 0000 38B5     		push	{r3, r4, r5, lr}
  41              	.LCFI0:
  42              		.cfi_def_cfa_offset 16
  43              		.cfi_offset 3, -16
  44              		.cfi_offset 4, -12
  45              		.cfi_offset 5, -8
  46              		.cfi_offset 14, -4
 106:../../Appli/Core/Src/app_freertos.c ****   /* USER CODE BEGIN defaultTask */
 107:../../Appli/Core/Src/app_freertos.c ****   for(int i = 0; i < 5; i++)
  47              		.loc 1 107 3 is_stmt 1 view .LVU2
  48              	.LBB2:
  49              		.loc 1 107 7 view .LVU3
  50              	.LVL1:
  51              		.loc 1 107 11 is_stmt 0 view .LVU4
  52 0002 0024     		movs	r4, #0
  53              		.loc 1 107 3 view .LVU5
  54 0004 11E0     		b	.L2
  55              	.LVL2:
  56              	.L3:
 108:../../Appli/Core/Src/app_freertos.c ****   {
 109:../../Appli/Core/Src/app_freertos.c ****     HAL_GPIO_WritePin(GREEN_LED_GPIO_Port, GREEN_LED_Pin, GPIO_PIN_SET);
  57              		.loc 1 109 5 is_stmt 1 view .LVU6
  58 0006 0C4D     		ldr	r5, .L6
  59 0008 0122     		movs	r2, #1
  60 000a 0221     		movs	r1, #2
  61 000c 2846     		mov	r0, r5
  62 000e FFF7FEFF 		bl	HAL_GPIO_WritePin
  63              	.LVL3:
ARM GAS  C:\Users\SMART\AppData\Local\Temp\ccxuUQJj.s 			page 4


 110:../../Appli/Core/Src/app_freertos.c ****     osDelay(200);
  64              		.loc 1 110 5 view .LVU7
  65 0012 C820     		movs	r0, #200
  66 0014 FFF7FEFF 		bl	osDelay
  67              	.LVL4:
 111:../../Appli/Core/Src/app_freertos.c ****     HAL_GPIO_WritePin(GREEN_LED_GPIO_Port, GREEN_LED_Pin, GPIO_PIN_RESET);
  68              		.loc 1 111 5 view .LVU8
  69 0018 0022     		movs	r2, #0
  70 001a 0221     		movs	r1, #2
  71 001c 2846     		mov	r0, r5
  72 001e FFF7FEFF 		bl	HAL_GPIO_WritePin
  73              	.LVL5:
 112:../../Appli/Core/Src/app_freertos.c ****     osDelay(200);
  74              		.loc 1 112 5 view .LVU9
  75 0022 C820     		movs	r0, #200
  76 0024 FFF7FEFF 		bl	osDelay
  77              	.LVL6:
 107:../../Appli/Core/Src/app_freertos.c ****   {
  78              		.loc 1 107 26 discriminator 3 view .LVU10
  79 0028 0134     		adds	r4, r4, #1
  80              	.LVL7:
  81              	.L2:
 107:../../Appli/Core/Src/app_freertos.c ****   {
  82              		.loc 1 107 20 discriminator 1 view .LVU11
  83 002a 042C     		cmp	r4, #4
  84 002c EBDD     		ble	.L3
  85              	.L4:
  86              	.LBE2:
 113:../../Appli/Core/Src/app_freertos.c ****   }
 114:../../Appli/Core/Src/app_freertos.c ****   /* Infinite loop */
 115:../../Appli/Core/Src/app_freertos.c ****   for(;;)
  87              		.loc 1 115 3 view .LVU12
 116:../../Appli/Core/Src/app_freertos.c ****   {
 117:../../Appli/Core/Src/app_freertos.c ****     osDelay(1);
  88              		.loc 1 117 5 discriminator 1 view .LVU13
  89 002e 0120     		movs	r0, #1
  90 0030 FFF7FEFF 		bl	osDelay
  91              	.LVL8:
 115:../../Appli/Core/Src/app_freertos.c ****   {
  92              		.loc 1 115 3 view .LVU14
  93 0034 FBE7     		b	.L4
  94              	.L7:
  95 0036 00BF     		.align	2
  96              	.L6:
  97 0038 00380256 		.word	1442985984
  98              		.cfi_endproc
  99              	.LFE863:
 101              		.section	.text.MX_FREERTOS_Init,"ax",%progbits
 102              		.align	1
 103              		.global	MX_FREERTOS_Init
 104              		.syntax unified
 105              		.thumb
 106              		.thumb_func
 108              	MX_FREERTOS_Init:
 109              	.LFB862:
  65:../../Appli/Core/Src/app_freertos.c ****   /* USER CODE BEGIN Init */
 110              		.loc 1 65 29 view -0
ARM GAS  C:\Users\SMART\AppData\Local\Temp\ccxuUQJj.s 			page 5


 111              		.cfi_startproc
 112              		@ args = 0, pretend = 0, frame = 0
 113              		@ frame_needed = 0, uses_anonymous_args = 0
 114 0000 08B5     		push	{r3, lr}
 115              	.LCFI1:
 116              		.cfi_def_cfa_offset 8
 117              		.cfi_offset 3, -8
 118              		.cfi_offset 14, -4
  86:../../Appli/Core/Src/app_freertos.c **** 
 119              		.loc 1 86 3 view .LVU16
  86:../../Appli/Core/Src/app_freertos.c **** 
 120              		.loc 1 86 23 is_stmt 0 view .LVU17
 121 0002 044A     		ldr	r2, .L10
 122 0004 0021     		movs	r1, #0
 123 0006 0448     		ldr	r0, .L10+4
 124 0008 FFF7FEFF 		bl	osThreadNew
 125              	.LVL9:
  86:../../Appli/Core/Src/app_freertos.c **** 
 126              		.loc 1 86 21 discriminator 1 view .LVU18
 127 000c 034B     		ldr	r3, .L10+8
 128 000e 1860     		str	r0, [r3]
  96:../../Appli/Core/Src/app_freertos.c **** /* USER CODE BEGIN Header_StartDefaultTask */
 129              		.loc 1 96 1 view .LVU19
 130 0010 08BD     		pop	{r3, pc}
 131              	.L11:
 132 0012 00BF     		.align	2
 133              	.L10:
 134 0014 00000000 		.word	defaultTask_attributes
 135 0018 00000000 		.word	StartDefaultTask
 136 001c 00000000 		.word	defaultTaskHandle
 137              		.cfi_endproc
 138              	.LFE862:
 140              		.global	defaultTask_attributes
 141              		.section	.rodata.str1.4,"aMS",%progbits,1
 142              		.align	2
 143              	.LC0:
 144 0000 64656661 		.ascii	"defaultTask\000"
 144      756C7454 
 144      61736B00 
 145              		.section	.rodata.defaultTask_attributes,"a"
 146              		.align	2
 149              	defaultTask_attributes:
 150 0000 00000000 		.word	.LC0
 151 0004 00000000 		.space	16
 151      00000000 
 151      00000000 
 151      00000000 
 152 0014 00020000 		.word	512
 153 0018 18000000 		.word	24
 154 001c 00000000 		.space	8
 154      00000000 
 155              		.global	defaultTaskHandle
 156              		.section	.bss.defaultTaskHandle,"aw",%nobits
 157              		.align	2
 160              	defaultTaskHandle:
 161 0000 00000000 		.space	4
 162              		.text
ARM GAS  C:\Users\SMART\AppData\Local\Temp\ccxuUQJj.s 			page 6


 163              	.Letext0:
 164              		.file 2 "C:\\ST\\STM32CubeIDE_2.0.0\\STM32CubeIDE\\plugins\\com.st.stm32cube.ide.mcu.externaltools
 165              		.file 3 "C:\\ST\\STM32CubeIDE_2.0.0\\STM32CubeIDE\\plugins\\com.st.stm32cube.ide.mcu.externaltools
 166              		.file 4 "../../Drivers/CMSIS/Device/ST/STM32N6xx/Include/stm32n657xx.h"
 167              		.file 5 "../../Drivers/STM32N6xx_HAL_Driver/Inc/stm32n6xx_hal_gpio.h"
 168              		.file 6 "../../Middlewares/Third_Party/CMSIS/RTOS2/Include/cmsis_os2.h"
 169              		.file 7 "../../Appli/Core/Inc/app_freertos.h"
ARM GAS  C:\Users\SMART\AppData\Local\Temp\ccxuUQJj.s 			page 7

