ARM GAS  C:\Users\SMART\AppData\Local\Temp\ccUCLR5k.s 			page 1


   1              		.arch armv8.1-m.main
   2              		.fpu fpv5-d16
   3              		.arch_extension dsp
   4              		.arch_extension fp
   5              		.arch_extension fp.dp
   6              		.arch_extension mve
   7              		.arch_extension mve.fp
   8              		.eabi_attribute 5, "cortex-m55"
   9              		.eabi_attribute 28, 1
  10              		.eabi_attribute 20, 1
  11              		.eabi_attribute 21, 1
  12              		.eabi_attribute 23, 3
  13              		.eabi_attribute 24, 1
  14              		.eabi_attribute 25, 1
  15              		.eabi_attribute 26, 1
  16              		.eabi_attribute 30, 1
  17              		.eabi_attribute 34, 1
  18              		.eabi_attribute 38, 1
  19              		.eabi_attribute 18, 4
  20              		.file	"event_groups.c"
  21              		.text
  22              	.Ltext0:
  23              		.cfi_sections	.debug_frame
  24              		.file 1 "../../Middlewares/Third_Party/FreeRTOS/Source/event_groups.c"
  25              		.section	.text.prvTestWaitCondition,"ax",%progbits
  26              		.align	1
  27              		.syntax unified
  28              		.thumb
  29              		.thumb_func
  31              	prvTestWaitCondition:
  32              	.LVL0:
  33              	.LFB12:
   1:../../Middlewares/Third_Party/FreeRTOS/Source/event_groups.c **** /*
   2:../../Middlewares/Third_Party/FreeRTOS/Source/event_groups.c ****  * FreeRTOS Kernel V11.2.0
   3:../../Middlewares/Third_Party/FreeRTOS/Source/event_groups.c ****  * Copyright (C) 2021 Amazon.com, Inc. or its affiliates. All Rights Reserved.
   4:../../Middlewares/Third_Party/FreeRTOS/Source/event_groups.c ****  *
   5:../../Middlewares/Third_Party/FreeRTOS/Source/event_groups.c ****  * SPDX-License-Identifier: MIT
   6:../../Middlewares/Third_Party/FreeRTOS/Source/event_groups.c ****  *
   7:../../Middlewares/Third_Party/FreeRTOS/Source/event_groups.c ****  * Permission is hereby granted, free of charge, to any person obtaining a copy of
   8:../../Middlewares/Third_Party/FreeRTOS/Source/event_groups.c ****  * this software and associated documentation files (the "Software"), to deal in
   9:../../Middlewares/Third_Party/FreeRTOS/Source/event_groups.c ****  * the Software without restriction, including without limitation the rights to
  10:../../Middlewares/Third_Party/FreeRTOS/Source/event_groups.c ****  * use, copy, modify, merge, publish, distribute, sublicense, and/or sell copies of
  11:../../Middlewares/Third_Party/FreeRTOS/Source/event_groups.c ****  * the Software, and to permit persons to whom the Software is furnished to do so,
  12:../../Middlewares/Third_Party/FreeRTOS/Source/event_groups.c ****  * subject to the following conditions:
  13:../../Middlewares/Third_Party/FreeRTOS/Source/event_groups.c ****  *
  14:../../Middlewares/Third_Party/FreeRTOS/Source/event_groups.c ****  * The above copyright notice and this permission notice shall be included in all
  15:../../Middlewares/Third_Party/FreeRTOS/Source/event_groups.c ****  * copies or substantial portions of the Software.
  16:../../Middlewares/Third_Party/FreeRTOS/Source/event_groups.c ****  *
  17:../../Middlewares/Third_Party/FreeRTOS/Source/event_groups.c ****  * THE SOFTWARE IS PROVIDED "AS IS", WITHOUT WARRANTY OF ANY KIND, EXPRESS OR
  18:../../Middlewares/Third_Party/FreeRTOS/Source/event_groups.c ****  * IMPLIED, INCLUDING BUT NOT LIMITED TO THE WARRANTIES OF MERCHANTABILITY, FITNESS
  19:../../Middlewares/Third_Party/FreeRTOS/Source/event_groups.c ****  * FOR A PARTICULAR PURPOSE AND NONINFRINGEMENT. IN NO EVENT SHALL THE AUTHORS OR
  20:../../Middlewares/Third_Party/FreeRTOS/Source/event_groups.c ****  * COPYRIGHT HOLDERS BE LIABLE FOR ANY CLAIM, DAMAGES OR OTHER LIABILITY, WHETHER
  21:../../Middlewares/Third_Party/FreeRTOS/Source/event_groups.c ****  * IN AN ACTION OF CONTRACT, TORT OR OTHERWISE, ARISING FROM, OUT OF OR IN
  22:../../Middlewares/Third_Party/FreeRTOS/Source/event_groups.c ****  * CONNECTION WITH THE SOFTWARE OR THE USE OR OTHER DEALINGS IN THE SOFTWARE.
  23:../../Middlewares/Third_Party/FreeRTOS/Source/event_groups.c ****  *
  24:../../Middlewares/Third_Party/FreeRTOS/Source/event_groups.c ****  * https://www.FreeRTOS.org
  25:../../Middlewares/Third_Party/FreeRTOS/Source/event_groups.c ****  * https://github.com/FreeRTOS
ARM GAS  C:\Users\SMART\AppData\Local\Temp\ccUCLR5k.s 			page 2


  26:../../Middlewares/Third_Party/FreeRTOS/Source/event_groups.c ****  *
  27:../../Middlewares/Third_Party/FreeRTOS/Source/event_groups.c ****  */
  28:../../Middlewares/Third_Party/FreeRTOS/Source/event_groups.c **** 
  29:../../Middlewares/Third_Party/FreeRTOS/Source/event_groups.c **** /* Standard includes. */
  30:../../Middlewares/Third_Party/FreeRTOS/Source/event_groups.c **** #include <stdlib.h>
  31:../../Middlewares/Third_Party/FreeRTOS/Source/event_groups.c **** 
  32:../../Middlewares/Third_Party/FreeRTOS/Source/event_groups.c **** /* Defining MPU_WRAPPERS_INCLUDED_FROM_API_FILE prevents task.h from redefining
  33:../../Middlewares/Third_Party/FreeRTOS/Source/event_groups.c ****  * all the API functions to use the MPU wrappers. That should only be done when
  34:../../Middlewares/Third_Party/FreeRTOS/Source/event_groups.c ****  * task.h is included from an application file. */
  35:../../Middlewares/Third_Party/FreeRTOS/Source/event_groups.c **** #define MPU_WRAPPERS_INCLUDED_FROM_API_FILE
  36:../../Middlewares/Third_Party/FreeRTOS/Source/event_groups.c **** 
  37:../../Middlewares/Third_Party/FreeRTOS/Source/event_groups.c **** /* FreeRTOS includes. */
  38:../../Middlewares/Third_Party/FreeRTOS/Source/event_groups.c **** #include "FreeRTOS.h"
  39:../../Middlewares/Third_Party/FreeRTOS/Source/event_groups.c **** #include "task.h"
  40:../../Middlewares/Third_Party/FreeRTOS/Source/event_groups.c **** #include "timers.h"
  41:../../Middlewares/Third_Party/FreeRTOS/Source/event_groups.c **** #include "event_groups.h"
  42:../../Middlewares/Third_Party/FreeRTOS/Source/event_groups.c **** 
  43:../../Middlewares/Third_Party/FreeRTOS/Source/event_groups.c **** /* The MPU ports require MPU_WRAPPERS_INCLUDED_FROM_API_FILE to be defined
  44:../../Middlewares/Third_Party/FreeRTOS/Source/event_groups.c ****  * for the header files above, but not in this file, in order to generate the
  45:../../Middlewares/Third_Party/FreeRTOS/Source/event_groups.c ****  * correct privileged Vs unprivileged linkage and placement. */
  46:../../Middlewares/Third_Party/FreeRTOS/Source/event_groups.c **** #undef MPU_WRAPPERS_INCLUDED_FROM_API_FILE
  47:../../Middlewares/Third_Party/FreeRTOS/Source/event_groups.c **** 
  48:../../Middlewares/Third_Party/FreeRTOS/Source/event_groups.c **** /* This entire source file will be skipped if the application is not configured
  49:../../Middlewares/Third_Party/FreeRTOS/Source/event_groups.c ****  * to include event groups functionality. This #if is closed at the very bottom
  50:../../Middlewares/Third_Party/FreeRTOS/Source/event_groups.c ****  * of this file. If you want to include event groups then ensure
  51:../../Middlewares/Third_Party/FreeRTOS/Source/event_groups.c ****  * configUSE_EVENT_GROUPS is set to 1 in FreeRTOSConfig.h. */
  52:../../Middlewares/Third_Party/FreeRTOS/Source/event_groups.c **** #if ( configUSE_EVENT_GROUPS == 1 )
  53:../../Middlewares/Third_Party/FreeRTOS/Source/event_groups.c **** 
  54:../../Middlewares/Third_Party/FreeRTOS/Source/event_groups.c ****     typedef struct EventGroupDef_t
  55:../../Middlewares/Third_Party/FreeRTOS/Source/event_groups.c ****     {
  56:../../Middlewares/Third_Party/FreeRTOS/Source/event_groups.c ****         EventBits_t uxEventBits;
  57:../../Middlewares/Third_Party/FreeRTOS/Source/event_groups.c ****         List_t xTasksWaitingForBits; /**< List of tasks waiting for a bit to be set. */
  58:../../Middlewares/Third_Party/FreeRTOS/Source/event_groups.c **** 
  59:../../Middlewares/Third_Party/FreeRTOS/Source/event_groups.c ****         #if ( configUSE_TRACE_FACILITY == 1 )
  60:../../Middlewares/Third_Party/FreeRTOS/Source/event_groups.c ****             UBaseType_t uxEventGroupNumber;
  61:../../Middlewares/Third_Party/FreeRTOS/Source/event_groups.c ****         #endif
  62:../../Middlewares/Third_Party/FreeRTOS/Source/event_groups.c **** 
  63:../../Middlewares/Third_Party/FreeRTOS/Source/event_groups.c ****         #if ( ( configSUPPORT_STATIC_ALLOCATION == 1 ) && ( configSUPPORT_DYNAMIC_ALLOCATION == 1 )
  64:../../Middlewares/Third_Party/FreeRTOS/Source/event_groups.c ****             uint8_t ucStaticallyAllocated; /**< Set to pdTRUE if the event group is statically allo
  65:../../Middlewares/Third_Party/FreeRTOS/Source/event_groups.c ****         #endif
  66:../../Middlewares/Third_Party/FreeRTOS/Source/event_groups.c ****     } EventGroup_t;
  67:../../Middlewares/Third_Party/FreeRTOS/Source/event_groups.c **** 
  68:../../Middlewares/Third_Party/FreeRTOS/Source/event_groups.c **** /*-----------------------------------------------------------*/
  69:../../Middlewares/Third_Party/FreeRTOS/Source/event_groups.c **** 
  70:../../Middlewares/Third_Party/FreeRTOS/Source/event_groups.c **** /*
  71:../../Middlewares/Third_Party/FreeRTOS/Source/event_groups.c ****  * Test the bits set in uxCurrentEventBits to see if the wait condition is met.
  72:../../Middlewares/Third_Party/FreeRTOS/Source/event_groups.c ****  * The wait condition is defined by xWaitForAllBits.  If xWaitForAllBits is
  73:../../Middlewares/Third_Party/FreeRTOS/Source/event_groups.c ****  * pdTRUE then the wait condition is met if all the bits set in uxBitsToWaitFor
  74:../../Middlewares/Third_Party/FreeRTOS/Source/event_groups.c ****  * are also set in uxCurrentEventBits.  If xWaitForAllBits is pdFALSE then the
  75:../../Middlewares/Third_Party/FreeRTOS/Source/event_groups.c ****  * wait condition is met if any of the bits set in uxBitsToWait for are also set
  76:../../Middlewares/Third_Party/FreeRTOS/Source/event_groups.c ****  * in uxCurrentEventBits.
  77:../../Middlewares/Third_Party/FreeRTOS/Source/event_groups.c ****  */
  78:../../Middlewares/Third_Party/FreeRTOS/Source/event_groups.c ****     static BaseType_t prvTestWaitCondition( const EventBits_t uxCurrentEventBits,
  79:../../Middlewares/Third_Party/FreeRTOS/Source/event_groups.c ****                                             const EventBits_t uxBitsToWaitFor,
  80:../../Middlewares/Third_Party/FreeRTOS/Source/event_groups.c ****                                             const BaseType_t xWaitForAllBits ) PRIVILEGED_FUNCTION;
  81:../../Middlewares/Third_Party/FreeRTOS/Source/event_groups.c **** 
  82:../../Middlewares/Third_Party/FreeRTOS/Source/event_groups.c **** /*-----------------------------------------------------------*/
ARM GAS  C:\Users\SMART\AppData\Local\Temp\ccUCLR5k.s 			page 3


  83:../../Middlewares/Third_Party/FreeRTOS/Source/event_groups.c **** 
  84:../../Middlewares/Third_Party/FreeRTOS/Source/event_groups.c ****     #if ( configSUPPORT_STATIC_ALLOCATION == 1 )
  85:../../Middlewares/Third_Party/FreeRTOS/Source/event_groups.c **** 
  86:../../Middlewares/Third_Party/FreeRTOS/Source/event_groups.c ****         EventGroupHandle_t xEventGroupCreateStatic( StaticEventGroup_t * pxEventGroupBuffer )
  87:../../Middlewares/Third_Party/FreeRTOS/Source/event_groups.c ****         {
  88:../../Middlewares/Third_Party/FreeRTOS/Source/event_groups.c ****             EventGroup_t * pxEventBits;
  89:../../Middlewares/Third_Party/FreeRTOS/Source/event_groups.c **** 
  90:../../Middlewares/Third_Party/FreeRTOS/Source/event_groups.c ****             traceENTER_xEventGroupCreateStatic( pxEventGroupBuffer );
  91:../../Middlewares/Third_Party/FreeRTOS/Source/event_groups.c **** 
  92:../../Middlewares/Third_Party/FreeRTOS/Source/event_groups.c ****             /* A StaticEventGroup_t object must be provided. */
  93:../../Middlewares/Third_Party/FreeRTOS/Source/event_groups.c ****             configASSERT( pxEventGroupBuffer );
  94:../../Middlewares/Third_Party/FreeRTOS/Source/event_groups.c **** 
  95:../../Middlewares/Third_Party/FreeRTOS/Source/event_groups.c ****             #if ( configASSERT_DEFINED == 1 )
  96:../../Middlewares/Third_Party/FreeRTOS/Source/event_groups.c ****             {
  97:../../Middlewares/Third_Party/FreeRTOS/Source/event_groups.c ****                 /* Sanity check that the size of the structure used to declare a
  98:../../Middlewares/Third_Party/FreeRTOS/Source/event_groups.c ****                  * variable of type StaticEventGroup_t equals the size of the real
  99:../../Middlewares/Third_Party/FreeRTOS/Source/event_groups.c ****                  * event group structure. */
 100:../../Middlewares/Third_Party/FreeRTOS/Source/event_groups.c ****                 volatile size_t xSize = sizeof( StaticEventGroup_t );
 101:../../Middlewares/Third_Party/FreeRTOS/Source/event_groups.c ****                 configASSERT( xSize == sizeof( EventGroup_t ) );
 102:../../Middlewares/Third_Party/FreeRTOS/Source/event_groups.c ****             }
 103:../../Middlewares/Third_Party/FreeRTOS/Source/event_groups.c ****             #endif /* configASSERT_DEFINED */
 104:../../Middlewares/Third_Party/FreeRTOS/Source/event_groups.c **** 
 105:../../Middlewares/Third_Party/FreeRTOS/Source/event_groups.c ****             /* The user has provided a statically allocated event group - use it. */
 106:../../Middlewares/Third_Party/FreeRTOS/Source/event_groups.c ****             /* MISRA Ref 11.3.1 [Misaligned access] */
 107:../../Middlewares/Third_Party/FreeRTOS/Source/event_groups.c ****             /* More details at: https://github.com/FreeRTOS/FreeRTOS-Kernel/blob/main/MISRA.md#rule
 108:../../Middlewares/Third_Party/FreeRTOS/Source/event_groups.c ****             /* coverity[misra_c_2012_rule_11_3_violation] */
 109:../../Middlewares/Third_Party/FreeRTOS/Source/event_groups.c ****             pxEventBits = ( EventGroup_t * ) pxEventGroupBuffer;
 110:../../Middlewares/Third_Party/FreeRTOS/Source/event_groups.c **** 
 111:../../Middlewares/Third_Party/FreeRTOS/Source/event_groups.c ****             if( pxEventBits != NULL )
 112:../../Middlewares/Third_Party/FreeRTOS/Source/event_groups.c ****             {
 113:../../Middlewares/Third_Party/FreeRTOS/Source/event_groups.c ****                 pxEventBits->uxEventBits = 0;
 114:../../Middlewares/Third_Party/FreeRTOS/Source/event_groups.c ****                 vListInitialise( &( pxEventBits->xTasksWaitingForBits ) );
 115:../../Middlewares/Third_Party/FreeRTOS/Source/event_groups.c **** 
 116:../../Middlewares/Third_Party/FreeRTOS/Source/event_groups.c ****                 #if ( configSUPPORT_DYNAMIC_ALLOCATION == 1 )
 117:../../Middlewares/Third_Party/FreeRTOS/Source/event_groups.c ****                 {
 118:../../Middlewares/Third_Party/FreeRTOS/Source/event_groups.c ****                     /* Both static and dynamic allocation can be used, so note that
 119:../../Middlewares/Third_Party/FreeRTOS/Source/event_groups.c ****                      * this event group was created statically in case the event group
 120:../../Middlewares/Third_Party/FreeRTOS/Source/event_groups.c ****                      * is later deleted. */
 121:../../Middlewares/Third_Party/FreeRTOS/Source/event_groups.c ****                     pxEventBits->ucStaticallyAllocated = pdTRUE;
 122:../../Middlewares/Third_Party/FreeRTOS/Source/event_groups.c ****                 }
 123:../../Middlewares/Third_Party/FreeRTOS/Source/event_groups.c ****                 #endif /* configSUPPORT_DYNAMIC_ALLOCATION */
 124:../../Middlewares/Third_Party/FreeRTOS/Source/event_groups.c **** 
 125:../../Middlewares/Third_Party/FreeRTOS/Source/event_groups.c ****                 traceEVENT_GROUP_CREATE( pxEventBits );
 126:../../Middlewares/Third_Party/FreeRTOS/Source/event_groups.c ****             }
 127:../../Middlewares/Third_Party/FreeRTOS/Source/event_groups.c ****             else
 128:../../Middlewares/Third_Party/FreeRTOS/Source/event_groups.c ****             {
 129:../../Middlewares/Third_Party/FreeRTOS/Source/event_groups.c ****                 /* xEventGroupCreateStatic should only ever be called with
 130:../../Middlewares/Third_Party/FreeRTOS/Source/event_groups.c ****                  * pxEventGroupBuffer pointing to a pre-allocated (compile time
 131:../../Middlewares/Third_Party/FreeRTOS/Source/event_groups.c ****                  * allocated) StaticEventGroup_t variable. */
 132:../../Middlewares/Third_Party/FreeRTOS/Source/event_groups.c ****                 traceEVENT_GROUP_CREATE_FAILED();
 133:../../Middlewares/Third_Party/FreeRTOS/Source/event_groups.c ****             }
 134:../../Middlewares/Third_Party/FreeRTOS/Source/event_groups.c **** 
 135:../../Middlewares/Third_Party/FreeRTOS/Source/event_groups.c ****             traceRETURN_xEventGroupCreateStatic( pxEventBits );
 136:../../Middlewares/Third_Party/FreeRTOS/Source/event_groups.c **** 
 137:../../Middlewares/Third_Party/FreeRTOS/Source/event_groups.c ****             return pxEventBits;
 138:../../Middlewares/Third_Party/FreeRTOS/Source/event_groups.c ****         }
 139:../../Middlewares/Third_Party/FreeRTOS/Source/event_groups.c **** 
ARM GAS  C:\Users\SMART\AppData\Local\Temp\ccUCLR5k.s 			page 4


 140:../../Middlewares/Third_Party/FreeRTOS/Source/event_groups.c ****     #endif /* configSUPPORT_STATIC_ALLOCATION */
 141:../../Middlewares/Third_Party/FreeRTOS/Source/event_groups.c **** /*-----------------------------------------------------------*/
 142:../../Middlewares/Third_Party/FreeRTOS/Source/event_groups.c **** 
 143:../../Middlewares/Third_Party/FreeRTOS/Source/event_groups.c ****     #if ( configSUPPORT_DYNAMIC_ALLOCATION == 1 )
 144:../../Middlewares/Third_Party/FreeRTOS/Source/event_groups.c **** 
 145:../../Middlewares/Third_Party/FreeRTOS/Source/event_groups.c ****         EventGroupHandle_t xEventGroupCreate( void )
 146:../../Middlewares/Third_Party/FreeRTOS/Source/event_groups.c ****         {
 147:../../Middlewares/Third_Party/FreeRTOS/Source/event_groups.c ****             EventGroup_t * pxEventBits;
 148:../../Middlewares/Third_Party/FreeRTOS/Source/event_groups.c **** 
 149:../../Middlewares/Third_Party/FreeRTOS/Source/event_groups.c ****             traceENTER_xEventGroupCreate();
 150:../../Middlewares/Third_Party/FreeRTOS/Source/event_groups.c **** 
 151:../../Middlewares/Third_Party/FreeRTOS/Source/event_groups.c ****             /* MISRA Ref 11.5.1 [Malloc memory assignment] */
 152:../../Middlewares/Third_Party/FreeRTOS/Source/event_groups.c ****             /* More details at: https://github.com/FreeRTOS/FreeRTOS-Kernel/blob/main/MISRA.md#rule
 153:../../Middlewares/Third_Party/FreeRTOS/Source/event_groups.c ****             /* coverity[misra_c_2012_rule_11_5_violation] */
 154:../../Middlewares/Third_Party/FreeRTOS/Source/event_groups.c ****             pxEventBits = ( EventGroup_t * ) pvPortMalloc( sizeof( EventGroup_t ) );
 155:../../Middlewares/Third_Party/FreeRTOS/Source/event_groups.c **** 
 156:../../Middlewares/Third_Party/FreeRTOS/Source/event_groups.c ****             if( pxEventBits != NULL )
 157:../../Middlewares/Third_Party/FreeRTOS/Source/event_groups.c ****             {
 158:../../Middlewares/Third_Party/FreeRTOS/Source/event_groups.c ****                 pxEventBits->uxEventBits = 0;
 159:../../Middlewares/Third_Party/FreeRTOS/Source/event_groups.c ****                 vListInitialise( &( pxEventBits->xTasksWaitingForBits ) );
 160:../../Middlewares/Third_Party/FreeRTOS/Source/event_groups.c **** 
 161:../../Middlewares/Third_Party/FreeRTOS/Source/event_groups.c ****                 #if ( configSUPPORT_STATIC_ALLOCATION == 1 )
 162:../../Middlewares/Third_Party/FreeRTOS/Source/event_groups.c ****                 {
 163:../../Middlewares/Third_Party/FreeRTOS/Source/event_groups.c ****                     /* Both static and dynamic allocation can be used, so note this
 164:../../Middlewares/Third_Party/FreeRTOS/Source/event_groups.c ****                      * event group was allocated statically in case the event group is
 165:../../Middlewares/Third_Party/FreeRTOS/Source/event_groups.c ****                      * later deleted. */
 166:../../Middlewares/Third_Party/FreeRTOS/Source/event_groups.c ****                     pxEventBits->ucStaticallyAllocated = pdFALSE;
 167:../../Middlewares/Third_Party/FreeRTOS/Source/event_groups.c ****                 }
 168:../../Middlewares/Third_Party/FreeRTOS/Source/event_groups.c ****                 #endif /* configSUPPORT_STATIC_ALLOCATION */
 169:../../Middlewares/Third_Party/FreeRTOS/Source/event_groups.c **** 
 170:../../Middlewares/Third_Party/FreeRTOS/Source/event_groups.c ****                 traceEVENT_GROUP_CREATE( pxEventBits );
 171:../../Middlewares/Third_Party/FreeRTOS/Source/event_groups.c ****             }
 172:../../Middlewares/Third_Party/FreeRTOS/Source/event_groups.c ****             else
 173:../../Middlewares/Third_Party/FreeRTOS/Source/event_groups.c ****             {
 174:../../Middlewares/Third_Party/FreeRTOS/Source/event_groups.c ****                 traceEVENT_GROUP_CREATE_FAILED();
 175:../../Middlewares/Third_Party/FreeRTOS/Source/event_groups.c ****             }
 176:../../Middlewares/Third_Party/FreeRTOS/Source/event_groups.c **** 
 177:../../Middlewares/Third_Party/FreeRTOS/Source/event_groups.c ****             traceRETURN_xEventGroupCreate( pxEventBits );
 178:../../Middlewares/Third_Party/FreeRTOS/Source/event_groups.c **** 
 179:../../Middlewares/Third_Party/FreeRTOS/Source/event_groups.c ****             return pxEventBits;
 180:../../Middlewares/Third_Party/FreeRTOS/Source/event_groups.c ****         }
 181:../../Middlewares/Third_Party/FreeRTOS/Source/event_groups.c **** 
 182:../../Middlewares/Third_Party/FreeRTOS/Source/event_groups.c ****     #endif /* configSUPPORT_DYNAMIC_ALLOCATION */
 183:../../Middlewares/Third_Party/FreeRTOS/Source/event_groups.c **** /*-----------------------------------------------------------*/
 184:../../Middlewares/Third_Party/FreeRTOS/Source/event_groups.c **** 
 185:../../Middlewares/Third_Party/FreeRTOS/Source/event_groups.c ****     EventBits_t xEventGroupSync( EventGroupHandle_t xEventGroup,
 186:../../Middlewares/Third_Party/FreeRTOS/Source/event_groups.c ****                                  const EventBits_t uxBitsToSet,
 187:../../Middlewares/Third_Party/FreeRTOS/Source/event_groups.c ****                                  const EventBits_t uxBitsToWaitFor,
 188:../../Middlewares/Third_Party/FreeRTOS/Source/event_groups.c ****                                  TickType_t xTicksToWait )
 189:../../Middlewares/Third_Party/FreeRTOS/Source/event_groups.c ****     {
 190:../../Middlewares/Third_Party/FreeRTOS/Source/event_groups.c ****         EventBits_t uxOriginalBitValue, uxReturn;
 191:../../Middlewares/Third_Party/FreeRTOS/Source/event_groups.c ****         EventGroup_t * pxEventBits = xEventGroup;
 192:../../Middlewares/Third_Party/FreeRTOS/Source/event_groups.c ****         BaseType_t xAlreadyYielded;
 193:../../Middlewares/Third_Party/FreeRTOS/Source/event_groups.c ****         BaseType_t xTimeoutOccurred = pdFALSE;
 194:../../Middlewares/Third_Party/FreeRTOS/Source/event_groups.c **** 
 195:../../Middlewares/Third_Party/FreeRTOS/Source/event_groups.c ****         traceENTER_xEventGroupSync( xEventGroup, uxBitsToSet, uxBitsToWaitFor, xTicksToWait );
 196:../../Middlewares/Third_Party/FreeRTOS/Source/event_groups.c **** 
ARM GAS  C:\Users\SMART\AppData\Local\Temp\ccUCLR5k.s 			page 5


 197:../../Middlewares/Third_Party/FreeRTOS/Source/event_groups.c ****         configASSERT( ( uxBitsToWaitFor & eventEVENT_BITS_CONTROL_BYTES ) == 0 );
 198:../../Middlewares/Third_Party/FreeRTOS/Source/event_groups.c ****         configASSERT( uxBitsToWaitFor != 0 );
 199:../../Middlewares/Third_Party/FreeRTOS/Source/event_groups.c ****         #if ( ( INCLUDE_xTaskGetSchedulerState == 1 ) || ( configUSE_TIMERS == 1 ) )
 200:../../Middlewares/Third_Party/FreeRTOS/Source/event_groups.c ****         {
 201:../../Middlewares/Third_Party/FreeRTOS/Source/event_groups.c ****             configASSERT( !( ( xTaskGetSchedulerState() == taskSCHEDULER_SUSPENDED ) && ( xTicksToW
 202:../../Middlewares/Third_Party/FreeRTOS/Source/event_groups.c ****         }
 203:../../Middlewares/Third_Party/FreeRTOS/Source/event_groups.c ****         #endif
 204:../../Middlewares/Third_Party/FreeRTOS/Source/event_groups.c **** 
 205:../../Middlewares/Third_Party/FreeRTOS/Source/event_groups.c ****         vTaskSuspendAll();
 206:../../Middlewares/Third_Party/FreeRTOS/Source/event_groups.c ****         {
 207:../../Middlewares/Third_Party/FreeRTOS/Source/event_groups.c ****             uxOriginalBitValue = pxEventBits->uxEventBits;
 208:../../Middlewares/Third_Party/FreeRTOS/Source/event_groups.c **** 
 209:../../Middlewares/Third_Party/FreeRTOS/Source/event_groups.c ****             ( void ) xEventGroupSetBits( xEventGroup, uxBitsToSet );
 210:../../Middlewares/Third_Party/FreeRTOS/Source/event_groups.c **** 
 211:../../Middlewares/Third_Party/FreeRTOS/Source/event_groups.c ****             if( ( ( uxOriginalBitValue | uxBitsToSet ) & uxBitsToWaitFor ) == uxBitsToWaitFor )
 212:../../Middlewares/Third_Party/FreeRTOS/Source/event_groups.c ****             {
 213:../../Middlewares/Third_Party/FreeRTOS/Source/event_groups.c ****                 /* All the rendezvous bits are now set - no need to block. */
 214:../../Middlewares/Third_Party/FreeRTOS/Source/event_groups.c ****                 uxReturn = ( uxOriginalBitValue | uxBitsToSet );
 215:../../Middlewares/Third_Party/FreeRTOS/Source/event_groups.c **** 
 216:../../Middlewares/Third_Party/FreeRTOS/Source/event_groups.c ****                 /* Rendezvous always clear the bits.  They will have been cleared
 217:../../Middlewares/Third_Party/FreeRTOS/Source/event_groups.c ****                  * already unless this is the only task in the rendezvous. */
 218:../../Middlewares/Third_Party/FreeRTOS/Source/event_groups.c ****                 pxEventBits->uxEventBits &= ~uxBitsToWaitFor;
 219:../../Middlewares/Third_Party/FreeRTOS/Source/event_groups.c **** 
 220:../../Middlewares/Third_Party/FreeRTOS/Source/event_groups.c ****                 xTicksToWait = 0;
 221:../../Middlewares/Third_Party/FreeRTOS/Source/event_groups.c ****             }
 222:../../Middlewares/Third_Party/FreeRTOS/Source/event_groups.c ****             else
 223:../../Middlewares/Third_Party/FreeRTOS/Source/event_groups.c ****             {
 224:../../Middlewares/Third_Party/FreeRTOS/Source/event_groups.c ****                 if( xTicksToWait != ( TickType_t ) 0 )
 225:../../Middlewares/Third_Party/FreeRTOS/Source/event_groups.c ****                 {
 226:../../Middlewares/Third_Party/FreeRTOS/Source/event_groups.c ****                     traceEVENT_GROUP_SYNC_BLOCK( xEventGroup, uxBitsToSet, uxBitsToWaitFor );
 227:../../Middlewares/Third_Party/FreeRTOS/Source/event_groups.c **** 
 228:../../Middlewares/Third_Party/FreeRTOS/Source/event_groups.c ****                     /* Store the bits that the calling task is waiting for in the
 229:../../Middlewares/Third_Party/FreeRTOS/Source/event_groups.c ****                      * task's event list item so the kernel knows when a match is
 230:../../Middlewares/Third_Party/FreeRTOS/Source/event_groups.c ****                      * found.  Then enter the blocked state. */
 231:../../Middlewares/Third_Party/FreeRTOS/Source/event_groups.c ****                     vTaskPlaceOnUnorderedEventList( &( pxEventBits->xTasksWaitingForBits ), ( uxBit
 232:../../Middlewares/Third_Party/FreeRTOS/Source/event_groups.c **** 
 233:../../Middlewares/Third_Party/FreeRTOS/Source/event_groups.c ****                     /* This assignment is obsolete as uxReturn will get set after
 234:../../Middlewares/Third_Party/FreeRTOS/Source/event_groups.c ****                      * the task unblocks, but some compilers mistakenly generate a
 235:../../Middlewares/Third_Party/FreeRTOS/Source/event_groups.c ****                      * warning about uxReturn being returned without being set if the
 236:../../Middlewares/Third_Party/FreeRTOS/Source/event_groups.c ****                      * assignment is omitted. */
 237:../../Middlewares/Third_Party/FreeRTOS/Source/event_groups.c ****                     uxReturn = 0;
 238:../../Middlewares/Third_Party/FreeRTOS/Source/event_groups.c ****                 }
 239:../../Middlewares/Third_Party/FreeRTOS/Source/event_groups.c ****                 else
 240:../../Middlewares/Third_Party/FreeRTOS/Source/event_groups.c ****                 {
 241:../../Middlewares/Third_Party/FreeRTOS/Source/event_groups.c ****                     /* The rendezvous bits were not set, but no block time was
 242:../../Middlewares/Third_Party/FreeRTOS/Source/event_groups.c ****                      * specified - just return the current event bit value. */
 243:../../Middlewares/Third_Party/FreeRTOS/Source/event_groups.c ****                     uxReturn = pxEventBits->uxEventBits;
 244:../../Middlewares/Third_Party/FreeRTOS/Source/event_groups.c ****                     xTimeoutOccurred = pdTRUE;
 245:../../Middlewares/Third_Party/FreeRTOS/Source/event_groups.c ****                 }
 246:../../Middlewares/Third_Party/FreeRTOS/Source/event_groups.c ****             }
 247:../../Middlewares/Third_Party/FreeRTOS/Source/event_groups.c ****         }
 248:../../Middlewares/Third_Party/FreeRTOS/Source/event_groups.c ****         xAlreadyYielded = xTaskResumeAll();
 249:../../Middlewares/Third_Party/FreeRTOS/Source/event_groups.c **** 
 250:../../Middlewares/Third_Party/FreeRTOS/Source/event_groups.c ****         if( xTicksToWait != ( TickType_t ) 0 )
 251:../../Middlewares/Third_Party/FreeRTOS/Source/event_groups.c ****         {
 252:../../Middlewares/Third_Party/FreeRTOS/Source/event_groups.c ****             if( xAlreadyYielded == pdFALSE )
 253:../../Middlewares/Third_Party/FreeRTOS/Source/event_groups.c ****             {
ARM GAS  C:\Users\SMART\AppData\Local\Temp\ccUCLR5k.s 			page 6


 254:../../Middlewares/Third_Party/FreeRTOS/Source/event_groups.c ****                 taskYIELD_WITHIN_API();
 255:../../Middlewares/Third_Party/FreeRTOS/Source/event_groups.c ****             }
 256:../../Middlewares/Third_Party/FreeRTOS/Source/event_groups.c ****             else
 257:../../Middlewares/Third_Party/FreeRTOS/Source/event_groups.c ****             {
 258:../../Middlewares/Third_Party/FreeRTOS/Source/event_groups.c ****                 mtCOVERAGE_TEST_MARKER();
 259:../../Middlewares/Third_Party/FreeRTOS/Source/event_groups.c ****             }
 260:../../Middlewares/Third_Party/FreeRTOS/Source/event_groups.c **** 
 261:../../Middlewares/Third_Party/FreeRTOS/Source/event_groups.c ****             /* The task blocked to wait for its required bits to be set - at this
 262:../../Middlewares/Third_Party/FreeRTOS/Source/event_groups.c ****              * point either the required bits were set or the block time expired.  If
 263:../../Middlewares/Third_Party/FreeRTOS/Source/event_groups.c ****              * the required bits were set they will have been stored in the task's
 264:../../Middlewares/Third_Party/FreeRTOS/Source/event_groups.c ****              * event list item, and they should now be retrieved then cleared. */
 265:../../Middlewares/Third_Party/FreeRTOS/Source/event_groups.c ****             uxReturn = uxTaskResetEventItemValue();
 266:../../Middlewares/Third_Party/FreeRTOS/Source/event_groups.c **** 
 267:../../Middlewares/Third_Party/FreeRTOS/Source/event_groups.c ****             if( ( uxReturn & eventUNBLOCKED_DUE_TO_BIT_SET ) == ( EventBits_t ) 0 )
 268:../../Middlewares/Third_Party/FreeRTOS/Source/event_groups.c ****             {
 269:../../Middlewares/Third_Party/FreeRTOS/Source/event_groups.c ****                 /* The task timed out, just return the current event bit value. */
 270:../../Middlewares/Third_Party/FreeRTOS/Source/event_groups.c ****                 taskENTER_CRITICAL();
 271:../../Middlewares/Third_Party/FreeRTOS/Source/event_groups.c ****                 {
 272:../../Middlewares/Third_Party/FreeRTOS/Source/event_groups.c ****                     uxReturn = pxEventBits->uxEventBits;
 273:../../Middlewares/Third_Party/FreeRTOS/Source/event_groups.c **** 
 274:../../Middlewares/Third_Party/FreeRTOS/Source/event_groups.c ****                     /* Although the task got here because it timed out before the
 275:../../Middlewares/Third_Party/FreeRTOS/Source/event_groups.c ****                      * bits it was waiting for were set, it is possible that since it
 276:../../Middlewares/Third_Party/FreeRTOS/Source/event_groups.c ****                      * unblocked another task has set the bits.  If this is the case
 277:../../Middlewares/Third_Party/FreeRTOS/Source/event_groups.c ****                      * then it needs to clear the bits before exiting. */
 278:../../Middlewares/Third_Party/FreeRTOS/Source/event_groups.c ****                     if( ( uxReturn & uxBitsToWaitFor ) == uxBitsToWaitFor )
 279:../../Middlewares/Third_Party/FreeRTOS/Source/event_groups.c ****                     {
 280:../../Middlewares/Third_Party/FreeRTOS/Source/event_groups.c ****                         pxEventBits->uxEventBits &= ~uxBitsToWaitFor;
 281:../../Middlewares/Third_Party/FreeRTOS/Source/event_groups.c ****                     }
 282:../../Middlewares/Third_Party/FreeRTOS/Source/event_groups.c ****                     else
 283:../../Middlewares/Third_Party/FreeRTOS/Source/event_groups.c ****                     {
 284:../../Middlewares/Third_Party/FreeRTOS/Source/event_groups.c ****                         mtCOVERAGE_TEST_MARKER();
 285:../../Middlewares/Third_Party/FreeRTOS/Source/event_groups.c ****                     }
 286:../../Middlewares/Third_Party/FreeRTOS/Source/event_groups.c ****                 }
 287:../../Middlewares/Third_Party/FreeRTOS/Source/event_groups.c ****                 taskEXIT_CRITICAL();
 288:../../Middlewares/Third_Party/FreeRTOS/Source/event_groups.c **** 
 289:../../Middlewares/Third_Party/FreeRTOS/Source/event_groups.c ****                 xTimeoutOccurred = pdTRUE;
 290:../../Middlewares/Third_Party/FreeRTOS/Source/event_groups.c ****             }
 291:../../Middlewares/Third_Party/FreeRTOS/Source/event_groups.c ****             else
 292:../../Middlewares/Third_Party/FreeRTOS/Source/event_groups.c ****             {
 293:../../Middlewares/Third_Party/FreeRTOS/Source/event_groups.c ****                 /* The task unblocked because the bits were set. */
 294:../../Middlewares/Third_Party/FreeRTOS/Source/event_groups.c ****             }
 295:../../Middlewares/Third_Party/FreeRTOS/Source/event_groups.c **** 
 296:../../Middlewares/Third_Party/FreeRTOS/Source/event_groups.c ****             /* Control bits might be set as the task had blocked should not be
 297:../../Middlewares/Third_Party/FreeRTOS/Source/event_groups.c ****              * returned. */
 298:../../Middlewares/Third_Party/FreeRTOS/Source/event_groups.c ****             uxReturn &= ~eventEVENT_BITS_CONTROL_BYTES;
 299:../../Middlewares/Third_Party/FreeRTOS/Source/event_groups.c ****         }
 300:../../Middlewares/Third_Party/FreeRTOS/Source/event_groups.c **** 
 301:../../Middlewares/Third_Party/FreeRTOS/Source/event_groups.c ****         traceEVENT_GROUP_SYNC_END( xEventGroup, uxBitsToSet, uxBitsToWaitFor, xTimeoutOccurred );
 302:../../Middlewares/Third_Party/FreeRTOS/Source/event_groups.c **** 
 303:../../Middlewares/Third_Party/FreeRTOS/Source/event_groups.c ****         /* Prevent compiler warnings when trace macros are not used. */
 304:../../Middlewares/Third_Party/FreeRTOS/Source/event_groups.c ****         ( void ) xTimeoutOccurred;
 305:../../Middlewares/Third_Party/FreeRTOS/Source/event_groups.c **** 
 306:../../Middlewares/Third_Party/FreeRTOS/Source/event_groups.c ****         traceRETURN_xEventGroupSync( uxReturn );
 307:../../Middlewares/Third_Party/FreeRTOS/Source/event_groups.c **** 
 308:../../Middlewares/Third_Party/FreeRTOS/Source/event_groups.c ****         return uxReturn;
 309:../../Middlewares/Third_Party/FreeRTOS/Source/event_groups.c ****     }
 310:../../Middlewares/Third_Party/FreeRTOS/Source/event_groups.c **** /*-----------------------------------------------------------*/
ARM GAS  C:\Users\SMART\AppData\Local\Temp\ccUCLR5k.s 			page 7


 311:../../Middlewares/Third_Party/FreeRTOS/Source/event_groups.c **** 
 312:../../Middlewares/Third_Party/FreeRTOS/Source/event_groups.c ****     EventBits_t xEventGroupWaitBits( EventGroupHandle_t xEventGroup,
 313:../../Middlewares/Third_Party/FreeRTOS/Source/event_groups.c ****                                      const EventBits_t uxBitsToWaitFor,
 314:../../Middlewares/Third_Party/FreeRTOS/Source/event_groups.c ****                                      const BaseType_t xClearOnExit,
 315:../../Middlewares/Third_Party/FreeRTOS/Source/event_groups.c ****                                      const BaseType_t xWaitForAllBits,
 316:../../Middlewares/Third_Party/FreeRTOS/Source/event_groups.c ****                                      TickType_t xTicksToWait )
 317:../../Middlewares/Third_Party/FreeRTOS/Source/event_groups.c ****     {
 318:../../Middlewares/Third_Party/FreeRTOS/Source/event_groups.c ****         EventGroup_t * pxEventBits = xEventGroup;
 319:../../Middlewares/Third_Party/FreeRTOS/Source/event_groups.c ****         EventBits_t uxReturn, uxControlBits = 0;
 320:../../Middlewares/Third_Party/FreeRTOS/Source/event_groups.c ****         BaseType_t xWaitConditionMet, xAlreadyYielded;
 321:../../Middlewares/Third_Party/FreeRTOS/Source/event_groups.c ****         BaseType_t xTimeoutOccurred = pdFALSE;
 322:../../Middlewares/Third_Party/FreeRTOS/Source/event_groups.c **** 
 323:../../Middlewares/Third_Party/FreeRTOS/Source/event_groups.c ****         traceENTER_xEventGroupWaitBits( xEventGroup, uxBitsToWaitFor, xClearOnExit, xWaitForAllBits
 324:../../Middlewares/Third_Party/FreeRTOS/Source/event_groups.c **** 
 325:../../Middlewares/Third_Party/FreeRTOS/Source/event_groups.c ****         /* Check the user is not attempting to wait on the bits used by the kernel
 326:../../Middlewares/Third_Party/FreeRTOS/Source/event_groups.c ****          * itself, and that at least one bit is being requested. */
 327:../../Middlewares/Third_Party/FreeRTOS/Source/event_groups.c ****         configASSERT( xEventGroup );
 328:../../Middlewares/Third_Party/FreeRTOS/Source/event_groups.c ****         configASSERT( ( uxBitsToWaitFor & eventEVENT_BITS_CONTROL_BYTES ) == 0 );
 329:../../Middlewares/Third_Party/FreeRTOS/Source/event_groups.c ****         configASSERT( uxBitsToWaitFor != 0 );
 330:../../Middlewares/Third_Party/FreeRTOS/Source/event_groups.c ****         #if ( ( INCLUDE_xTaskGetSchedulerState == 1 ) || ( configUSE_TIMERS == 1 ) )
 331:../../Middlewares/Third_Party/FreeRTOS/Source/event_groups.c ****         {
 332:../../Middlewares/Third_Party/FreeRTOS/Source/event_groups.c ****             configASSERT( !( ( xTaskGetSchedulerState() == taskSCHEDULER_SUSPENDED ) && ( xTicksToW
 333:../../Middlewares/Third_Party/FreeRTOS/Source/event_groups.c ****         }
 334:../../Middlewares/Third_Party/FreeRTOS/Source/event_groups.c ****         #endif
 335:../../Middlewares/Third_Party/FreeRTOS/Source/event_groups.c **** 
 336:../../Middlewares/Third_Party/FreeRTOS/Source/event_groups.c ****         vTaskSuspendAll();
 337:../../Middlewares/Third_Party/FreeRTOS/Source/event_groups.c ****         {
 338:../../Middlewares/Third_Party/FreeRTOS/Source/event_groups.c ****             const EventBits_t uxCurrentEventBits = pxEventBits->uxEventBits;
 339:../../Middlewares/Third_Party/FreeRTOS/Source/event_groups.c **** 
 340:../../Middlewares/Third_Party/FreeRTOS/Source/event_groups.c ****             /* Check to see if the wait condition is already met or not. */
 341:../../Middlewares/Third_Party/FreeRTOS/Source/event_groups.c ****             xWaitConditionMet = prvTestWaitCondition( uxCurrentEventBits, uxBitsToWaitFor, xWaitFor
 342:../../Middlewares/Third_Party/FreeRTOS/Source/event_groups.c **** 
 343:../../Middlewares/Third_Party/FreeRTOS/Source/event_groups.c ****             if( xWaitConditionMet != pdFALSE )
 344:../../Middlewares/Third_Party/FreeRTOS/Source/event_groups.c ****             {
 345:../../Middlewares/Third_Party/FreeRTOS/Source/event_groups.c ****                 /* The wait condition has already been met so there is no need to
 346:../../Middlewares/Third_Party/FreeRTOS/Source/event_groups.c ****                  * block. */
 347:../../Middlewares/Third_Party/FreeRTOS/Source/event_groups.c ****                 uxReturn = uxCurrentEventBits;
 348:../../Middlewares/Third_Party/FreeRTOS/Source/event_groups.c ****                 xTicksToWait = ( TickType_t ) 0;
 349:../../Middlewares/Third_Party/FreeRTOS/Source/event_groups.c **** 
 350:../../Middlewares/Third_Party/FreeRTOS/Source/event_groups.c ****                 /* Clear the wait bits if requested to do so. */
 351:../../Middlewares/Third_Party/FreeRTOS/Source/event_groups.c ****                 if( xClearOnExit != pdFALSE )
 352:../../Middlewares/Third_Party/FreeRTOS/Source/event_groups.c ****                 {
 353:../../Middlewares/Third_Party/FreeRTOS/Source/event_groups.c ****                     pxEventBits->uxEventBits &= ~uxBitsToWaitFor;
 354:../../Middlewares/Third_Party/FreeRTOS/Source/event_groups.c ****                 }
 355:../../Middlewares/Third_Party/FreeRTOS/Source/event_groups.c ****                 else
 356:../../Middlewares/Third_Party/FreeRTOS/Source/event_groups.c ****                 {
 357:../../Middlewares/Third_Party/FreeRTOS/Source/event_groups.c ****                     mtCOVERAGE_TEST_MARKER();
 358:../../Middlewares/Third_Party/FreeRTOS/Source/event_groups.c ****                 }
 359:../../Middlewares/Third_Party/FreeRTOS/Source/event_groups.c ****             }
 360:../../Middlewares/Third_Party/FreeRTOS/Source/event_groups.c ****             else if( xTicksToWait == ( TickType_t ) 0 )
 361:../../Middlewares/Third_Party/FreeRTOS/Source/event_groups.c ****             {
 362:../../Middlewares/Third_Party/FreeRTOS/Source/event_groups.c ****                 /* The wait condition has not been met, but no block time was
 363:../../Middlewares/Third_Party/FreeRTOS/Source/event_groups.c ****                  * specified, so just return the current value. */
 364:../../Middlewares/Third_Party/FreeRTOS/Source/event_groups.c ****                 uxReturn = uxCurrentEventBits;
 365:../../Middlewares/Third_Party/FreeRTOS/Source/event_groups.c ****                 xTimeoutOccurred = pdTRUE;
 366:../../Middlewares/Third_Party/FreeRTOS/Source/event_groups.c ****             }
 367:../../Middlewares/Third_Party/FreeRTOS/Source/event_groups.c ****             else
ARM GAS  C:\Users\SMART\AppData\Local\Temp\ccUCLR5k.s 			page 8


 368:../../Middlewares/Third_Party/FreeRTOS/Source/event_groups.c ****             {
 369:../../Middlewares/Third_Party/FreeRTOS/Source/event_groups.c ****                 /* The task is going to block to wait for its required bits to be
 370:../../Middlewares/Third_Party/FreeRTOS/Source/event_groups.c ****                  * set.  uxControlBits are used to remember the specified behaviour of
 371:../../Middlewares/Third_Party/FreeRTOS/Source/event_groups.c ****                  * this call to xEventGroupWaitBits() - for use when the event bits
 372:../../Middlewares/Third_Party/FreeRTOS/Source/event_groups.c ****                  * unblock the task. */
 373:../../Middlewares/Third_Party/FreeRTOS/Source/event_groups.c ****                 if( xClearOnExit != pdFALSE )
 374:../../Middlewares/Third_Party/FreeRTOS/Source/event_groups.c ****                 {
 375:../../Middlewares/Third_Party/FreeRTOS/Source/event_groups.c ****                     uxControlBits |= eventCLEAR_EVENTS_ON_EXIT_BIT;
 376:../../Middlewares/Third_Party/FreeRTOS/Source/event_groups.c ****                 }
 377:../../Middlewares/Third_Party/FreeRTOS/Source/event_groups.c ****                 else
 378:../../Middlewares/Third_Party/FreeRTOS/Source/event_groups.c ****                 {
 379:../../Middlewares/Third_Party/FreeRTOS/Source/event_groups.c ****                     mtCOVERAGE_TEST_MARKER();
 380:../../Middlewares/Third_Party/FreeRTOS/Source/event_groups.c ****                 }
 381:../../Middlewares/Third_Party/FreeRTOS/Source/event_groups.c **** 
 382:../../Middlewares/Third_Party/FreeRTOS/Source/event_groups.c ****                 if( xWaitForAllBits != pdFALSE )
 383:../../Middlewares/Third_Party/FreeRTOS/Source/event_groups.c ****                 {
 384:../../Middlewares/Third_Party/FreeRTOS/Source/event_groups.c ****                     uxControlBits |= eventWAIT_FOR_ALL_BITS;
 385:../../Middlewares/Third_Party/FreeRTOS/Source/event_groups.c ****                 }
 386:../../Middlewares/Third_Party/FreeRTOS/Source/event_groups.c ****                 else
 387:../../Middlewares/Third_Party/FreeRTOS/Source/event_groups.c ****                 {
 388:../../Middlewares/Third_Party/FreeRTOS/Source/event_groups.c ****                     mtCOVERAGE_TEST_MARKER();
 389:../../Middlewares/Third_Party/FreeRTOS/Source/event_groups.c ****                 }
 390:../../Middlewares/Third_Party/FreeRTOS/Source/event_groups.c **** 
 391:../../Middlewares/Third_Party/FreeRTOS/Source/event_groups.c ****                 /* Store the bits that the calling task is waiting for in the
 392:../../Middlewares/Third_Party/FreeRTOS/Source/event_groups.c ****                  * task's event list item so the kernel knows when a match is
 393:../../Middlewares/Third_Party/FreeRTOS/Source/event_groups.c ****                  * found.  Then enter the blocked state. */
 394:../../Middlewares/Third_Party/FreeRTOS/Source/event_groups.c ****                 vTaskPlaceOnUnorderedEventList( &( pxEventBits->xTasksWaitingForBits ), ( uxBitsToW
 395:../../Middlewares/Third_Party/FreeRTOS/Source/event_groups.c **** 
 396:../../Middlewares/Third_Party/FreeRTOS/Source/event_groups.c ****                 /* This is obsolete as it will get set after the task unblocks, but
 397:../../Middlewares/Third_Party/FreeRTOS/Source/event_groups.c ****                  * some compilers mistakenly generate a warning about the variable
 398:../../Middlewares/Third_Party/FreeRTOS/Source/event_groups.c ****                  * being returned without being set if it is not done. */
 399:../../Middlewares/Third_Party/FreeRTOS/Source/event_groups.c ****                 uxReturn = 0;
 400:../../Middlewares/Third_Party/FreeRTOS/Source/event_groups.c **** 
 401:../../Middlewares/Third_Party/FreeRTOS/Source/event_groups.c ****                 traceEVENT_GROUP_WAIT_BITS_BLOCK( xEventGroup, uxBitsToWaitFor );
 402:../../Middlewares/Third_Party/FreeRTOS/Source/event_groups.c ****             }
 403:../../Middlewares/Third_Party/FreeRTOS/Source/event_groups.c ****         }
 404:../../Middlewares/Third_Party/FreeRTOS/Source/event_groups.c ****         xAlreadyYielded = xTaskResumeAll();
 405:../../Middlewares/Third_Party/FreeRTOS/Source/event_groups.c **** 
 406:../../Middlewares/Third_Party/FreeRTOS/Source/event_groups.c ****         if( xTicksToWait != ( TickType_t ) 0 )
 407:../../Middlewares/Third_Party/FreeRTOS/Source/event_groups.c ****         {
 408:../../Middlewares/Third_Party/FreeRTOS/Source/event_groups.c ****             if( xAlreadyYielded == pdFALSE )
 409:../../Middlewares/Third_Party/FreeRTOS/Source/event_groups.c ****             {
 410:../../Middlewares/Third_Party/FreeRTOS/Source/event_groups.c ****                 taskYIELD_WITHIN_API();
 411:../../Middlewares/Third_Party/FreeRTOS/Source/event_groups.c ****             }
 412:../../Middlewares/Third_Party/FreeRTOS/Source/event_groups.c ****             else
 413:../../Middlewares/Third_Party/FreeRTOS/Source/event_groups.c ****             {
 414:../../Middlewares/Third_Party/FreeRTOS/Source/event_groups.c ****                 mtCOVERAGE_TEST_MARKER();
 415:../../Middlewares/Third_Party/FreeRTOS/Source/event_groups.c ****             }
 416:../../Middlewares/Third_Party/FreeRTOS/Source/event_groups.c **** 
 417:../../Middlewares/Third_Party/FreeRTOS/Source/event_groups.c ****             /* The task blocked to wait for its required bits to be set - at this
 418:../../Middlewares/Third_Party/FreeRTOS/Source/event_groups.c ****              * point either the required bits were set or the block time expired.  If
 419:../../Middlewares/Third_Party/FreeRTOS/Source/event_groups.c ****              * the required bits were set they will have been stored in the task's
 420:../../Middlewares/Third_Party/FreeRTOS/Source/event_groups.c ****              * event list item, and they should now be retrieved then cleared. */
 421:../../Middlewares/Third_Party/FreeRTOS/Source/event_groups.c ****             uxReturn = uxTaskResetEventItemValue();
 422:../../Middlewares/Third_Party/FreeRTOS/Source/event_groups.c **** 
 423:../../Middlewares/Third_Party/FreeRTOS/Source/event_groups.c ****             if( ( uxReturn & eventUNBLOCKED_DUE_TO_BIT_SET ) == ( EventBits_t ) 0 )
 424:../../Middlewares/Third_Party/FreeRTOS/Source/event_groups.c ****             {
ARM GAS  C:\Users\SMART\AppData\Local\Temp\ccUCLR5k.s 			page 9


 425:../../Middlewares/Third_Party/FreeRTOS/Source/event_groups.c ****                 taskENTER_CRITICAL();
 426:../../Middlewares/Third_Party/FreeRTOS/Source/event_groups.c ****                 {
 427:../../Middlewares/Third_Party/FreeRTOS/Source/event_groups.c ****                     /* The task timed out, just return the current event bit value. */
 428:../../Middlewares/Third_Party/FreeRTOS/Source/event_groups.c ****                     uxReturn = pxEventBits->uxEventBits;
 429:../../Middlewares/Third_Party/FreeRTOS/Source/event_groups.c **** 
 430:../../Middlewares/Third_Party/FreeRTOS/Source/event_groups.c ****                     /* It is possible that the event bits were updated between this
 431:../../Middlewares/Third_Party/FreeRTOS/Source/event_groups.c ****                      * task leaving the Blocked state and running again. */
 432:../../Middlewares/Third_Party/FreeRTOS/Source/event_groups.c ****                     if( prvTestWaitCondition( uxReturn, uxBitsToWaitFor, xWaitForAllBits ) != pdFAL
 433:../../Middlewares/Third_Party/FreeRTOS/Source/event_groups.c ****                     {
 434:../../Middlewares/Third_Party/FreeRTOS/Source/event_groups.c ****                         if( xClearOnExit != pdFALSE )
 435:../../Middlewares/Third_Party/FreeRTOS/Source/event_groups.c ****                         {
 436:../../Middlewares/Third_Party/FreeRTOS/Source/event_groups.c ****                             pxEventBits->uxEventBits &= ~uxBitsToWaitFor;
 437:../../Middlewares/Third_Party/FreeRTOS/Source/event_groups.c ****                         }
 438:../../Middlewares/Third_Party/FreeRTOS/Source/event_groups.c ****                         else
 439:../../Middlewares/Third_Party/FreeRTOS/Source/event_groups.c ****                         {
 440:../../Middlewares/Third_Party/FreeRTOS/Source/event_groups.c ****                             mtCOVERAGE_TEST_MARKER();
 441:../../Middlewares/Third_Party/FreeRTOS/Source/event_groups.c ****                         }
 442:../../Middlewares/Third_Party/FreeRTOS/Source/event_groups.c ****                     }
 443:../../Middlewares/Third_Party/FreeRTOS/Source/event_groups.c ****                     else
 444:../../Middlewares/Third_Party/FreeRTOS/Source/event_groups.c ****                     {
 445:../../Middlewares/Third_Party/FreeRTOS/Source/event_groups.c ****                         mtCOVERAGE_TEST_MARKER();
 446:../../Middlewares/Third_Party/FreeRTOS/Source/event_groups.c ****                     }
 447:../../Middlewares/Third_Party/FreeRTOS/Source/event_groups.c **** 
 448:../../Middlewares/Third_Party/FreeRTOS/Source/event_groups.c ****                     xTimeoutOccurred = pdTRUE;
 449:../../Middlewares/Third_Party/FreeRTOS/Source/event_groups.c ****                 }
 450:../../Middlewares/Third_Party/FreeRTOS/Source/event_groups.c ****                 taskEXIT_CRITICAL();
 451:../../Middlewares/Third_Party/FreeRTOS/Source/event_groups.c ****             }
 452:../../Middlewares/Third_Party/FreeRTOS/Source/event_groups.c ****             else
 453:../../Middlewares/Third_Party/FreeRTOS/Source/event_groups.c ****             {
 454:../../Middlewares/Third_Party/FreeRTOS/Source/event_groups.c ****                 /* The task unblocked because the bits were set. */
 455:../../Middlewares/Third_Party/FreeRTOS/Source/event_groups.c ****             }
 456:../../Middlewares/Third_Party/FreeRTOS/Source/event_groups.c **** 
 457:../../Middlewares/Third_Party/FreeRTOS/Source/event_groups.c ****             /* The task blocked so control bits may have been set. */
 458:../../Middlewares/Third_Party/FreeRTOS/Source/event_groups.c ****             uxReturn &= ~eventEVENT_BITS_CONTROL_BYTES;
 459:../../Middlewares/Third_Party/FreeRTOS/Source/event_groups.c ****         }
 460:../../Middlewares/Third_Party/FreeRTOS/Source/event_groups.c **** 
 461:../../Middlewares/Third_Party/FreeRTOS/Source/event_groups.c ****         traceEVENT_GROUP_WAIT_BITS_END( xEventGroup, uxBitsToWaitFor, xTimeoutOccurred );
 462:../../Middlewares/Third_Party/FreeRTOS/Source/event_groups.c **** 
 463:../../Middlewares/Third_Party/FreeRTOS/Source/event_groups.c ****         /* Prevent compiler warnings when trace macros are not used. */
 464:../../Middlewares/Third_Party/FreeRTOS/Source/event_groups.c ****         ( void ) xTimeoutOccurred;
 465:../../Middlewares/Third_Party/FreeRTOS/Source/event_groups.c **** 
 466:../../Middlewares/Third_Party/FreeRTOS/Source/event_groups.c ****         traceRETURN_xEventGroupWaitBits( uxReturn );
 467:../../Middlewares/Third_Party/FreeRTOS/Source/event_groups.c **** 
 468:../../Middlewares/Third_Party/FreeRTOS/Source/event_groups.c ****         return uxReturn;
 469:../../Middlewares/Third_Party/FreeRTOS/Source/event_groups.c ****     }
 470:../../Middlewares/Third_Party/FreeRTOS/Source/event_groups.c **** /*-----------------------------------------------------------*/
 471:../../Middlewares/Third_Party/FreeRTOS/Source/event_groups.c **** 
 472:../../Middlewares/Third_Party/FreeRTOS/Source/event_groups.c ****     EventBits_t xEventGroupClearBits( EventGroupHandle_t xEventGroup,
 473:../../Middlewares/Third_Party/FreeRTOS/Source/event_groups.c ****                                       const EventBits_t uxBitsToClear )
 474:../../Middlewares/Third_Party/FreeRTOS/Source/event_groups.c ****     {
 475:../../Middlewares/Third_Party/FreeRTOS/Source/event_groups.c ****         EventGroup_t * pxEventBits = xEventGroup;
 476:../../Middlewares/Third_Party/FreeRTOS/Source/event_groups.c ****         EventBits_t uxReturn;
 477:../../Middlewares/Third_Party/FreeRTOS/Source/event_groups.c **** 
 478:../../Middlewares/Third_Party/FreeRTOS/Source/event_groups.c ****         traceENTER_xEventGroupClearBits( xEventGroup, uxBitsToClear );
 479:../../Middlewares/Third_Party/FreeRTOS/Source/event_groups.c **** 
 480:../../Middlewares/Third_Party/FreeRTOS/Source/event_groups.c ****         /* Check the user is not attempting to clear the bits used by the kernel
 481:../../Middlewares/Third_Party/FreeRTOS/Source/event_groups.c ****          * itself. */
ARM GAS  C:\Users\SMART\AppData\Local\Temp\ccUCLR5k.s 			page 10


 482:../../Middlewares/Third_Party/FreeRTOS/Source/event_groups.c ****         configASSERT( xEventGroup );
 483:../../Middlewares/Third_Party/FreeRTOS/Source/event_groups.c ****         configASSERT( ( uxBitsToClear & eventEVENT_BITS_CONTROL_BYTES ) == 0 );
 484:../../Middlewares/Third_Party/FreeRTOS/Source/event_groups.c **** 
 485:../../Middlewares/Third_Party/FreeRTOS/Source/event_groups.c ****         taskENTER_CRITICAL();
 486:../../Middlewares/Third_Party/FreeRTOS/Source/event_groups.c ****         {
 487:../../Middlewares/Third_Party/FreeRTOS/Source/event_groups.c ****             traceEVENT_GROUP_CLEAR_BITS( xEventGroup, uxBitsToClear );
 488:../../Middlewares/Third_Party/FreeRTOS/Source/event_groups.c **** 
 489:../../Middlewares/Third_Party/FreeRTOS/Source/event_groups.c ****             /* The value returned is the event group value prior to the bits being
 490:../../Middlewares/Third_Party/FreeRTOS/Source/event_groups.c ****              * cleared. */
 491:../../Middlewares/Third_Party/FreeRTOS/Source/event_groups.c ****             uxReturn = pxEventBits->uxEventBits;
 492:../../Middlewares/Third_Party/FreeRTOS/Source/event_groups.c **** 
 493:../../Middlewares/Third_Party/FreeRTOS/Source/event_groups.c ****             /* Clear the bits. */
 494:../../Middlewares/Third_Party/FreeRTOS/Source/event_groups.c ****             pxEventBits->uxEventBits &= ~uxBitsToClear;
 495:../../Middlewares/Third_Party/FreeRTOS/Source/event_groups.c ****         }
 496:../../Middlewares/Third_Party/FreeRTOS/Source/event_groups.c ****         taskEXIT_CRITICAL();
 497:../../Middlewares/Third_Party/FreeRTOS/Source/event_groups.c **** 
 498:../../Middlewares/Third_Party/FreeRTOS/Source/event_groups.c ****         traceRETURN_xEventGroupClearBits( uxReturn );
 499:../../Middlewares/Third_Party/FreeRTOS/Source/event_groups.c **** 
 500:../../Middlewares/Third_Party/FreeRTOS/Source/event_groups.c ****         return uxReturn;
 501:../../Middlewares/Third_Party/FreeRTOS/Source/event_groups.c ****     }
 502:../../Middlewares/Third_Party/FreeRTOS/Source/event_groups.c **** /*-----------------------------------------------------------*/
 503:../../Middlewares/Third_Party/FreeRTOS/Source/event_groups.c **** 
 504:../../Middlewares/Third_Party/FreeRTOS/Source/event_groups.c ****     #if ( ( configUSE_TRACE_FACILITY == 1 ) && ( INCLUDE_xTimerPendFunctionCall == 1 ) && ( configU
 505:../../Middlewares/Third_Party/FreeRTOS/Source/event_groups.c **** 
 506:../../Middlewares/Third_Party/FreeRTOS/Source/event_groups.c ****         BaseType_t xEventGroupClearBitsFromISR( EventGroupHandle_t xEventGroup,
 507:../../Middlewares/Third_Party/FreeRTOS/Source/event_groups.c ****                                                 const EventBits_t uxBitsToClear )
 508:../../Middlewares/Third_Party/FreeRTOS/Source/event_groups.c ****         {
 509:../../Middlewares/Third_Party/FreeRTOS/Source/event_groups.c ****             BaseType_t xReturn;
 510:../../Middlewares/Third_Party/FreeRTOS/Source/event_groups.c **** 
 511:../../Middlewares/Third_Party/FreeRTOS/Source/event_groups.c ****             traceENTER_xEventGroupClearBitsFromISR( xEventGroup, uxBitsToClear );
 512:../../Middlewares/Third_Party/FreeRTOS/Source/event_groups.c **** 
 513:../../Middlewares/Third_Party/FreeRTOS/Source/event_groups.c ****             traceEVENT_GROUP_CLEAR_BITS_FROM_ISR( xEventGroup, uxBitsToClear );
 514:../../Middlewares/Third_Party/FreeRTOS/Source/event_groups.c ****             xReturn = xTimerPendFunctionCallFromISR( vEventGroupClearBitsCallback, ( void * ) xEven
 515:../../Middlewares/Third_Party/FreeRTOS/Source/event_groups.c **** 
 516:../../Middlewares/Third_Party/FreeRTOS/Source/event_groups.c ****             traceRETURN_xEventGroupClearBitsFromISR( xReturn );
 517:../../Middlewares/Third_Party/FreeRTOS/Source/event_groups.c **** 
 518:../../Middlewares/Third_Party/FreeRTOS/Source/event_groups.c ****             return xReturn;
 519:../../Middlewares/Third_Party/FreeRTOS/Source/event_groups.c ****         }
 520:../../Middlewares/Third_Party/FreeRTOS/Source/event_groups.c **** 
 521:../../Middlewares/Third_Party/FreeRTOS/Source/event_groups.c ****     #endif /* if ( ( configUSE_TRACE_FACILITY == 1 ) && ( INCLUDE_xTimerPendFunctionCall == 1 ) && 
 522:../../Middlewares/Third_Party/FreeRTOS/Source/event_groups.c **** /*-----------------------------------------------------------*/
 523:../../Middlewares/Third_Party/FreeRTOS/Source/event_groups.c **** 
 524:../../Middlewares/Third_Party/FreeRTOS/Source/event_groups.c ****     EventBits_t xEventGroupGetBitsFromISR( EventGroupHandle_t xEventGroup )
 525:../../Middlewares/Third_Party/FreeRTOS/Source/event_groups.c ****     {
 526:../../Middlewares/Third_Party/FreeRTOS/Source/event_groups.c ****         UBaseType_t uxSavedInterruptStatus;
 527:../../Middlewares/Third_Party/FreeRTOS/Source/event_groups.c ****         EventGroup_t const * const pxEventBits = xEventGroup;
 528:../../Middlewares/Third_Party/FreeRTOS/Source/event_groups.c ****         EventBits_t uxReturn;
 529:../../Middlewares/Third_Party/FreeRTOS/Source/event_groups.c **** 
 530:../../Middlewares/Third_Party/FreeRTOS/Source/event_groups.c ****         traceENTER_xEventGroupGetBitsFromISR( xEventGroup );
 531:../../Middlewares/Third_Party/FreeRTOS/Source/event_groups.c **** 
 532:../../Middlewares/Third_Party/FreeRTOS/Source/event_groups.c ****         /* MISRA Ref 4.7.1 [Return value shall be checked] */
 533:../../Middlewares/Third_Party/FreeRTOS/Source/event_groups.c ****         /* More details at: https://github.com/FreeRTOS/FreeRTOS-Kernel/blob/main/MISRA.md#dir-47 *
 534:../../Middlewares/Third_Party/FreeRTOS/Source/event_groups.c ****         /* coverity[misra_c_2012_directive_4_7_violation] */
 535:../../Middlewares/Third_Party/FreeRTOS/Source/event_groups.c ****         uxSavedInterruptStatus = taskENTER_CRITICAL_FROM_ISR();
 536:../../Middlewares/Third_Party/FreeRTOS/Source/event_groups.c ****         {
 537:../../Middlewares/Third_Party/FreeRTOS/Source/event_groups.c ****             uxReturn = pxEventBits->uxEventBits;
 538:../../Middlewares/Third_Party/FreeRTOS/Source/event_groups.c ****         }
ARM GAS  C:\Users\SMART\AppData\Local\Temp\ccUCLR5k.s 			page 11


 539:../../Middlewares/Third_Party/FreeRTOS/Source/event_groups.c ****         taskEXIT_CRITICAL_FROM_ISR( uxSavedInterruptStatus );
 540:../../Middlewares/Third_Party/FreeRTOS/Source/event_groups.c **** 
 541:../../Middlewares/Third_Party/FreeRTOS/Source/event_groups.c ****         traceRETURN_xEventGroupGetBitsFromISR( uxReturn );
 542:../../Middlewares/Third_Party/FreeRTOS/Source/event_groups.c **** 
 543:../../Middlewares/Third_Party/FreeRTOS/Source/event_groups.c ****         return uxReturn;
 544:../../Middlewares/Third_Party/FreeRTOS/Source/event_groups.c ****     }
 545:../../Middlewares/Third_Party/FreeRTOS/Source/event_groups.c **** /*-----------------------------------------------------------*/
 546:../../Middlewares/Third_Party/FreeRTOS/Source/event_groups.c **** 
 547:../../Middlewares/Third_Party/FreeRTOS/Source/event_groups.c ****     EventBits_t xEventGroupSetBits( EventGroupHandle_t xEventGroup,
 548:../../Middlewares/Third_Party/FreeRTOS/Source/event_groups.c ****                                     const EventBits_t uxBitsToSet )
 549:../../Middlewares/Third_Party/FreeRTOS/Source/event_groups.c ****     {
 550:../../Middlewares/Third_Party/FreeRTOS/Source/event_groups.c ****         ListItem_t * pxListItem;
 551:../../Middlewares/Third_Party/FreeRTOS/Source/event_groups.c ****         ListItem_t * pxNext;
 552:../../Middlewares/Third_Party/FreeRTOS/Source/event_groups.c ****         ListItem_t const * pxListEnd;
 553:../../Middlewares/Third_Party/FreeRTOS/Source/event_groups.c ****         List_t const * pxList;
 554:../../Middlewares/Third_Party/FreeRTOS/Source/event_groups.c ****         EventBits_t uxBitsToClear = 0, uxBitsWaitedFor, uxControlBits, uxReturnBits;
 555:../../Middlewares/Third_Party/FreeRTOS/Source/event_groups.c ****         EventGroup_t * pxEventBits = xEventGroup;
 556:../../Middlewares/Third_Party/FreeRTOS/Source/event_groups.c ****         BaseType_t xMatchFound = pdFALSE;
 557:../../Middlewares/Third_Party/FreeRTOS/Source/event_groups.c **** 
 558:../../Middlewares/Third_Party/FreeRTOS/Source/event_groups.c ****         traceENTER_xEventGroupSetBits( xEventGroup, uxBitsToSet );
 559:../../Middlewares/Third_Party/FreeRTOS/Source/event_groups.c **** 
 560:../../Middlewares/Third_Party/FreeRTOS/Source/event_groups.c ****         /* Check the user is not attempting to set the bits used by the kernel
 561:../../Middlewares/Third_Party/FreeRTOS/Source/event_groups.c ****          * itself. */
 562:../../Middlewares/Third_Party/FreeRTOS/Source/event_groups.c ****         configASSERT( xEventGroup );
 563:../../Middlewares/Third_Party/FreeRTOS/Source/event_groups.c ****         configASSERT( ( uxBitsToSet & eventEVENT_BITS_CONTROL_BYTES ) == 0 );
 564:../../Middlewares/Third_Party/FreeRTOS/Source/event_groups.c **** 
 565:../../Middlewares/Third_Party/FreeRTOS/Source/event_groups.c ****         pxList = &( pxEventBits->xTasksWaitingForBits );
 566:../../Middlewares/Third_Party/FreeRTOS/Source/event_groups.c ****         pxListEnd = listGET_END_MARKER( pxList );
 567:../../Middlewares/Third_Party/FreeRTOS/Source/event_groups.c ****         vTaskSuspendAll();
 568:../../Middlewares/Third_Party/FreeRTOS/Source/event_groups.c ****         {
 569:../../Middlewares/Third_Party/FreeRTOS/Source/event_groups.c ****             traceEVENT_GROUP_SET_BITS( xEventGroup, uxBitsToSet );
 570:../../Middlewares/Third_Party/FreeRTOS/Source/event_groups.c **** 
 571:../../Middlewares/Third_Party/FreeRTOS/Source/event_groups.c ****             pxListItem = listGET_HEAD_ENTRY( pxList );
 572:../../Middlewares/Third_Party/FreeRTOS/Source/event_groups.c **** 
 573:../../Middlewares/Third_Party/FreeRTOS/Source/event_groups.c ****             /* Set the bits. */
 574:../../Middlewares/Third_Party/FreeRTOS/Source/event_groups.c ****             pxEventBits->uxEventBits |= uxBitsToSet;
 575:../../Middlewares/Third_Party/FreeRTOS/Source/event_groups.c **** 
 576:../../Middlewares/Third_Party/FreeRTOS/Source/event_groups.c ****             /* See if the new bit value should unblock any tasks. */
 577:../../Middlewares/Third_Party/FreeRTOS/Source/event_groups.c ****             while( pxListItem != pxListEnd )
 578:../../Middlewares/Third_Party/FreeRTOS/Source/event_groups.c ****             {
 579:../../Middlewares/Third_Party/FreeRTOS/Source/event_groups.c ****                 pxNext = listGET_NEXT( pxListItem );
 580:../../Middlewares/Third_Party/FreeRTOS/Source/event_groups.c ****                 uxBitsWaitedFor = listGET_LIST_ITEM_VALUE( pxListItem );
 581:../../Middlewares/Third_Party/FreeRTOS/Source/event_groups.c ****                 xMatchFound = pdFALSE;
 582:../../Middlewares/Third_Party/FreeRTOS/Source/event_groups.c **** 
 583:../../Middlewares/Third_Party/FreeRTOS/Source/event_groups.c ****                 /* Split the bits waited for from the control bits. */
 584:../../Middlewares/Third_Party/FreeRTOS/Source/event_groups.c ****                 uxControlBits = uxBitsWaitedFor & eventEVENT_BITS_CONTROL_BYTES;
 585:../../Middlewares/Third_Party/FreeRTOS/Source/event_groups.c ****                 uxBitsWaitedFor &= ~eventEVENT_BITS_CONTROL_BYTES;
 586:../../Middlewares/Third_Party/FreeRTOS/Source/event_groups.c **** 
 587:../../Middlewares/Third_Party/FreeRTOS/Source/event_groups.c ****                 if( ( uxControlBits & eventWAIT_FOR_ALL_BITS ) == ( EventBits_t ) 0 )
 588:../../Middlewares/Third_Party/FreeRTOS/Source/event_groups.c ****                 {
 589:../../Middlewares/Third_Party/FreeRTOS/Source/event_groups.c ****                     /* Just looking for single bit being set. */
 590:../../Middlewares/Third_Party/FreeRTOS/Source/event_groups.c ****                     if( ( uxBitsWaitedFor & pxEventBits->uxEventBits ) != ( EventBits_t ) 0 )
 591:../../Middlewares/Third_Party/FreeRTOS/Source/event_groups.c ****                     {
 592:../../Middlewares/Third_Party/FreeRTOS/Source/event_groups.c ****                         xMatchFound = pdTRUE;
 593:../../Middlewares/Third_Party/FreeRTOS/Source/event_groups.c ****                     }
 594:../../Middlewares/Third_Party/FreeRTOS/Source/event_groups.c ****                     else
 595:../../Middlewares/Third_Party/FreeRTOS/Source/event_groups.c ****                     {
ARM GAS  C:\Users\SMART\AppData\Local\Temp\ccUCLR5k.s 			page 12


 596:../../Middlewares/Third_Party/FreeRTOS/Source/event_groups.c ****                         mtCOVERAGE_TEST_MARKER();
 597:../../Middlewares/Third_Party/FreeRTOS/Source/event_groups.c ****                     }
 598:../../Middlewares/Third_Party/FreeRTOS/Source/event_groups.c ****                 }
 599:../../Middlewares/Third_Party/FreeRTOS/Source/event_groups.c ****                 else if( ( uxBitsWaitedFor & pxEventBits->uxEventBits ) == uxBitsWaitedFor )
 600:../../Middlewares/Third_Party/FreeRTOS/Source/event_groups.c ****                 {
 601:../../Middlewares/Third_Party/FreeRTOS/Source/event_groups.c ****                     /* All bits are set. */
 602:../../Middlewares/Third_Party/FreeRTOS/Source/event_groups.c ****                     xMatchFound = pdTRUE;
 603:../../Middlewares/Third_Party/FreeRTOS/Source/event_groups.c ****                 }
 604:../../Middlewares/Third_Party/FreeRTOS/Source/event_groups.c ****                 else
 605:../../Middlewares/Third_Party/FreeRTOS/Source/event_groups.c ****                 {
 606:../../Middlewares/Third_Party/FreeRTOS/Source/event_groups.c ****                     /* Need all bits to be set, but not all the bits were set. */
 607:../../Middlewares/Third_Party/FreeRTOS/Source/event_groups.c ****                 }
 608:../../Middlewares/Third_Party/FreeRTOS/Source/event_groups.c **** 
 609:../../Middlewares/Third_Party/FreeRTOS/Source/event_groups.c ****                 if( xMatchFound != pdFALSE )
 610:../../Middlewares/Third_Party/FreeRTOS/Source/event_groups.c ****                 {
 611:../../Middlewares/Third_Party/FreeRTOS/Source/event_groups.c ****                     /* The bits match.  Should the bits be cleared on exit? */
 612:../../Middlewares/Third_Party/FreeRTOS/Source/event_groups.c ****                     if( ( uxControlBits & eventCLEAR_EVENTS_ON_EXIT_BIT ) != ( EventBits_t ) 0 )
 613:../../Middlewares/Third_Party/FreeRTOS/Source/event_groups.c ****                     {
 614:../../Middlewares/Third_Party/FreeRTOS/Source/event_groups.c ****                         uxBitsToClear |= uxBitsWaitedFor;
 615:../../Middlewares/Third_Party/FreeRTOS/Source/event_groups.c ****                     }
 616:../../Middlewares/Third_Party/FreeRTOS/Source/event_groups.c ****                     else
 617:../../Middlewares/Third_Party/FreeRTOS/Source/event_groups.c ****                     {
 618:../../Middlewares/Third_Party/FreeRTOS/Source/event_groups.c ****                         mtCOVERAGE_TEST_MARKER();
 619:../../Middlewares/Third_Party/FreeRTOS/Source/event_groups.c ****                     }
 620:../../Middlewares/Third_Party/FreeRTOS/Source/event_groups.c **** 
 621:../../Middlewares/Third_Party/FreeRTOS/Source/event_groups.c ****                     /* Store the actual event flag value in the task's event list
 622:../../Middlewares/Third_Party/FreeRTOS/Source/event_groups.c ****                      * item before removing the task from the event list.  The
 623:../../Middlewares/Third_Party/FreeRTOS/Source/event_groups.c ****                      * eventUNBLOCKED_DUE_TO_BIT_SET bit is set so the task knows
 624:../../Middlewares/Third_Party/FreeRTOS/Source/event_groups.c ****                      * that is was unblocked due to its required bits matching, rather
 625:../../Middlewares/Third_Party/FreeRTOS/Source/event_groups.c ****                      * than because it timed out. */
 626:../../Middlewares/Third_Party/FreeRTOS/Source/event_groups.c ****                     vTaskRemoveFromUnorderedEventList( pxListItem, pxEventBits->uxEventBits | event
 627:../../Middlewares/Third_Party/FreeRTOS/Source/event_groups.c ****                 }
 628:../../Middlewares/Third_Party/FreeRTOS/Source/event_groups.c **** 
 629:../../Middlewares/Third_Party/FreeRTOS/Source/event_groups.c ****                 /* Move onto the next list item.  Note pxListItem->pxNext is not
 630:../../Middlewares/Third_Party/FreeRTOS/Source/event_groups.c ****                  * used here as the list item may have been removed from the event list
 631:../../Middlewares/Third_Party/FreeRTOS/Source/event_groups.c ****                  * and inserted into the ready/pending reading list. */
 632:../../Middlewares/Third_Party/FreeRTOS/Source/event_groups.c ****                 pxListItem = pxNext;
 633:../../Middlewares/Third_Party/FreeRTOS/Source/event_groups.c ****             }
 634:../../Middlewares/Third_Party/FreeRTOS/Source/event_groups.c **** 
 635:../../Middlewares/Third_Party/FreeRTOS/Source/event_groups.c ****             /* Clear any bits that matched when the eventCLEAR_EVENTS_ON_EXIT_BIT
 636:../../Middlewares/Third_Party/FreeRTOS/Source/event_groups.c ****              * bit was set in the control word. */
 637:../../Middlewares/Third_Party/FreeRTOS/Source/event_groups.c ****             pxEventBits->uxEventBits &= ~uxBitsToClear;
 638:../../Middlewares/Third_Party/FreeRTOS/Source/event_groups.c **** 
 639:../../Middlewares/Third_Party/FreeRTOS/Source/event_groups.c ****             /* Snapshot resulting bits. */
 640:../../Middlewares/Third_Party/FreeRTOS/Source/event_groups.c ****             uxReturnBits = pxEventBits->uxEventBits;
 641:../../Middlewares/Third_Party/FreeRTOS/Source/event_groups.c ****         }
 642:../../Middlewares/Third_Party/FreeRTOS/Source/event_groups.c ****         ( void ) xTaskResumeAll();
 643:../../Middlewares/Third_Party/FreeRTOS/Source/event_groups.c **** 
 644:../../Middlewares/Third_Party/FreeRTOS/Source/event_groups.c ****         traceRETURN_xEventGroupSetBits( uxReturnBits );
 645:../../Middlewares/Third_Party/FreeRTOS/Source/event_groups.c **** 
 646:../../Middlewares/Third_Party/FreeRTOS/Source/event_groups.c ****         return uxReturnBits;
 647:../../Middlewares/Third_Party/FreeRTOS/Source/event_groups.c ****     }
 648:../../Middlewares/Third_Party/FreeRTOS/Source/event_groups.c **** /*-----------------------------------------------------------*/
 649:../../Middlewares/Third_Party/FreeRTOS/Source/event_groups.c **** 
 650:../../Middlewares/Third_Party/FreeRTOS/Source/event_groups.c ****     void vEventGroupDelete( EventGroupHandle_t xEventGroup )
 651:../../Middlewares/Third_Party/FreeRTOS/Source/event_groups.c ****     {
 652:../../Middlewares/Third_Party/FreeRTOS/Source/event_groups.c ****         EventGroup_t * pxEventBits = xEventGroup;
ARM GAS  C:\Users\SMART\AppData\Local\Temp\ccUCLR5k.s 			page 13


 653:../../Middlewares/Third_Party/FreeRTOS/Source/event_groups.c ****         const List_t * pxTasksWaitingForBits;
 654:../../Middlewares/Third_Party/FreeRTOS/Source/event_groups.c **** 
 655:../../Middlewares/Third_Party/FreeRTOS/Source/event_groups.c ****         traceENTER_vEventGroupDelete( xEventGroup );
 656:../../Middlewares/Third_Party/FreeRTOS/Source/event_groups.c **** 
 657:../../Middlewares/Third_Party/FreeRTOS/Source/event_groups.c ****         configASSERT( pxEventBits );
 658:../../Middlewares/Third_Party/FreeRTOS/Source/event_groups.c **** 
 659:../../Middlewares/Third_Party/FreeRTOS/Source/event_groups.c ****         pxTasksWaitingForBits = &( pxEventBits->xTasksWaitingForBits );
 660:../../Middlewares/Third_Party/FreeRTOS/Source/event_groups.c **** 
 661:../../Middlewares/Third_Party/FreeRTOS/Source/event_groups.c ****         vTaskSuspendAll();
 662:../../Middlewares/Third_Party/FreeRTOS/Source/event_groups.c ****         {
 663:../../Middlewares/Third_Party/FreeRTOS/Source/event_groups.c ****             traceEVENT_GROUP_DELETE( xEventGroup );
 664:../../Middlewares/Third_Party/FreeRTOS/Source/event_groups.c **** 
 665:../../Middlewares/Third_Party/FreeRTOS/Source/event_groups.c ****             while( listCURRENT_LIST_LENGTH( pxTasksWaitingForBits ) > ( UBaseType_t ) 0 )
 666:../../Middlewares/Third_Party/FreeRTOS/Source/event_groups.c ****             {
 667:../../Middlewares/Third_Party/FreeRTOS/Source/event_groups.c ****                 /* Unblock the task, returning 0 as the event list is being deleted
 668:../../Middlewares/Third_Party/FreeRTOS/Source/event_groups.c ****                  * and cannot therefore have any bits set. */
 669:../../Middlewares/Third_Party/FreeRTOS/Source/event_groups.c ****                 configASSERT( pxTasksWaitingForBits->xListEnd.pxNext != ( const ListItem_t * ) &( p
 670:../../Middlewares/Third_Party/FreeRTOS/Source/event_groups.c ****                 vTaskRemoveFromUnorderedEventList( pxTasksWaitingForBits->xListEnd.pxNext, eventUNB
 671:../../Middlewares/Third_Party/FreeRTOS/Source/event_groups.c ****             }
 672:../../Middlewares/Third_Party/FreeRTOS/Source/event_groups.c ****         }
 673:../../Middlewares/Third_Party/FreeRTOS/Source/event_groups.c ****         ( void ) xTaskResumeAll();
 674:../../Middlewares/Third_Party/FreeRTOS/Source/event_groups.c **** 
 675:../../Middlewares/Third_Party/FreeRTOS/Source/event_groups.c ****         #if ( ( configSUPPORT_DYNAMIC_ALLOCATION == 1 ) && ( configSUPPORT_STATIC_ALLOCATION == 0 )
 676:../../Middlewares/Third_Party/FreeRTOS/Source/event_groups.c ****         {
 677:../../Middlewares/Third_Party/FreeRTOS/Source/event_groups.c ****             /* The event group can only have been allocated dynamically - free
 678:../../Middlewares/Third_Party/FreeRTOS/Source/event_groups.c ****              * it again. */
 679:../../Middlewares/Third_Party/FreeRTOS/Source/event_groups.c ****             vPortFree( pxEventBits );
 680:../../Middlewares/Third_Party/FreeRTOS/Source/event_groups.c ****         }
 681:../../Middlewares/Third_Party/FreeRTOS/Source/event_groups.c ****         #elif ( ( configSUPPORT_DYNAMIC_ALLOCATION == 1 ) && ( configSUPPORT_STATIC_ALLOCATION == 1
 682:../../Middlewares/Third_Party/FreeRTOS/Source/event_groups.c ****         {
 683:../../Middlewares/Third_Party/FreeRTOS/Source/event_groups.c ****             /* The event group could have been allocated statically or
 684:../../Middlewares/Third_Party/FreeRTOS/Source/event_groups.c ****              * dynamically, so check before attempting to free the memory. */
 685:../../Middlewares/Third_Party/FreeRTOS/Source/event_groups.c ****             if( pxEventBits->ucStaticallyAllocated == ( uint8_t ) pdFALSE )
 686:../../Middlewares/Third_Party/FreeRTOS/Source/event_groups.c ****             {
 687:../../Middlewares/Third_Party/FreeRTOS/Source/event_groups.c ****                 vPortFree( pxEventBits );
 688:../../Middlewares/Third_Party/FreeRTOS/Source/event_groups.c ****             }
 689:../../Middlewares/Third_Party/FreeRTOS/Source/event_groups.c ****             else
 690:../../Middlewares/Third_Party/FreeRTOS/Source/event_groups.c ****             {
 691:../../Middlewares/Third_Party/FreeRTOS/Source/event_groups.c ****                 mtCOVERAGE_TEST_MARKER();
 692:../../Middlewares/Third_Party/FreeRTOS/Source/event_groups.c ****             }
 693:../../Middlewares/Third_Party/FreeRTOS/Source/event_groups.c ****         }
 694:../../Middlewares/Third_Party/FreeRTOS/Source/event_groups.c ****         #endif /* configSUPPORT_DYNAMIC_ALLOCATION */
 695:../../Middlewares/Third_Party/FreeRTOS/Source/event_groups.c **** 
 696:../../Middlewares/Third_Party/FreeRTOS/Source/event_groups.c ****         traceRETURN_vEventGroupDelete();
 697:../../Middlewares/Third_Party/FreeRTOS/Source/event_groups.c ****     }
 698:../../Middlewares/Third_Party/FreeRTOS/Source/event_groups.c **** /*-----------------------------------------------------------*/
 699:../../Middlewares/Third_Party/FreeRTOS/Source/event_groups.c **** 
 700:../../Middlewares/Third_Party/FreeRTOS/Source/event_groups.c ****     #if ( configSUPPORT_STATIC_ALLOCATION == 1 )
 701:../../Middlewares/Third_Party/FreeRTOS/Source/event_groups.c ****         BaseType_t xEventGroupGetStaticBuffer( EventGroupHandle_t xEventGroup,
 702:../../Middlewares/Third_Party/FreeRTOS/Source/event_groups.c ****                                                StaticEventGroup_t ** ppxEventGroupBuffer )
 703:../../Middlewares/Third_Party/FreeRTOS/Source/event_groups.c ****         {
 704:../../Middlewares/Third_Party/FreeRTOS/Source/event_groups.c ****             BaseType_t xReturn;
 705:../../Middlewares/Third_Party/FreeRTOS/Source/event_groups.c ****             EventGroup_t * pxEventBits = xEventGroup;
 706:../../Middlewares/Third_Party/FreeRTOS/Source/event_groups.c **** 
 707:../../Middlewares/Third_Party/FreeRTOS/Source/event_groups.c ****             traceENTER_xEventGroupGetStaticBuffer( xEventGroup, ppxEventGroupBuffer );
 708:../../Middlewares/Third_Party/FreeRTOS/Source/event_groups.c **** 
 709:../../Middlewares/Third_Party/FreeRTOS/Source/event_groups.c ****             configASSERT( pxEventBits );
ARM GAS  C:\Users\SMART\AppData\Local\Temp\ccUCLR5k.s 			page 14


 710:../../Middlewares/Third_Party/FreeRTOS/Source/event_groups.c ****             configASSERT( ppxEventGroupBuffer );
 711:../../Middlewares/Third_Party/FreeRTOS/Source/event_groups.c **** 
 712:../../Middlewares/Third_Party/FreeRTOS/Source/event_groups.c ****             #if ( configSUPPORT_DYNAMIC_ALLOCATION == 1 )
 713:../../Middlewares/Third_Party/FreeRTOS/Source/event_groups.c ****             {
 714:../../Middlewares/Third_Party/FreeRTOS/Source/event_groups.c ****                 /* Check if the event group was statically allocated. */
 715:../../Middlewares/Third_Party/FreeRTOS/Source/event_groups.c ****                 if( pxEventBits->ucStaticallyAllocated == ( uint8_t ) pdTRUE )
 716:../../Middlewares/Third_Party/FreeRTOS/Source/event_groups.c ****                 {
 717:../../Middlewares/Third_Party/FreeRTOS/Source/event_groups.c ****                     /* MISRA Ref 11.3.1 [Misaligned access] */
 718:../../Middlewares/Third_Party/FreeRTOS/Source/event_groups.c ****                     /* More details at: https://github.com/FreeRTOS/FreeRTOS-Kernel/blob/main/MISRA
 719:../../Middlewares/Third_Party/FreeRTOS/Source/event_groups.c ****                     /* coverity[misra_c_2012_rule_11_3_violation] */
 720:../../Middlewares/Third_Party/FreeRTOS/Source/event_groups.c ****                     *ppxEventGroupBuffer = ( StaticEventGroup_t * ) pxEventBits;
 721:../../Middlewares/Third_Party/FreeRTOS/Source/event_groups.c ****                     xReturn = pdTRUE;
 722:../../Middlewares/Third_Party/FreeRTOS/Source/event_groups.c ****                 }
 723:../../Middlewares/Third_Party/FreeRTOS/Source/event_groups.c ****                 else
 724:../../Middlewares/Third_Party/FreeRTOS/Source/event_groups.c ****                 {
 725:../../Middlewares/Third_Party/FreeRTOS/Source/event_groups.c ****                     xReturn = pdFALSE;
 726:../../Middlewares/Third_Party/FreeRTOS/Source/event_groups.c ****                 }
 727:../../Middlewares/Third_Party/FreeRTOS/Source/event_groups.c ****             }
 728:../../Middlewares/Third_Party/FreeRTOS/Source/event_groups.c ****             #else /* configSUPPORT_DYNAMIC_ALLOCATION */
 729:../../Middlewares/Third_Party/FreeRTOS/Source/event_groups.c ****             {
 730:../../Middlewares/Third_Party/FreeRTOS/Source/event_groups.c ****                 /* Event group must have been statically allocated. */
 731:../../Middlewares/Third_Party/FreeRTOS/Source/event_groups.c ****                 /* MISRA Ref 11.3.1 [Misaligned access] */
 732:../../Middlewares/Third_Party/FreeRTOS/Source/event_groups.c ****                 /* More details at: https://github.com/FreeRTOS/FreeRTOS-Kernel/blob/main/MISRA.md#
 733:../../Middlewares/Third_Party/FreeRTOS/Source/event_groups.c ****                 /* coverity[misra_c_2012_rule_11_3_violation] */
 734:../../Middlewares/Third_Party/FreeRTOS/Source/event_groups.c ****                 *ppxEventGroupBuffer = ( StaticEventGroup_t * ) pxEventBits;
 735:../../Middlewares/Third_Party/FreeRTOS/Source/event_groups.c ****                 xReturn = pdTRUE;
 736:../../Middlewares/Third_Party/FreeRTOS/Source/event_groups.c ****             }
 737:../../Middlewares/Third_Party/FreeRTOS/Source/event_groups.c ****             #endif /* configSUPPORT_DYNAMIC_ALLOCATION */
 738:../../Middlewares/Third_Party/FreeRTOS/Source/event_groups.c **** 
 739:../../Middlewares/Third_Party/FreeRTOS/Source/event_groups.c ****             traceRETURN_xEventGroupGetStaticBuffer( xReturn );
 740:../../Middlewares/Third_Party/FreeRTOS/Source/event_groups.c **** 
 741:../../Middlewares/Third_Party/FreeRTOS/Source/event_groups.c ****             return xReturn;
 742:../../Middlewares/Third_Party/FreeRTOS/Source/event_groups.c ****         }
 743:../../Middlewares/Third_Party/FreeRTOS/Source/event_groups.c ****     #endif /* configSUPPORT_STATIC_ALLOCATION */
 744:../../Middlewares/Third_Party/FreeRTOS/Source/event_groups.c **** /*-----------------------------------------------------------*/
 745:../../Middlewares/Third_Party/FreeRTOS/Source/event_groups.c **** 
 746:../../Middlewares/Third_Party/FreeRTOS/Source/event_groups.c **** /* For internal use only - execute a 'set bits' command that was pended from
 747:../../Middlewares/Third_Party/FreeRTOS/Source/event_groups.c ****  * an interrupt. */
 748:../../Middlewares/Third_Party/FreeRTOS/Source/event_groups.c ****     void vEventGroupSetBitsCallback( void * pvEventGroup,
 749:../../Middlewares/Third_Party/FreeRTOS/Source/event_groups.c ****                                      uint32_t ulBitsToSet )
 750:../../Middlewares/Third_Party/FreeRTOS/Source/event_groups.c ****     {
 751:../../Middlewares/Third_Party/FreeRTOS/Source/event_groups.c ****         traceENTER_vEventGroupSetBitsCallback( pvEventGroup, ulBitsToSet );
 752:../../Middlewares/Third_Party/FreeRTOS/Source/event_groups.c **** 
 753:../../Middlewares/Third_Party/FreeRTOS/Source/event_groups.c ****         /* MISRA Ref 11.5.4 [Callback function parameter] */
 754:../../Middlewares/Third_Party/FreeRTOS/Source/event_groups.c ****         /* More details at: https://github.com/FreeRTOS/FreeRTOS-Kernel/blob/main/MISRA.md#rule-115
 755:../../Middlewares/Third_Party/FreeRTOS/Source/event_groups.c ****         /* coverity[misra_c_2012_rule_11_5_violation] */
 756:../../Middlewares/Third_Party/FreeRTOS/Source/event_groups.c ****         ( void ) xEventGroupSetBits( pvEventGroup, ( EventBits_t ) ulBitsToSet );
 757:../../Middlewares/Third_Party/FreeRTOS/Source/event_groups.c **** 
 758:../../Middlewares/Third_Party/FreeRTOS/Source/event_groups.c ****         traceRETURN_vEventGroupSetBitsCallback();
 759:../../Middlewares/Third_Party/FreeRTOS/Source/event_groups.c ****     }
 760:../../Middlewares/Third_Party/FreeRTOS/Source/event_groups.c **** /*-----------------------------------------------------------*/
 761:../../Middlewares/Third_Party/FreeRTOS/Source/event_groups.c **** 
 762:../../Middlewares/Third_Party/FreeRTOS/Source/event_groups.c **** /* For internal use only - execute a 'clear bits' command that was pended from
 763:../../Middlewares/Third_Party/FreeRTOS/Source/event_groups.c ****  * an interrupt. */
 764:../../Middlewares/Third_Party/FreeRTOS/Source/event_groups.c ****     void vEventGroupClearBitsCallback( void * pvEventGroup,
 765:../../Middlewares/Third_Party/FreeRTOS/Source/event_groups.c ****                                        uint32_t ulBitsToClear )
 766:../../Middlewares/Third_Party/FreeRTOS/Source/event_groups.c ****     {
ARM GAS  C:\Users\SMART\AppData\Local\Temp\ccUCLR5k.s 			page 15


 767:../../Middlewares/Third_Party/FreeRTOS/Source/event_groups.c ****         traceENTER_vEventGroupClearBitsCallback( pvEventGroup, ulBitsToClear );
 768:../../Middlewares/Third_Party/FreeRTOS/Source/event_groups.c **** 
 769:../../Middlewares/Third_Party/FreeRTOS/Source/event_groups.c ****         /* MISRA Ref 11.5.4 [Callback function parameter] */
 770:../../Middlewares/Third_Party/FreeRTOS/Source/event_groups.c ****         /* More details at: https://github.com/FreeRTOS/FreeRTOS-Kernel/blob/main/MISRA.md#rule-115
 771:../../Middlewares/Third_Party/FreeRTOS/Source/event_groups.c ****         /* coverity[misra_c_2012_rule_11_5_violation] */
 772:../../Middlewares/Third_Party/FreeRTOS/Source/event_groups.c ****         ( void ) xEventGroupClearBits( pvEventGroup, ( EventBits_t ) ulBitsToClear );
 773:../../Middlewares/Third_Party/FreeRTOS/Source/event_groups.c **** 
 774:../../Middlewares/Third_Party/FreeRTOS/Source/event_groups.c ****         traceRETURN_vEventGroupClearBitsCallback();
 775:../../Middlewares/Third_Party/FreeRTOS/Source/event_groups.c ****     }
 776:../../Middlewares/Third_Party/FreeRTOS/Source/event_groups.c **** /*-----------------------------------------------------------*/
 777:../../Middlewares/Third_Party/FreeRTOS/Source/event_groups.c **** 
 778:../../Middlewares/Third_Party/FreeRTOS/Source/event_groups.c ****     static BaseType_t prvTestWaitCondition( const EventBits_t uxCurrentEventBits,
 779:../../Middlewares/Third_Party/FreeRTOS/Source/event_groups.c ****                                             const EventBits_t uxBitsToWaitFor,
 780:../../Middlewares/Third_Party/FreeRTOS/Source/event_groups.c ****                                             const BaseType_t xWaitForAllBits )
 781:../../Middlewares/Third_Party/FreeRTOS/Source/event_groups.c ****     {
  34              		.loc 1 781 5 view -0
  35              		.cfi_startproc
  36              		@ args = 0, pretend = 0, frame = 0
  37              		@ frame_needed = 0, uses_anonymous_args = 0
  38              		@ link register save eliminated.
 782:../../Middlewares/Third_Party/FreeRTOS/Source/event_groups.c ****         BaseType_t xWaitConditionMet = pdFALSE;
  39              		.loc 1 782 9 view .LVU1
 783:../../Middlewares/Third_Party/FreeRTOS/Source/event_groups.c **** 
 784:../../Middlewares/Third_Party/FreeRTOS/Source/event_groups.c ****         if( xWaitForAllBits == pdFALSE )
  40              		.loc 1 784 9 view .LVU2
  41              		.loc 1 784 11 is_stmt 0 view .LVU3
  42 0000 1AB9     		cbnz	r2, .L2
 785:../../Middlewares/Third_Party/FreeRTOS/Source/event_groups.c ****         {
 786:../../Middlewares/Third_Party/FreeRTOS/Source/event_groups.c ****             /* Task only has to wait for one bit within uxBitsToWaitFor to be
 787:../../Middlewares/Third_Party/FreeRTOS/Source/event_groups.c ****              * set.  Is one already set? */
 788:../../Middlewares/Third_Party/FreeRTOS/Source/event_groups.c ****             if( ( uxCurrentEventBits & uxBitsToWaitFor ) != ( EventBits_t ) 0 )
  43              		.loc 1 788 13 is_stmt 1 view .LVU4
  44              		.loc 1 788 15 is_stmt 0 view .LVU5
  45 0002 0842     		tst	r0, r1
  46 0004 05D1     		bne	.L4
 782:../../Middlewares/Third_Party/FreeRTOS/Source/event_groups.c **** 
  47              		.loc 1 782 20 view .LVU6
  48 0006 1046     		mov	r0, r2
  49              	.LVL1:
 782:../../Middlewares/Third_Party/FreeRTOS/Source/event_groups.c **** 
  50              		.loc 1 782 20 view .LVU7
  51 0008 7047     		bx	lr
  52              	.LVL2:
  53              	.L2:
 789:../../Middlewares/Third_Party/FreeRTOS/Source/event_groups.c ****             {
 790:../../Middlewares/Third_Party/FreeRTOS/Source/event_groups.c ****                 xWaitConditionMet = pdTRUE;
 791:../../Middlewares/Third_Party/FreeRTOS/Source/event_groups.c ****             }
 792:../../Middlewares/Third_Party/FreeRTOS/Source/event_groups.c ****             else
 793:../../Middlewares/Third_Party/FreeRTOS/Source/event_groups.c ****             {
 794:../../Middlewares/Third_Party/FreeRTOS/Source/event_groups.c ****                 mtCOVERAGE_TEST_MARKER();
 795:../../Middlewares/Third_Party/FreeRTOS/Source/event_groups.c ****             }
 796:../../Middlewares/Third_Party/FreeRTOS/Source/event_groups.c ****         }
 797:../../Middlewares/Third_Party/FreeRTOS/Source/event_groups.c ****         else
 798:../../Middlewares/Third_Party/FreeRTOS/Source/event_groups.c ****         {
 799:../../Middlewares/Third_Party/FreeRTOS/Source/event_groups.c ****             /* Task has to wait for all the bits in uxBitsToWaitFor to be set.
 800:../../Middlewares/Third_Party/FreeRTOS/Source/event_groups.c ****              * Are they set already? */
 801:../../Middlewares/Third_Party/FreeRTOS/Source/event_groups.c ****             if( ( uxCurrentEventBits & uxBitsToWaitFor ) == uxBitsToWaitFor )
ARM GAS  C:\Users\SMART\AppData\Local\Temp\ccUCLR5k.s 			page 16


  54              		.loc 1 801 13 is_stmt 1 view .LVU8
  55              		.loc 1 801 15 is_stmt 0 view .LVU9
  56 000a 8143     		bics	r1, r1, r0
  57              	.LVL3:
  58              		.loc 1 801 15 view .LVU10
  59 000c 03D0     		beq	.L5
 782:../../Middlewares/Third_Party/FreeRTOS/Source/event_groups.c **** 
  60              		.loc 1 782 20 view .LVU11
  61 000e 0020     		movs	r0, #0
  62              	.LVL4:
 782:../../Middlewares/Third_Party/FreeRTOS/Source/event_groups.c **** 
  63              		.loc 1 782 20 view .LVU12
  64 0010 7047     		bx	lr
  65              	.LVL5:
  66              	.L4:
 790:../../Middlewares/Third_Party/FreeRTOS/Source/event_groups.c ****             }
  67              		.loc 1 790 35 view .LVU13
  68 0012 0120     		movs	r0, #1
  69              	.LVL6:
 790:../../Middlewares/Third_Party/FreeRTOS/Source/event_groups.c ****             }
  70              		.loc 1 790 35 view .LVU14
  71 0014 7047     		bx	lr
  72              	.LVL7:
  73              	.L5:
 802:../../Middlewares/Third_Party/FreeRTOS/Source/event_groups.c ****             {
 803:../../Middlewares/Third_Party/FreeRTOS/Source/event_groups.c ****                 xWaitConditionMet = pdTRUE;
  74              		.loc 1 803 35 view .LVU15
  75 0016 0120     		movs	r0, #1
  76              	.LVL8:
 804:../../Middlewares/Third_Party/FreeRTOS/Source/event_groups.c ****             }
 805:../../Middlewares/Third_Party/FreeRTOS/Source/event_groups.c ****             else
 806:../../Middlewares/Third_Party/FreeRTOS/Source/event_groups.c ****             {
 807:../../Middlewares/Third_Party/FreeRTOS/Source/event_groups.c ****                 mtCOVERAGE_TEST_MARKER();
  77              		.loc 1 807 41 is_stmt 1 view .LVU16
 808:../../Middlewares/Third_Party/FreeRTOS/Source/event_groups.c ****             }
 809:../../Middlewares/Third_Party/FreeRTOS/Source/event_groups.c ****         }
 810:../../Middlewares/Third_Party/FreeRTOS/Source/event_groups.c **** 
 811:../../Middlewares/Third_Party/FreeRTOS/Source/event_groups.c ****         return xWaitConditionMet;
  78              		.loc 1 811 9 view .LVU17
 812:../../Middlewares/Third_Party/FreeRTOS/Source/event_groups.c ****     }
  79              		.loc 1 812 5 is_stmt 0 view .LVU18
  80 0018 7047     		bx	lr
  81              		.cfi_endproc
  82              	.LFE12:
  84              		.section	.text.xEventGroupCreateStatic,"ax",%progbits
  85              		.align	1
  86              		.global	xEventGroupCreateStatic
  87              		.syntax unified
  88              		.thumb
  89              		.thumb_func
  91              	xEventGroupCreateStatic:
  92              	.LVL9:
  93              	.LFB0:
  87:../../Middlewares/Third_Party/FreeRTOS/Source/event_groups.c ****             EventGroup_t * pxEventBits;
  94              		.loc 1 87 9 is_stmt 1 view -0
  95              		.cfi_startproc
  96              		@ args = 0, pretend = 0, frame = 8
ARM GAS  C:\Users\SMART\AppData\Local\Temp\ccUCLR5k.s 			page 17


  97              		@ frame_needed = 0, uses_anonymous_args = 0
  87:../../Middlewares/Third_Party/FreeRTOS/Source/event_groups.c ****             EventGroup_t * pxEventBits;
  98              		.loc 1 87 9 is_stmt 0 view .LVU20
  99 0000 10B5     		push	{r4, lr}
 100              	.LCFI0:
 101              		.cfi_def_cfa_offset 8
 102              		.cfi_offset 4, -8
 103              		.cfi_offset 14, -4
 104 0002 82B0     		sub	sp, sp, #8
 105              	.LCFI1:
 106              		.cfi_def_cfa_offset 16
  88:../../Middlewares/Third_Party/FreeRTOS/Source/event_groups.c **** 
 107              		.loc 1 88 13 is_stmt 1 view .LVU21
  90:../../Middlewares/Third_Party/FreeRTOS/Source/event_groups.c **** 
 108              		.loc 1 90 69 view .LVU22
  93:../../Middlewares/Third_Party/FreeRTOS/Source/event_groups.c **** 
 109              		.loc 1 93 13 view .LVU23
 110 0004 40B1     		cbz	r0, .L12
 111 0006 0446     		mov	r4, r0
  93:../../Middlewares/Third_Party/FreeRTOS/Source/event_groups.c **** 
 112              		.loc 1 93 47 discriminator 2 view .LVU24
 113              	.LBB2:
 100:../../Middlewares/Third_Party/FreeRTOS/Source/event_groups.c ****                 configASSERT( xSize == sizeof( EventGroup_t ) );
 114              		.loc 1 100 17 view .LVU25
 100:../../Middlewares/Third_Party/FreeRTOS/Source/event_groups.c ****                 configASSERT( xSize == sizeof( EventGroup_t ) );
 115              		.loc 1 100 33 is_stmt 0 view .LVU26
 116 0008 2023     		movs	r3, #32
 117 000a 0193     		str	r3, [sp, #4]
 101:../../Middlewares/Third_Party/FreeRTOS/Source/event_groups.c ****             }
 118              		.loc 1 101 17 is_stmt 1 view .LVU27
 119 000c 019B     		ldr	r3, [sp, #4]
 120 000e 202B     		cmp	r3, #32
 121 0010 05D0     		beq	.L9
 101:../../Middlewares/Third_Party/FreeRTOS/Source/event_groups.c ****             }
 122              		.loc 1 101 17 discriminator 1 view .LVU28
 123 0012 FFF7FEFF 		bl	ulSetInterruptMask
 124              	.LVL10:
 125              	.L10:
 101:../../Middlewares/Third_Party/FreeRTOS/Source/event_groups.c ****             }
 126              		.loc 1 101 17 discriminator 3 view .LVU29
 101:../../Middlewares/Third_Party/FreeRTOS/Source/event_groups.c ****             }
 127              		.loc 1 101 17 discriminator 3 view .LVU30
 128 0016 FEE7     		b	.L10
 129              	.LVL11:
 130              	.L12:
 101:../../Middlewares/Third_Party/FreeRTOS/Source/event_groups.c ****             }
 131              		.loc 1 101 17 is_stmt 0 discriminator 3 view .LVU31
 132              	.LBE2:
  93:../../Middlewares/Third_Party/FreeRTOS/Source/event_groups.c **** 
 133              		.loc 1 93 13 is_stmt 1 discriminator 1 view .LVU32
 134 0018 FFF7FEFF 		bl	ulSetInterruptMask
 135              	.LVL12:
 136              	.L8:
  93:../../Middlewares/Third_Party/FreeRTOS/Source/event_groups.c **** 
 137              		.loc 1 93 13 discriminator 3 view .LVU33
  93:../../Middlewares/Third_Party/FreeRTOS/Source/event_groups.c **** 
 138              		.loc 1 93 13 discriminator 3 view .LVU34
ARM GAS  C:\Users\SMART\AppData\Local\Temp\ccUCLR5k.s 			page 18


 139 001c FEE7     		b	.L8
 140              	.LVL13:
 141              	.L9:
 142              	.LBB3:
 101:../../Middlewares/Third_Party/FreeRTOS/Source/event_groups.c ****             }
 143              		.loc 1 101 64 discriminator 2 view .LVU35
 144              	.LBE3:
 109:../../Middlewares/Third_Party/FreeRTOS/Source/event_groups.c **** 
 145              		.loc 1 109 13 view .LVU36
 111:../../Middlewares/Third_Party/FreeRTOS/Source/event_groups.c ****             {
 146              		.loc 1 111 13 view .LVU37
 113:../../Middlewares/Third_Party/FreeRTOS/Source/event_groups.c ****                 vListInitialise( &( pxEventBits->xTasksWaitingForBits ) );
 147              		.loc 1 113 17 view .LVU38
 113:../../Middlewares/Third_Party/FreeRTOS/Source/event_groups.c ****                 vListInitialise( &( pxEventBits->xTasksWaitingForBits ) );
 148              		.loc 1 113 42 is_stmt 0 view .LVU39
 149 001e 0023     		movs	r3, #0
 150 0020 40F8043B 		str	r3, [r0], #4
 151              	.LVL14:
 114:../../Middlewares/Third_Party/FreeRTOS/Source/event_groups.c **** 
 152              		.loc 1 114 17 is_stmt 1 view .LVU40
 153 0024 FFF7FEFF 		bl	vListInitialise
 154              	.LVL15:
 121:../../Middlewares/Third_Party/FreeRTOS/Source/event_groups.c ****                 }
 155              		.loc 1 121 21 view .LVU41
 121:../../Middlewares/Third_Party/FreeRTOS/Source/event_groups.c ****                 }
 156              		.loc 1 121 56 is_stmt 0 view .LVU42
 157 0028 0123     		movs	r3, #1
 158 002a 2377     		strb	r3, [r4, #28]
 125:../../Middlewares/Third_Party/FreeRTOS/Source/event_groups.c ****             }
 159              		.loc 1 125 55 is_stmt 1 view .LVU43
 132:../../Middlewares/Third_Party/FreeRTOS/Source/event_groups.c ****             }
 160              		.loc 1 132 49 view .LVU44
 135:../../Middlewares/Third_Party/FreeRTOS/Source/event_groups.c **** 
 161              		.loc 1 135 63 view .LVU45
 137:../../Middlewares/Third_Party/FreeRTOS/Source/event_groups.c ****         }
 162              		.loc 1 137 13 view .LVU46
 138:../../Middlewares/Third_Party/FreeRTOS/Source/event_groups.c **** 
 163              		.loc 1 138 9 is_stmt 0 view .LVU47
 164 002c 2046     		mov	r0, r4
 165 002e 02B0     		add	sp, sp, #8
 166              	.LCFI2:
 167              		.cfi_def_cfa_offset 8
 168              		@ sp needed
 169 0030 10BD     		pop	{r4, pc}
 138:../../Middlewares/Third_Party/FreeRTOS/Source/event_groups.c **** 
 170              		.loc 1 138 9 view .LVU48
 171              		.cfi_endproc
 172              	.LFE0:
 174              		.section	.text.xEventGroupCreate,"ax",%progbits
 175              		.align	1
 176              		.global	xEventGroupCreate
 177              		.syntax unified
 178              		.thumb
 179              		.thumb_func
 181              	xEventGroupCreate:
 182              	.LFB1:
 146:../../Middlewares/Third_Party/FreeRTOS/Source/event_groups.c ****             EventGroup_t * pxEventBits;
ARM GAS  C:\Users\SMART\AppData\Local\Temp\ccUCLR5k.s 			page 19


 183              		.loc 1 146 9 is_stmt 1 view -0
 184              		.cfi_startproc
 185              		@ args = 0, pretend = 0, frame = 0
 186              		@ frame_needed = 0, uses_anonymous_args = 0
 187 0000 38B5     		push	{r3, r4, r5, lr}
 188              	.LCFI3:
 189              		.cfi_def_cfa_offset 16
 190              		.cfi_offset 3, -16
 191              		.cfi_offset 4, -12
 192              		.cfi_offset 5, -8
 193              		.cfi_offset 14, -4
 147:../../Middlewares/Third_Party/FreeRTOS/Source/event_groups.c **** 
 194              		.loc 1 147 13 view .LVU50
 149:../../Middlewares/Third_Party/FreeRTOS/Source/event_groups.c **** 
 195              		.loc 1 149 43 view .LVU51
 154:../../Middlewares/Third_Party/FreeRTOS/Source/event_groups.c **** 
 196              		.loc 1 154 13 view .LVU52
 154:../../Middlewares/Third_Party/FreeRTOS/Source/event_groups.c **** 
 197              		.loc 1 154 46 is_stmt 0 view .LVU53
 198 0002 2020     		movs	r0, #32
 199 0004 FFF7FEFF 		bl	pvPortMalloc
 200              	.LVL16:
 156:../../Middlewares/Third_Party/FreeRTOS/Source/event_groups.c ****             {
 201              		.loc 1 156 13 is_stmt 1 view .LVU54
 156:../../Middlewares/Third_Party/FreeRTOS/Source/event_groups.c ****             {
 202              		.loc 1 156 15 is_stmt 0 view .LVU55
 203 0008 0446     		mov	r4, r0
 204 000a 28B1     		cbz	r0, .L13
 158:../../Middlewares/Third_Party/FreeRTOS/Source/event_groups.c ****                 vListInitialise( &( pxEventBits->xTasksWaitingForBits ) );
 205              		.loc 1 158 17 is_stmt 1 view .LVU56
 158:../../Middlewares/Third_Party/FreeRTOS/Source/event_groups.c ****                 vListInitialise( &( pxEventBits->xTasksWaitingForBits ) );
 206              		.loc 1 158 42 is_stmt 0 view .LVU57
 207 000c 0025     		movs	r5, #0
 208 000e 40F8045B 		str	r5, [r0], #4
 209              	.LVL17:
 159:../../Middlewares/Third_Party/FreeRTOS/Source/event_groups.c **** 
 210              		.loc 1 159 17 is_stmt 1 view .LVU58
 211 0012 FFF7FEFF 		bl	vListInitialise
 212              	.LVL18:
 166:../../Middlewares/Third_Party/FreeRTOS/Source/event_groups.c ****                 }
 213              		.loc 1 166 21 view .LVU59
 166:../../Middlewares/Third_Party/FreeRTOS/Source/event_groups.c ****                 }
 214              		.loc 1 166 56 is_stmt 0 view .LVU60
 215 0016 2577     		strb	r5, [r4, #28]
 170:../../Middlewares/Third_Party/FreeRTOS/Source/event_groups.c ****             }
 216              		.loc 1 170 55 is_stmt 1 view .LVU61
 174:../../Middlewares/Third_Party/FreeRTOS/Source/event_groups.c ****             }
 217              		.loc 1 174 49 view .LVU62
 177:../../Middlewares/Third_Party/FreeRTOS/Source/event_groups.c **** 
 218              		.loc 1 177 57 view .LVU63
 179:../../Middlewares/Third_Party/FreeRTOS/Source/event_groups.c ****         }
 219              		.loc 1 179 13 view .LVU64
 220              	.L13:
 180:../../Middlewares/Third_Party/FreeRTOS/Source/event_groups.c **** 
 221              		.loc 1 180 9 is_stmt 0 view .LVU65
 222 0018 2046     		mov	r0, r4
 223 001a 38BD     		pop	{r3, r4, r5, pc}
ARM GAS  C:\Users\SMART\AppData\Local\Temp\ccUCLR5k.s 			page 20


 180:../../Middlewares/Third_Party/FreeRTOS/Source/event_groups.c **** 
 224              		.loc 1 180 9 view .LVU66
 225              		.cfi_endproc
 226              	.LFE1:
 228              		.section	.text.xEventGroupWaitBits,"ax",%progbits
 229              		.align	1
 230              		.global	xEventGroupWaitBits
 231              		.syntax unified
 232              		.thumb
 233              		.thumb_func
 235              	xEventGroupWaitBits:
 236              	.LVL19:
 237              	.LFB3:
 317:../../Middlewares/Third_Party/FreeRTOS/Source/event_groups.c ****         EventGroup_t * pxEventBits = xEventGroup;
 238              		.loc 1 317 5 is_stmt 1 view -0
 239              		.cfi_startproc
 240              		@ args = 4, pretend = 0, frame = 0
 241              		@ frame_needed = 0, uses_anonymous_args = 0
 317:../../Middlewares/Third_Party/FreeRTOS/Source/event_groups.c ****         EventGroup_t * pxEventBits = xEventGroup;
 242              		.loc 1 317 5 is_stmt 0 view .LVU68
 243 0000 2DE9F041 		push	{r4, r5, r6, r7, r8, lr}
 244              	.LCFI4:
 245              		.cfi_def_cfa_offset 24
 246              		.cfi_offset 4, -24
 247              		.cfi_offset 5, -20
 248              		.cfi_offset 6, -16
 249              		.cfi_offset 7, -12
 250              		.cfi_offset 8, -8
 251              		.cfi_offset 14, -4
 318:../../Middlewares/Third_Party/FreeRTOS/Source/event_groups.c ****         EventBits_t uxReturn, uxControlBits = 0;
 252              		.loc 1 318 9 is_stmt 1 view .LVU69
 253              	.LVL20:
 319:../../Middlewares/Third_Party/FreeRTOS/Source/event_groups.c ****         BaseType_t xWaitConditionMet, xAlreadyYielded;
 254              		.loc 1 319 9 view .LVU70
 320:../../Middlewares/Third_Party/FreeRTOS/Source/event_groups.c ****         BaseType_t xTimeoutOccurred = pdFALSE;
 255              		.loc 1 320 9 view .LVU71
 321:../../Middlewares/Third_Party/FreeRTOS/Source/event_groups.c **** 
 256              		.loc 1 321 9 view .LVU72
 323:../../Middlewares/Third_Party/FreeRTOS/Source/event_groups.c **** 
 257              		.loc 1 323 116 view .LVU73
 327:../../Middlewares/Third_Party/FreeRTOS/Source/event_groups.c ****         configASSERT( ( uxBitsToWaitFor & eventEVENT_BITS_CONTROL_BYTES ) == 0 );
 258              		.loc 1 327 9 view .LVU74
 259 0004 50B1     		cbz	r0, .L36
 260 0006 0C46     		mov	r4, r1
 261 0008 1646     		mov	r6, r2
 262 000a 1D46     		mov	r5, r3
 263 000c 0746     		mov	r7, r0
 327:../../Middlewares/Third_Party/FreeRTOS/Source/event_groups.c ****         configASSERT( ( uxBitsToWaitFor & eventEVENT_BITS_CONTROL_BYTES ) == 0 );
 264              		.loc 1 327 36 discriminator 2 view .LVU75
 328:../../Middlewares/Third_Party/FreeRTOS/Source/event_groups.c ****         configASSERT( uxBitsToWaitFor != 0 );
 265              		.loc 1 328 9 view .LVU76
 266 000e B1F1807F 		cmp	r1, #16777216
 267 0012 06D2     		bcs	.L37
 328:../../Middlewares/Third_Party/FreeRTOS/Source/event_groups.c ****         configASSERT( uxBitsToWaitFor != 0 );
 268              		.loc 1 328 81 discriminator 2 view .LVU77
 329:../../Middlewares/Third_Party/FreeRTOS/Source/event_groups.c ****         #if ( ( INCLUDE_xTaskGetSchedulerState == 1 ) || ( configUSE_TIMERS == 1 ) )
 269              		.loc 1 329 9 view .LVU78
ARM GAS  C:\Users\SMART\AppData\Local\Temp\ccUCLR5k.s 			page 21


 270 0014 41B9     		cbnz	r1, .L21
 329:../../Middlewares/Third_Party/FreeRTOS/Source/event_groups.c ****         #if ( ( INCLUDE_xTaskGetSchedulerState == 1 ) || ( configUSE_TIMERS == 1 ) )
 271              		.loc 1 329 9 discriminator 1 view .LVU79
 272 0016 FFF7FEFF 		bl	ulSetInterruptMask
 273              	.LVL21:
 274              	.L22:
 329:../../Middlewares/Third_Party/FreeRTOS/Source/event_groups.c ****         #if ( ( INCLUDE_xTaskGetSchedulerState == 1 ) || ( configUSE_TIMERS == 1 ) )
 275              		.loc 1 329 9 discriminator 3 view .LVU80
 329:../../Middlewares/Third_Party/FreeRTOS/Source/event_groups.c ****         #if ( ( INCLUDE_xTaskGetSchedulerState == 1 ) || ( configUSE_TIMERS == 1 ) )
 276              		.loc 1 329 9 discriminator 3 view .LVU81
 277 001a FEE7     		b	.L22
 278              	.LVL22:
 279              	.L36:
 327:../../Middlewares/Third_Party/FreeRTOS/Source/event_groups.c ****         configASSERT( ( uxBitsToWaitFor & eventEVENT_BITS_CONTROL_BYTES ) == 0 );
 280              		.loc 1 327 9 discriminator 1 view .LVU82
 281 001c FFF7FEFF 		bl	ulSetInterruptMask
 282              	.LVL23:
 283              	.L18:
 327:../../Middlewares/Third_Party/FreeRTOS/Source/event_groups.c ****         configASSERT( ( uxBitsToWaitFor & eventEVENT_BITS_CONTROL_BYTES ) == 0 );
 284              		.loc 1 327 9 discriminator 3 view .LVU83
 327:../../Middlewares/Third_Party/FreeRTOS/Source/event_groups.c ****         configASSERT( ( uxBitsToWaitFor & eventEVENT_BITS_CONTROL_BYTES ) == 0 );
 285              		.loc 1 327 9 discriminator 3 view .LVU84
 286 0020 FEE7     		b	.L18
 287              	.LVL24:
 288              	.L37:
 328:../../Middlewares/Third_Party/FreeRTOS/Source/event_groups.c ****         configASSERT( uxBitsToWaitFor != 0 );
 289              		.loc 1 328 9 discriminator 1 view .LVU85
 290 0022 FFF7FEFF 		bl	ulSetInterruptMask
 291              	.LVL25:
 292              	.L20:
 328:../../Middlewares/Third_Party/FreeRTOS/Source/event_groups.c ****         configASSERT( uxBitsToWaitFor != 0 );
 293              		.loc 1 328 9 discriminator 3 view .LVU86
 328:../../Middlewares/Third_Party/FreeRTOS/Source/event_groups.c ****         configASSERT( uxBitsToWaitFor != 0 );
 294              		.loc 1 328 9 discriminator 3 view .LVU87
 295 0026 FEE7     		b	.L20
 296              	.LVL26:
 297              	.L21:
 329:../../Middlewares/Third_Party/FreeRTOS/Source/event_groups.c ****         #if ( ( INCLUDE_xTaskGetSchedulerState == 1 ) || ( configUSE_TIMERS == 1 ) )
 298              		.loc 1 329 45 discriminator 2 view .LVU88
 332:../../Middlewares/Third_Party/FreeRTOS/Source/event_groups.c ****         }
 299              		.loc 1 332 13 view .LVU89
 300 0028 FFF7FEFF 		bl	xTaskGetSchedulerState
 301              	.LVL27:
 332:../../Middlewares/Third_Party/FreeRTOS/Source/event_groups.c ****         }
 302              		.loc 1 332 13 is_stmt 0 discriminator 1 view .LVU90
 303 002c 08B9     		cbnz	r0, .L23
 332:../../Middlewares/Third_Party/FreeRTOS/Source/event_groups.c ****         }
 304              		.loc 1 332 13 discriminator 2 view .LVU91
 305 002e 069B     		ldr	r3, [sp, #24]
 306 0030 FBB9     		cbnz	r3, .L38
 307              	.L23:
 332:../../Middlewares/Third_Party/FreeRTOS/Source/event_groups.c ****         }
 308              		.loc 1 332 114 is_stmt 1 discriminator 8 view .LVU92
 336:../../Middlewares/Third_Party/FreeRTOS/Source/event_groups.c ****         {
 309              		.loc 1 336 9 view .LVU93
 310 0032 FFF7FEFF 		bl	vTaskSuspendAll
 311              	.LVL28:
ARM GAS  C:\Users\SMART\AppData\Local\Temp\ccUCLR5k.s 			page 22


 312              	.LBB4:
 338:../../Middlewares/Third_Party/FreeRTOS/Source/event_groups.c **** 
 313              		.loc 1 338 13 view .LVU94
 338:../../Middlewares/Third_Party/FreeRTOS/Source/event_groups.c **** 
 314              		.loc 1 338 31 is_stmt 0 view .LVU95
 315 0036 D7F80080 		ldr	r8, [r7]
 316              	.LVL29:
 341:../../Middlewares/Third_Party/FreeRTOS/Source/event_groups.c **** 
 317              		.loc 1 341 13 is_stmt 1 view .LVU96
 341:../../Middlewares/Third_Party/FreeRTOS/Source/event_groups.c **** 
 318              		.loc 1 341 33 is_stmt 0 view .LVU97
 319 003a 2A46     		mov	r2, r5
 320 003c 2146     		mov	r1, r4
 321 003e 4046     		mov	r0, r8
 322 0040 FFF7FEFF 		bl	prvTestWaitCondition
 323              	.LVL30:
 343:../../Middlewares/Third_Party/FreeRTOS/Source/event_groups.c ****             {
 324              		.loc 1 343 13 is_stmt 1 view .LVU98
 343:../../Middlewares/Third_Party/FreeRTOS/Source/event_groups.c ****             {
 325              		.loc 1 343 15 is_stmt 0 view .LVU99
 326 0044 C0B1     		cbz	r0, .L25
 347:../../Middlewares/Third_Party/FreeRTOS/Source/event_groups.c ****                 xTicksToWait = ( TickType_t ) 0;
 327              		.loc 1 347 17 is_stmt 1 view .LVU100
 328              	.LVL31:
 348:../../Middlewares/Third_Party/FreeRTOS/Source/event_groups.c **** 
 329              		.loc 1 348 17 view .LVU101
 351:../../Middlewares/Third_Party/FreeRTOS/Source/event_groups.c ****                 {
 330              		.loc 1 351 17 view .LVU102
 351:../../Middlewares/Third_Party/FreeRTOS/Source/event_groups.c ****                 {
 331              		.loc 1 351 19 is_stmt 0 view .LVU103
 332 0046 56B3     		cbz	r6, .L33
 353:../../Middlewares/Third_Party/FreeRTOS/Source/event_groups.c ****                 }
 333              		.loc 1 353 21 is_stmt 1 view .LVU104
 353:../../Middlewares/Third_Party/FreeRTOS/Source/event_groups.c ****                 }
 334              		.loc 1 353 46 is_stmt 0 view .LVU105
 335 0048 28EA0403 		bic	r3, r8, r4
 336 004c 3B60     		str	r3, [r7]
 348:../../Middlewares/Third_Party/FreeRTOS/Source/event_groups.c **** 
 337              		.loc 1 348 30 view .LVU106
 338 004e 0023     		movs	r3, #0
 339 0050 0693     		str	r3, [sp, #24]
 340              	.LVL32:
 341              	.L26:
 401:../../Middlewares/Third_Party/FreeRTOS/Source/event_groups.c ****             }
 342              		.loc 1 401 81 is_stmt 1 view .LVU107
 343              	.LBE4:
 404:../../Middlewares/Third_Party/FreeRTOS/Source/event_groups.c **** 
 344              		.loc 1 404 9 view .LVU108
 404:../../Middlewares/Third_Party/FreeRTOS/Source/event_groups.c **** 
 345              		.loc 1 404 27 is_stmt 0 view .LVU109
 346 0052 FFF7FEFF 		bl	xTaskResumeAll
 347              	.LVL33:
 406:../../Middlewares/Third_Party/FreeRTOS/Source/event_groups.c ****         {
 348              		.loc 1 406 9 is_stmt 1 view .LVU110
 406:../../Middlewares/Third_Party/FreeRTOS/Source/event_groups.c ****         {
 349              		.loc 1 406 11 is_stmt 0 view .LVU111
 350 0056 069B     		ldr	r3, [sp, #24]
ARM GAS  C:\Users\SMART\AppData\Local\Temp\ccUCLR5k.s 			page 23


 351 0058 43B1     		cbz	r3, .L16
 408:../../Middlewares/Third_Party/FreeRTOS/Source/event_groups.c ****             {
 352              		.loc 1 408 13 is_stmt 1 view .LVU112
 408:../../Middlewares/Third_Party/FreeRTOS/Source/event_groups.c ****             {
 353              		.loc 1 408 15 is_stmt 0 view .LVU113
 354 005a 18B3     		cbz	r0, .L39
 355              	.LVL34:
 356              	.L30:
 414:../../Middlewares/Third_Party/FreeRTOS/Source/event_groups.c ****             }
 357              		.loc 1 414 41 is_stmt 1 view .LVU114
 421:../../Middlewares/Third_Party/FreeRTOS/Source/event_groups.c **** 
 358              		.loc 1 421 13 view .LVU115
 421:../../Middlewares/Third_Party/FreeRTOS/Source/event_groups.c **** 
 359              		.loc 1 421 24 is_stmt 0 view .LVU116
 360 005c FFF7FEFF 		bl	uxTaskResetEventItemValue
 361              	.LVL35:
 362 0060 8046     		mov	r8, r0
 363              	.LVL36:
 423:../../Middlewares/Third_Party/FreeRTOS/Source/event_groups.c ****             {
 364              		.loc 1 423 13 is_stmt 1 view .LVU117
 423:../../Middlewares/Third_Party/FreeRTOS/Source/event_groups.c ****             {
 365              		.loc 1 423 15 is_stmt 0 view .LVU118
 366 0062 10F0007F 		tst	r0, #33554432
 367 0066 20D0     		beq	.L40
 368              	.LVL37:
 369              	.L31:
 455:../../Middlewares/Third_Party/FreeRTOS/Source/event_groups.c **** 
 370              		.loc 1 455 13 is_stmt 1 view .LVU119
 458:../../Middlewares/Third_Party/FreeRTOS/Source/event_groups.c ****         }
 371              		.loc 1 458 13 view .LVU120
 458:../../Middlewares/Third_Party/FreeRTOS/Source/event_groups.c ****         }
 372              		.loc 1 458 22 is_stmt 0 view .LVU121
 373 0068 28F07F48 		bic	r8, r8, #-16777216
 374              	.LVL38:
 461:../../Middlewares/Third_Party/FreeRTOS/Source/event_groups.c **** 
 375              		.loc 1 461 9 is_stmt 1 view .LVU122
 464:../../Middlewares/Third_Party/FreeRTOS/Source/event_groups.c **** 
 376              		.loc 1 464 9 view .LVU123
 466:../../Middlewares/Third_Party/FreeRTOS/Source/event_groups.c **** 
 377              		.loc 1 466 52 view .LVU124
 468:../../Middlewares/Third_Party/FreeRTOS/Source/event_groups.c ****     }
 378              		.loc 1 468 9 view .LVU125
 379              	.L16:
 469:../../Middlewares/Third_Party/FreeRTOS/Source/event_groups.c **** /*-----------------------------------------------------------*/
 380              		.loc 1 469 5 is_stmt 0 view .LVU126
 381 006c 4046     		mov	r0, r8
 382 006e BDE8F081 		pop	{r4, r5, r6, r7, r8, pc}
 383              	.LVL39:
 384              	.L38:
 332:../../Middlewares/Third_Party/FreeRTOS/Source/event_groups.c ****         }
 385              		.loc 1 332 13 is_stmt 1 discriminator 7 view .LVU127
 386 0072 FFF7FEFF 		bl	ulSetInterruptMask
 387              	.LVL40:
 388              	.L24:
 332:../../Middlewares/Third_Party/FreeRTOS/Source/event_groups.c ****         }
 389              		.loc 1 332 13 discriminator 9 view .LVU128
 332:../../Middlewares/Third_Party/FreeRTOS/Source/event_groups.c ****         }
ARM GAS  C:\Users\SMART\AppData\Local\Temp\ccUCLR5k.s 			page 24


 390              		.loc 1 332 13 discriminator 9 view .LVU129
 391 0076 FEE7     		b	.L24
 392              	.LVL41:
 393              	.L25:
 394              	.LBB5:
 360:../../Middlewares/Third_Party/FreeRTOS/Source/event_groups.c ****             {
 395              		.loc 1 360 18 view .LVU130
 360:../../Middlewares/Third_Party/FreeRTOS/Source/event_groups.c ****             {
 396              		.loc 1 360 20 is_stmt 0 view .LVU131
 397 0078 069B     		ldr	r3, [sp, #24]
 398 007a 002B     		cmp	r3, #0
 399 007c E9D0     		beq	.L26
 373:../../Middlewares/Third_Party/FreeRTOS/Source/event_groups.c ****                 {
 400              		.loc 1 373 17 is_stmt 1 view .LVU132
 373:../../Middlewares/Third_Party/FreeRTOS/Source/event_groups.c ****                 {
 401              		.loc 1 373 19 is_stmt 0 view .LVU133
 402 007e 5EB9     		cbnz	r6, .L34
 403              	.LBE5:
 319:../../Middlewares/Third_Party/FreeRTOS/Source/event_groups.c ****         BaseType_t xWaitConditionMet, xAlreadyYielded;
 404              		.loc 1 319 31 view .LVU134
 405 0080 0021     		movs	r1, #0
 406              	.L27:
 407              	.LVL42:
 408              	.LBB6:
 379:../../Middlewares/Third_Party/FreeRTOS/Source/event_groups.c ****                 }
 409              		.loc 1 379 45 is_stmt 1 view .LVU135
 382:../../Middlewares/Third_Party/FreeRTOS/Source/event_groups.c ****                 {
 410              		.loc 1 382 17 view .LVU136
 382:../../Middlewares/Third_Party/FreeRTOS/Source/event_groups.c ****                 {
 411              		.loc 1 382 19 is_stmt 0 view .LVU137
 412 0082 0DB1     		cbz	r5, .L28
 384:../../Middlewares/Third_Party/FreeRTOS/Source/event_groups.c ****                 }
 413              		.loc 1 384 21 is_stmt 1 view .LVU138
 384:../../Middlewares/Third_Party/FreeRTOS/Source/event_groups.c ****                 }
 414              		.loc 1 384 35 is_stmt 0 view .LVU139
 415 0084 41F08061 		orr	r1, r1, #67108864
 416              	.LVL43:
 417              	.L28:
 388:../../Middlewares/Third_Party/FreeRTOS/Source/event_groups.c ****                 }
 418              		.loc 1 388 45 is_stmt 1 view .LVU140
 394:../../Middlewares/Third_Party/FreeRTOS/Source/event_groups.c **** 
 419              		.loc 1 394 17 view .LVU141
 420 0088 069A     		ldr	r2, [sp, #24]
 421 008a 2143     		orrs	r1, r1, r4
 422              	.LVL44:
 394:../../Middlewares/Third_Party/FreeRTOS/Source/event_groups.c **** 
 423              		.loc 1 394 17 is_stmt 0 view .LVU142
 424 008c 381D     		adds	r0, r7, #4
 425              	.LVL45:
 394:../../Middlewares/Third_Party/FreeRTOS/Source/event_groups.c **** 
 426              		.loc 1 394 17 view .LVU143
 427 008e FFF7FEFF 		bl	vTaskPlaceOnUnorderedEventList
 428              	.LVL46:
 399:../../Middlewares/Third_Party/FreeRTOS/Source/event_groups.c **** 
 429              		.loc 1 399 17 is_stmt 1 view .LVU144
 399:../../Middlewares/Third_Party/FreeRTOS/Source/event_groups.c **** 
 430              		.loc 1 399 26 is_stmt 0 view .LVU145
ARM GAS  C:\Users\SMART\AppData\Local\Temp\ccUCLR5k.s 			page 25


 431 0092 4FF00008 		mov	r8, #0
 432              	.LVL47:
 399:../../Middlewares/Third_Party/FreeRTOS/Source/event_groups.c **** 
 433              		.loc 1 399 26 view .LVU146
 434 0096 DCE7     		b	.L26
 435              	.LVL48:
 436              	.L34:
 375:../../Middlewares/Third_Party/FreeRTOS/Source/event_groups.c ****                 }
 437              		.loc 1 375 35 view .LVU147
 438 0098 4FF08071 		mov	r1, #16777216
 439 009c F1E7     		b	.L27
 440              	.LVL49:
 441              	.L33:
 348:../../Middlewares/Third_Party/FreeRTOS/Source/event_groups.c **** 
 442              		.loc 1 348 30 view .LVU148
 443 009e 0023     		movs	r3, #0
 444 00a0 0693     		str	r3, [sp, #24]
 445 00a2 D6E7     		b	.L26
 446              	.LVL50:
 447              	.L39:
 348:../../Middlewares/Third_Party/FreeRTOS/Source/event_groups.c **** 
 448              		.loc 1 348 30 view .LVU149
 449              	.LBE6:
 410:../../Middlewares/Third_Party/FreeRTOS/Source/event_groups.c ****             }
 450              		.loc 1 410 17 is_stmt 1 view .LVU150
 451 00a4 FFF7FEFF 		bl	vPortYield
 452              	.LVL51:
 410:../../Middlewares/Third_Party/FreeRTOS/Source/event_groups.c ****             }
 453              		.loc 1 410 17 is_stmt 0 view .LVU151
 454 00a8 D8E7     		b	.L30
 455              	.LVL52:
 456              	.L40:
 425:../../Middlewares/Third_Party/FreeRTOS/Source/event_groups.c ****                 {
 457              		.loc 1 425 17 is_stmt 1 view .LVU152
 458 00aa FFF7FEFF 		bl	vPortEnterCritical
 459              	.LVL53:
 428:../../Middlewares/Third_Party/FreeRTOS/Source/event_groups.c **** 
 460              		.loc 1 428 21 view .LVU153
 428:../../Middlewares/Third_Party/FreeRTOS/Source/event_groups.c **** 
 461              		.loc 1 428 30 is_stmt 0 view .LVU154
 462 00ae D7F80080 		ldr	r8, [r7]
 463              	.LVL54:
 432:../../Middlewares/Third_Party/FreeRTOS/Source/event_groups.c ****                     {
 464              		.loc 1 432 21 is_stmt 1 view .LVU155
 432:../../Middlewares/Third_Party/FreeRTOS/Source/event_groups.c ****                     {
 465              		.loc 1 432 25 is_stmt 0 view .LVU156
 466 00b2 2A46     		mov	r2, r5
 467 00b4 2146     		mov	r1, r4
 468 00b6 4046     		mov	r0, r8
 469 00b8 FFF7FEFF 		bl	prvTestWaitCondition
 470              	.LVL55:
 432:../../Middlewares/Third_Party/FreeRTOS/Source/event_groups.c ****                     {
 471              		.loc 1 432 23 discriminator 1 view .LVU157
 472 00bc 18B1     		cbz	r0, .L32
 434:../../Middlewares/Third_Party/FreeRTOS/Source/event_groups.c ****                         {
 473              		.loc 1 434 25 is_stmt 1 view .LVU158
 434:../../Middlewares/Third_Party/FreeRTOS/Source/event_groups.c ****                         {
ARM GAS  C:\Users\SMART\AppData\Local\Temp\ccUCLR5k.s 			page 26


 474              		.loc 1 434 27 is_stmt 0 view .LVU159
 475 00be 16B1     		cbz	r6, .L32
 436:../../Middlewares/Third_Party/FreeRTOS/Source/event_groups.c ****                         }
 476              		.loc 1 436 29 is_stmt 1 view .LVU160
 436:../../Middlewares/Third_Party/FreeRTOS/Source/event_groups.c ****                         }
 477              		.loc 1 436 54 is_stmt 0 view .LVU161
 478 00c0 28EA0404 		bic	r4, r8, r4
 479              	.LVL56:
 436:../../Middlewares/Third_Party/FreeRTOS/Source/event_groups.c ****                         }
 480              		.loc 1 436 54 view .LVU162
 481 00c4 3C60     		str	r4, [r7]
 482              	.L32:
 445:../../Middlewares/Third_Party/FreeRTOS/Source/event_groups.c ****                     }
 483              		.loc 1 445 49 is_stmt 1 view .LVU163
 448:../../Middlewares/Third_Party/FreeRTOS/Source/event_groups.c ****                 }
 484              		.loc 1 448 21 view .LVU164
 485              	.LVL57:
 450:../../Middlewares/Third_Party/FreeRTOS/Source/event_groups.c ****             }
 486              		.loc 1 450 17 view .LVU165
 487 00c6 FFF7FEFF 		bl	vPortExitCritical
 488              	.LVL58:
 489 00ca CDE7     		b	.L31
 490              		.cfi_endproc
 491              	.LFE3:
 493              		.section	.text.xEventGroupClearBits,"ax",%progbits
 494              		.align	1
 495              		.global	xEventGroupClearBits
 496              		.syntax unified
 497              		.thumb
 498              		.thumb_func
 500              	xEventGroupClearBits:
 501              	.LVL59:
 502              	.LFB4:
 474:../../Middlewares/Third_Party/FreeRTOS/Source/event_groups.c ****         EventGroup_t * pxEventBits = xEventGroup;
 503              		.loc 1 474 5 view -0
 504              		.cfi_startproc
 505              		@ args = 0, pretend = 0, frame = 0
 506              		@ frame_needed = 0, uses_anonymous_args = 0
 474:../../Middlewares/Third_Party/FreeRTOS/Source/event_groups.c ****         EventGroup_t * pxEventBits = xEventGroup;
 507              		.loc 1 474 5 is_stmt 0 view .LVU167
 508 0000 70B5     		push	{r4, r5, r6, lr}
 509              	.LCFI5:
 510              		.cfi_def_cfa_offset 16
 511              		.cfi_offset 4, -16
 512              		.cfi_offset 5, -12
 513              		.cfi_offset 6, -8
 514              		.cfi_offset 14, -4
 475:../../Middlewares/Third_Party/FreeRTOS/Source/event_groups.c ****         EventBits_t uxReturn;
 515              		.loc 1 475 9 is_stmt 1 view .LVU168
 516              	.LVL60:
 476:../../Middlewares/Third_Party/FreeRTOS/Source/event_groups.c **** 
 517              		.loc 1 476 9 view .LVU169
 478:../../Middlewares/Third_Party/FreeRTOS/Source/event_groups.c **** 
 518              		.loc 1 478 70 view .LVU170
 482:../../Middlewares/Third_Party/FreeRTOS/Source/event_groups.c ****         configASSERT( ( uxBitsToClear & eventEVENT_BITS_CONTROL_BYTES ) == 0 );
 519              		.loc 1 482 9 view .LVU171
 520 0002 38B1     		cbz	r0, .L47
ARM GAS  C:\Users\SMART\AppData\Local\Temp\ccUCLR5k.s 			page 27


 521 0004 0C46     		mov	r4, r1
 522 0006 0546     		mov	r5, r0
 482:../../Middlewares/Third_Party/FreeRTOS/Source/event_groups.c ****         configASSERT( ( uxBitsToClear & eventEVENT_BITS_CONTROL_BYTES ) == 0 );
 523              		.loc 1 482 36 discriminator 2 view .LVU172
 483:../../Middlewares/Third_Party/FreeRTOS/Source/event_groups.c **** 
 524              		.loc 1 483 9 view .LVU173
 525 0008 B1F1807F 		cmp	r1, #16777216
 526 000c 05D3     		bcc	.L44
 483:../../Middlewares/Third_Party/FreeRTOS/Source/event_groups.c **** 
 527              		.loc 1 483 9 discriminator 1 view .LVU174
 528 000e FFF7FEFF 		bl	ulSetInterruptMask
 529              	.LVL61:
 530              	.L45:
 483:../../Middlewares/Third_Party/FreeRTOS/Source/event_groups.c **** 
 531              		.loc 1 483 9 discriminator 3 view .LVU175
 483:../../Middlewares/Third_Party/FreeRTOS/Source/event_groups.c **** 
 532              		.loc 1 483 9 discriminator 3 view .LVU176
 533 0012 FEE7     		b	.L45
 534              	.LVL62:
 535              	.L47:
 482:../../Middlewares/Third_Party/FreeRTOS/Source/event_groups.c ****         configASSERT( ( uxBitsToClear & eventEVENT_BITS_CONTROL_BYTES ) == 0 );
 536              		.loc 1 482 9 discriminator 1 view .LVU177
 537 0014 FFF7FEFF 		bl	ulSetInterruptMask
 538              	.LVL63:
 539              	.L43:
 482:../../Middlewares/Third_Party/FreeRTOS/Source/event_groups.c ****         configASSERT( ( uxBitsToClear & eventEVENT_BITS_CONTROL_BYTES ) == 0 );
 540              		.loc 1 482 9 discriminator 3 view .LVU178
 482:../../Middlewares/Third_Party/FreeRTOS/Source/event_groups.c ****         configASSERT( ( uxBitsToClear & eventEVENT_BITS_CONTROL_BYTES ) == 0 );
 541              		.loc 1 482 9 discriminator 3 view .LVU179
 542 0018 FEE7     		b	.L43
 543              	.LVL64:
 544              	.L44:
 483:../../Middlewares/Third_Party/FreeRTOS/Source/event_groups.c **** 
 545              		.loc 1 483 79 discriminator 2 view .LVU180
 485:../../Middlewares/Third_Party/FreeRTOS/Source/event_groups.c ****         {
 546              		.loc 1 485 9 view .LVU181
 547 001a FFF7FEFF 		bl	vPortEnterCritical
 548              	.LVL65:
 487:../../Middlewares/Third_Party/FreeRTOS/Source/event_groups.c **** 
 549              		.loc 1 487 70 view .LVU182
 491:../../Middlewares/Third_Party/FreeRTOS/Source/event_groups.c **** 
 550              		.loc 1 491 13 view .LVU183
 491:../../Middlewares/Third_Party/FreeRTOS/Source/event_groups.c **** 
 551              		.loc 1 491 22 is_stmt 0 view .LVU184
 552 001e 2E68     		ldr	r6, [r5]
 553              	.LVL66:
 494:../../Middlewares/Third_Party/FreeRTOS/Source/event_groups.c ****         }
 554              		.loc 1 494 13 is_stmt 1 view .LVU185
 494:../../Middlewares/Third_Party/FreeRTOS/Source/event_groups.c ****         }
 555              		.loc 1 494 38 is_stmt 0 view .LVU186
 556 0020 26EA0404 		bic	r4, r6, r4
 557              	.LVL67:
 494:../../Middlewares/Third_Party/FreeRTOS/Source/event_groups.c ****         }
 558              		.loc 1 494 38 view .LVU187
 559 0024 2C60     		str	r4, [r5]
 496:../../Middlewares/Third_Party/FreeRTOS/Source/event_groups.c **** 
 560              		.loc 1 496 9 is_stmt 1 view .LVU188
ARM GAS  C:\Users\SMART\AppData\Local\Temp\ccUCLR5k.s 			page 28


 561 0026 FFF7FEFF 		bl	vPortExitCritical
 562              	.LVL68:
 498:../../Middlewares/Third_Party/FreeRTOS/Source/event_groups.c **** 
 563              		.loc 1 498 53 view .LVU189
 500:../../Middlewares/Third_Party/FreeRTOS/Source/event_groups.c ****     }
 564              		.loc 1 500 9 view .LVU190
 501:../../Middlewares/Third_Party/FreeRTOS/Source/event_groups.c **** /*-----------------------------------------------------------*/
 565              		.loc 1 501 5 is_stmt 0 view .LVU191
 566 002a 3046     		mov	r0, r6
 567 002c 70BD     		pop	{r4, r5, r6, pc}
 501:../../Middlewares/Third_Party/FreeRTOS/Source/event_groups.c **** /*-----------------------------------------------------------*/
 568              		.loc 1 501 5 view .LVU192
 569              		.cfi_endproc
 570              	.LFE4:
 572              		.section	.text.vEventGroupClearBitsCallback,"ax",%progbits
 573              		.align	1
 574              		.global	vEventGroupClearBitsCallback
 575              		.syntax unified
 576              		.thumb
 577              		.thumb_func
 579              	vEventGroupClearBitsCallback:
 580              	.LVL69:
 581              	.LFB11:
 766:../../Middlewares/Third_Party/FreeRTOS/Source/event_groups.c ****         traceENTER_vEventGroupClearBitsCallback( pvEventGroup, ulBitsToClear );
 582              		.loc 1 766 5 is_stmt 1 view -0
 583              		.cfi_startproc
 584              		@ args = 0, pretend = 0, frame = 0
 585              		@ frame_needed = 0, uses_anonymous_args = 0
 766:../../Middlewares/Third_Party/FreeRTOS/Source/event_groups.c ****         traceENTER_vEventGroupClearBitsCallback( pvEventGroup, ulBitsToClear );
 586              		.loc 1 766 5 is_stmt 0 view .LVU194
 587 0000 08B5     		push	{r3, lr}
 588              	.LCFI6:
 589              		.cfi_def_cfa_offset 8
 590              		.cfi_offset 3, -8
 591              		.cfi_offset 14, -4
 767:../../Middlewares/Third_Party/FreeRTOS/Source/event_groups.c **** 
 592              		.loc 1 767 79 is_stmt 1 view .LVU195
 772:../../Middlewares/Third_Party/FreeRTOS/Source/event_groups.c **** 
 593              		.loc 1 772 9 view .LVU196
 772:../../Middlewares/Third_Party/FreeRTOS/Source/event_groups.c **** 
 594              		.loc 1 772 18 is_stmt 0 view .LVU197
 595 0002 FFF7FEFF 		bl	xEventGroupClearBits
 596              	.LVL70:
 774:../../Middlewares/Third_Party/FreeRTOS/Source/event_groups.c ****     }
 597              		.loc 1 774 51 is_stmt 1 view .LVU198
 775:../../Middlewares/Third_Party/FreeRTOS/Source/event_groups.c **** /*-----------------------------------------------------------*/
 598              		.loc 1 775 5 is_stmt 0 view .LVU199
 599 0006 08BD     		pop	{r3, pc}
 600              		.cfi_endproc
 601              	.LFE11:
 603              		.section	.text.xEventGroupClearBitsFromISR,"ax",%progbits
 604              		.align	1
 605              		.global	xEventGroupClearBitsFromISR
 606              		.syntax unified
 607              		.thumb
 608              		.thumb_func
 610              	xEventGroupClearBitsFromISR:
ARM GAS  C:\Users\SMART\AppData\Local\Temp\ccUCLR5k.s 			page 29


 611              	.LVL71:
 612              	.LFB5:
 508:../../Middlewares/Third_Party/FreeRTOS/Source/event_groups.c ****             BaseType_t xReturn;
 613              		.loc 1 508 9 is_stmt 1 view -0
 614              		.cfi_startproc
 615              		@ args = 0, pretend = 0, frame = 0
 616              		@ frame_needed = 0, uses_anonymous_args = 0
 508:../../Middlewares/Third_Party/FreeRTOS/Source/event_groups.c ****             BaseType_t xReturn;
 617              		.loc 1 508 9 is_stmt 0 view .LVU201
 618 0000 08B5     		push	{r3, lr}
 619              	.LCFI7:
 620              		.cfi_def_cfa_offset 8
 621              		.cfi_offset 3, -8
 622              		.cfi_offset 14, -4
 623 0002 0A46     		mov	r2, r1
 509:../../Middlewares/Third_Party/FreeRTOS/Source/event_groups.c **** 
 624              		.loc 1 509 13 is_stmt 1 view .LVU202
 511:../../Middlewares/Third_Party/FreeRTOS/Source/event_groups.c **** 
 625              		.loc 1 511 81 view .LVU203
 513:../../Middlewares/Third_Party/FreeRTOS/Source/event_groups.c ****             xReturn = xTimerPendFunctionCallFromISR( vEventGroupClearBitsCallback, ( void * ) xEven
 626              		.loc 1 513 79 view .LVU204
 514:../../Middlewares/Third_Party/FreeRTOS/Source/event_groups.c **** 
 627              		.loc 1 514 13 view .LVU205
 514:../../Middlewares/Third_Party/FreeRTOS/Source/event_groups.c **** 
 628              		.loc 1 514 23 is_stmt 0 view .LVU206
 629 0004 0023     		movs	r3, #0
 630 0006 0146     		mov	r1, r0
 631              	.LVL72:
 514:../../Middlewares/Third_Party/FreeRTOS/Source/event_groups.c **** 
 632              		.loc 1 514 23 view .LVU207
 633 0008 0148     		ldr	r0, .L52
 634              	.LVL73:
 514:../../Middlewares/Third_Party/FreeRTOS/Source/event_groups.c **** 
 635              		.loc 1 514 23 view .LVU208
 636 000a FFF7FEFF 		bl	xTimerPendFunctionCallFromISR
 637              	.LVL74:
 516:../../Middlewares/Third_Party/FreeRTOS/Source/event_groups.c **** 
 638              		.loc 1 516 63 is_stmt 1 view .LVU209
 518:../../Middlewares/Third_Party/FreeRTOS/Source/event_groups.c ****         }
 639              		.loc 1 518 13 view .LVU210
 519:../../Middlewares/Third_Party/FreeRTOS/Source/event_groups.c **** 
 640              		.loc 1 519 9 is_stmt 0 view .LVU211
 641 000e 08BD     		pop	{r3, pc}
 642              	.L53:
 643              		.align	2
 644              	.L52:
 645 0010 00000000 		.word	vEventGroupClearBitsCallback
 646              		.cfi_endproc
 647              	.LFE5:
 649              		.section	.text.xEventGroupGetBitsFromISR,"ax",%progbits
 650              		.align	1
 651              		.global	xEventGroupGetBitsFromISR
 652              		.syntax unified
 653              		.thumb
 654              		.thumb_func
 656              	xEventGroupGetBitsFromISR:
 657              	.LVL75:
ARM GAS  C:\Users\SMART\AppData\Local\Temp\ccUCLR5k.s 			page 30


 658              	.LFB6:
 525:../../Middlewares/Third_Party/FreeRTOS/Source/event_groups.c ****         UBaseType_t uxSavedInterruptStatus;
 659              		.loc 1 525 5 is_stmt 1 view -0
 660              		.cfi_startproc
 661              		@ args = 0, pretend = 0, frame = 0
 662              		@ frame_needed = 0, uses_anonymous_args = 0
 525:../../Middlewares/Third_Party/FreeRTOS/Source/event_groups.c ****         UBaseType_t uxSavedInterruptStatus;
 663              		.loc 1 525 5 is_stmt 0 view .LVU213
 664 0000 10B5     		push	{r4, lr}
 665              	.LCFI8:
 666              		.cfi_def_cfa_offset 8
 667              		.cfi_offset 4, -8
 668              		.cfi_offset 14, -4
 669 0002 0446     		mov	r4, r0
 526:../../Middlewares/Third_Party/FreeRTOS/Source/event_groups.c ****         EventGroup_t const * const pxEventBits = xEventGroup;
 670              		.loc 1 526 9 is_stmt 1 view .LVU214
 527:../../Middlewares/Third_Party/FreeRTOS/Source/event_groups.c ****         EventBits_t uxReturn;
 671              		.loc 1 527 9 view .LVU215
 672              	.LVL76:
 528:../../Middlewares/Third_Party/FreeRTOS/Source/event_groups.c **** 
 673              		.loc 1 528 9 view .LVU216
 530:../../Middlewares/Third_Party/FreeRTOS/Source/event_groups.c **** 
 674              		.loc 1 530 60 view .LVU217
 535:../../Middlewares/Third_Party/FreeRTOS/Source/event_groups.c ****         {
 675              		.loc 1 535 9 view .LVU218
 535:../../Middlewares/Third_Party/FreeRTOS/Source/event_groups.c ****         {
 676              		.loc 1 535 34 is_stmt 0 view .LVU219
 677 0004 FFF7FEFF 		bl	ulSetInterruptMask
 678              	.LVL77:
 537:../../Middlewares/Third_Party/FreeRTOS/Source/event_groups.c ****         }
 679              		.loc 1 537 13 is_stmt 1 view .LVU220
 537:../../Middlewares/Third_Party/FreeRTOS/Source/event_groups.c ****         }
 680              		.loc 1 537 22 is_stmt 0 view .LVU221
 681 0008 2468     		ldr	r4, [r4]
 682              	.LVL78:
 539:../../Middlewares/Third_Party/FreeRTOS/Source/event_groups.c **** 
 683              		.loc 1 539 9 is_stmt 1 view .LVU222
 684 000a FFF7FEFF 		bl	vClearInterruptMask
 685              	.LVL79:
 541:../../Middlewares/Third_Party/FreeRTOS/Source/event_groups.c **** 
 686              		.loc 1 541 58 view .LVU223
 543:../../Middlewares/Third_Party/FreeRTOS/Source/event_groups.c ****     }
 687              		.loc 1 543 9 view .LVU224
 544:../../Middlewares/Third_Party/FreeRTOS/Source/event_groups.c **** /*-----------------------------------------------------------*/
 688              		.loc 1 544 5 is_stmt 0 view .LVU225
 689 000e 2046     		mov	r0, r4
 690 0010 10BD     		pop	{r4, pc}
 544:../../Middlewares/Third_Party/FreeRTOS/Source/event_groups.c **** /*-----------------------------------------------------------*/
 691              		.loc 1 544 5 view .LVU226
 692              		.cfi_endproc
 693              	.LFE6:
 695              		.section	.text.xEventGroupSetBits,"ax",%progbits
 696              		.align	1
 697              		.global	xEventGroupSetBits
 698              		.syntax unified
 699              		.thumb
 700              		.thumb_func
ARM GAS  C:\Users\SMART\AppData\Local\Temp\ccUCLR5k.s 			page 31


 702              	xEventGroupSetBits:
 703              	.LVL80:
 704              	.LFB7:
 549:../../Middlewares/Third_Party/FreeRTOS/Source/event_groups.c ****         ListItem_t * pxListItem;
 705              		.loc 1 549 5 is_stmt 1 view -0
 706              		.cfi_startproc
 707              		@ args = 0, pretend = 0, frame = 0
 708              		@ frame_needed = 0, uses_anonymous_args = 0
 549:../../Middlewares/Third_Party/FreeRTOS/Source/event_groups.c ****         ListItem_t * pxListItem;
 709              		.loc 1 549 5 is_stmt 0 view .LVU228
 710 0000 F8B5     		push	{r3, r4, r5, r6, r7, lr}
 711              	.LCFI9:
 712              		.cfi_def_cfa_offset 24
 713              		.cfi_offset 3, -24
 714              		.cfi_offset 4, -20
 715              		.cfi_offset 5, -16
 716              		.cfi_offset 6, -12
 717              		.cfi_offset 7, -8
 718              		.cfi_offset 14, -4
 550:../../Middlewares/Third_Party/FreeRTOS/Source/event_groups.c ****         ListItem_t * pxNext;
 719              		.loc 1 550 9 is_stmt 1 view .LVU229
 551:../../Middlewares/Third_Party/FreeRTOS/Source/event_groups.c ****         ListItem_t const * pxListEnd;
 720              		.loc 1 551 9 view .LVU230
 552:../../Middlewares/Third_Party/FreeRTOS/Source/event_groups.c ****         List_t const * pxList;
 721              		.loc 1 552 9 view .LVU231
 553:../../Middlewares/Third_Party/FreeRTOS/Source/event_groups.c ****         EventBits_t uxBitsToClear = 0, uxBitsWaitedFor, uxControlBits, uxReturnBits;
 722              		.loc 1 553 9 view .LVU232
 554:../../Middlewares/Third_Party/FreeRTOS/Source/event_groups.c ****         EventGroup_t * pxEventBits = xEventGroup;
 723              		.loc 1 554 9 view .LVU233
 724              	.LVL81:
 555:../../Middlewares/Third_Party/FreeRTOS/Source/event_groups.c ****         BaseType_t xMatchFound = pdFALSE;
 725              		.loc 1 555 9 view .LVU234
 556:../../Middlewares/Third_Party/FreeRTOS/Source/event_groups.c **** 
 726              		.loc 1 556 9 view .LVU235
 558:../../Middlewares/Third_Party/FreeRTOS/Source/event_groups.c **** 
 727              		.loc 1 558 66 view .LVU236
 562:../../Middlewares/Third_Party/FreeRTOS/Source/event_groups.c ****         configASSERT( ( uxBitsToSet & eventEVENT_BITS_CONTROL_BYTES ) == 0 );
 728              		.loc 1 562 9 view .LVU237
 729 0002 38B1     		cbz	r0, .L68
 730 0004 0D46     		mov	r5, r1
 731 0006 0446     		mov	r4, r0
 562:../../Middlewares/Third_Party/FreeRTOS/Source/event_groups.c ****         configASSERT( ( uxBitsToSet & eventEVENT_BITS_CONTROL_BYTES ) == 0 );
 732              		.loc 1 562 36 discriminator 2 view .LVU238
 563:../../Middlewares/Third_Party/FreeRTOS/Source/event_groups.c **** 
 733              		.loc 1 563 9 view .LVU239
 734 0008 B1F1807F 		cmp	r1, #16777216
 735 000c 05D3     		bcc	.L59
 563:../../Middlewares/Third_Party/FreeRTOS/Source/event_groups.c **** 
 736              		.loc 1 563 9 discriminator 1 view .LVU240
 737 000e FFF7FEFF 		bl	ulSetInterruptMask
 738              	.LVL82:
 739              	.L60:
 563:../../Middlewares/Third_Party/FreeRTOS/Source/event_groups.c **** 
 740              		.loc 1 563 9 discriminator 3 view .LVU241
 563:../../Middlewares/Third_Party/FreeRTOS/Source/event_groups.c **** 
 741              		.loc 1 563 9 discriminator 3 view .LVU242
 742 0012 FEE7     		b	.L60
ARM GAS  C:\Users\SMART\AppData\Local\Temp\ccUCLR5k.s 			page 32


 743              	.LVL83:
 744              	.L68:
 562:../../Middlewares/Third_Party/FreeRTOS/Source/event_groups.c ****         configASSERT( ( uxBitsToSet & eventEVENT_BITS_CONTROL_BYTES ) == 0 );
 745              		.loc 1 562 9 discriminator 1 view .LVU243
 746 0014 FFF7FEFF 		bl	ulSetInterruptMask
 747              	.LVL84:
 748              	.L58:
 562:../../Middlewares/Third_Party/FreeRTOS/Source/event_groups.c ****         configASSERT( ( uxBitsToSet & eventEVENT_BITS_CONTROL_BYTES ) == 0 );
 749              		.loc 1 562 9 discriminator 3 view .LVU244
 562:../../Middlewares/Third_Party/FreeRTOS/Source/event_groups.c ****         configASSERT( ( uxBitsToSet & eventEVENT_BITS_CONTROL_BYTES ) == 0 );
 750              		.loc 1 562 9 discriminator 3 view .LVU245
 751 0018 FEE7     		b	.L58
 752              	.LVL85:
 753              	.L59:
 563:../../Middlewares/Third_Party/FreeRTOS/Source/event_groups.c **** 
 754              		.loc 1 563 77 discriminator 2 view .LVU246
 565:../../Middlewares/Third_Party/FreeRTOS/Source/event_groups.c ****         pxListEnd = listGET_END_MARKER( pxList );
 755              		.loc 1 565 9 view .LVU247
 566:../../Middlewares/Third_Party/FreeRTOS/Source/event_groups.c ****         vTaskSuspendAll();
 756              		.loc 1 566 9 view .LVU248
 566:../../Middlewares/Third_Party/FreeRTOS/Source/event_groups.c ****         vTaskSuspendAll();
 757              		.loc 1 566 19 is_stmt 0 view .LVU249
 758 001a 00F10C06 		add	r6, r0, #12
 759              	.LVL86:
 567:../../Middlewares/Third_Party/FreeRTOS/Source/event_groups.c ****         {
 760              		.loc 1 567 9 is_stmt 1 view .LVU250
 761 001e FFF7FEFF 		bl	vTaskSuspendAll
 762              	.LVL87:
 569:../../Middlewares/Third_Party/FreeRTOS/Source/event_groups.c **** 
 763              		.loc 1 569 66 view .LVU251
 571:../../Middlewares/Third_Party/FreeRTOS/Source/event_groups.c **** 
 764              		.loc 1 571 13 view .LVU252
 571:../../Middlewares/Third_Party/FreeRTOS/Source/event_groups.c **** 
 765              		.loc 1 571 24 is_stmt 0 view .LVU253
 766 0022 2069     		ldr	r0, [r4, #16]
 767              	.LVL88:
 574:../../Middlewares/Third_Party/FreeRTOS/Source/event_groups.c **** 
 768              		.loc 1 574 13 is_stmt 1 view .LVU254
 574:../../Middlewares/Third_Party/FreeRTOS/Source/event_groups.c **** 
 769              		.loc 1 574 24 is_stmt 0 view .LVU255
 770 0024 2368     		ldr	r3, [r4]
 574:../../Middlewares/Third_Party/FreeRTOS/Source/event_groups.c **** 
 771              		.loc 1 574 38 view .LVU256
 772 0026 2B43     		orrs	r3, r3, r5
 773 0028 2360     		str	r3, [r4]
 577:../../Middlewares/Third_Party/FreeRTOS/Source/event_groups.c ****             {
 774              		.loc 1 577 13 is_stmt 1 view .LVU257
 554:../../Middlewares/Third_Party/FreeRTOS/Source/event_groups.c ****         EventGroup_t * pxEventBits = xEventGroup;
 775              		.loc 1 554 21 is_stmt 0 view .LVU258
 776 002a 0027     		movs	r7, #0
 577:../../Middlewares/Third_Party/FreeRTOS/Source/event_groups.c ****             {
 777              		.loc 1 577 18 view .LVU259
 778 002c 0AE0     		b	.L61
 779              	.LVL89:
 780              	.L62:
 599:../../Middlewares/Third_Party/FreeRTOS/Source/event_groups.c ****                 {
 781              		.loc 1 599 22 is_stmt 1 view .LVU260
ARM GAS  C:\Users\SMART\AppData\Local\Temp\ccUCLR5k.s 			page 33


 599:../../Middlewares/Third_Party/FreeRTOS/Source/event_groups.c ****                 {
 782              		.loc 1 599 57 is_stmt 0 view .LVU261
 783 002e 2168     		ldr	r1, [r4]
 599:../../Middlewares/Third_Party/FreeRTOS/Source/event_groups.c ****                 {
 784              		.loc 1 599 24 view .LVU262
 785 0030 32EA0101 		bics	r1, r2, r1
 786 0034 05D1     		bne	.L64
 599:../../Middlewares/Third_Party/FreeRTOS/Source/event_groups.c ****                 {
 787              		.loc 1 599 24 view .LVU263
 788 0036 11E0     		b	.L63
 789              	.LVL90:
 790              	.L65:
 618:../../Middlewares/Third_Party/FreeRTOS/Source/event_groups.c ****                     }
 791              		.loc 1 618 49 is_stmt 1 view .LVU264
 626:../../Middlewares/Third_Party/FreeRTOS/Source/event_groups.c ****                 }
 792              		.loc 1 626 21 view .LVU265
 626:../../Middlewares/Third_Party/FreeRTOS/Source/event_groups.c ****                 }
 793              		.loc 1 626 79 is_stmt 0 view .LVU266
 794 0038 2168     		ldr	r1, [r4]
 626:../../Middlewares/Third_Party/FreeRTOS/Source/event_groups.c ****                 }
 795              		.loc 1 626 21 view .LVU267
 796 003a 41F00071 		orr	r1, r1, #33554432
 797 003e FFF7FEFF 		bl	vTaskRemoveFromUnorderedEventList
 798              	.LVL91:
 799              	.L64:
 549:../../Middlewares/Third_Party/FreeRTOS/Source/event_groups.c ****         ListItem_t * pxListItem;
 800              		.loc 1 549 5 view .LVU268
 801 0042 2846     		mov	r0, r5
 802              	.LVL92:
 803              	.L61:
 577:../../Middlewares/Third_Party/FreeRTOS/Source/event_groups.c ****             {
 804              		.loc 1 577 31 is_stmt 1 view .LVU269
 805 0044 B042     		cmp	r0, r6
 806 0046 0ED0     		beq	.L69
 579:../../Middlewares/Third_Party/FreeRTOS/Source/event_groups.c ****                 uxBitsWaitedFor = listGET_LIST_ITEM_VALUE( pxListItem );
 807              		.loc 1 579 17 view .LVU270
 579:../../Middlewares/Third_Party/FreeRTOS/Source/event_groups.c ****                 uxBitsWaitedFor = listGET_LIST_ITEM_VALUE( pxListItem );
 808              		.loc 1 579 24 is_stmt 0 view .LVU271
 809 0048 4568     		ldr	r5, [r0, #4]
 810              	.LVL93:
 580:../../Middlewares/Third_Party/FreeRTOS/Source/event_groups.c ****                 xMatchFound = pdFALSE;
 811              		.loc 1 580 17 is_stmt 1 view .LVU272
 580:../../Middlewares/Third_Party/FreeRTOS/Source/event_groups.c ****                 xMatchFound = pdFALSE;
 812              		.loc 1 580 33 is_stmt 0 view .LVU273
 813 004a 0368     		ldr	r3, [r0]
 814              	.LVL94:
 581:../../Middlewares/Third_Party/FreeRTOS/Source/event_groups.c **** 
 815              		.loc 1 581 17 is_stmt 1 view .LVU274
 584:../../Middlewares/Third_Party/FreeRTOS/Source/event_groups.c ****                 uxBitsWaitedFor &= ~eventEVENT_BITS_CONTROL_BYTES;
 816              		.loc 1 584 17 view .LVU275
 585:../../Middlewares/Third_Party/FreeRTOS/Source/event_groups.c **** 
 817              		.loc 1 585 17 view .LVU276
 585:../../Middlewares/Third_Party/FreeRTOS/Source/event_groups.c **** 
 818              		.loc 1 585 33 is_stmt 0 view .LVU277
 819 004c 23F07F42 		bic	r2, r3, #-16777216
 820              	.LVL95:
 587:../../Middlewares/Third_Party/FreeRTOS/Source/event_groups.c ****                 {
ARM GAS  C:\Users\SMART\AppData\Local\Temp\ccUCLR5k.s 			page 34


 821              		.loc 1 587 17 is_stmt 1 view .LVU278
 587:../../Middlewares/Third_Party/FreeRTOS/Source/event_groups.c ****                 {
 822              		.loc 1 587 19 is_stmt 0 view .LVU279
 823 0050 13F0806F 		tst	r3, #67108864
 824 0054 EBD1     		bne	.L62
 590:../../Middlewares/Third_Party/FreeRTOS/Source/event_groups.c ****                     {
 825              		.loc 1 590 21 is_stmt 1 view .LVU280
 590:../../Middlewares/Third_Party/FreeRTOS/Source/event_groups.c ****                     {
 826              		.loc 1 590 56 is_stmt 0 view .LVU281
 827 0056 2168     		ldr	r1, [r4]
 590:../../Middlewares/Third_Party/FreeRTOS/Source/event_groups.c ****                     {
 828              		.loc 1 590 23 view .LVU282
 829 0058 1142     		tst	r1, r2
 830 005a F2D0     		beq	.L64
 831              	.L63:
 832              	.LVL96:
 612:../../Middlewares/Third_Party/FreeRTOS/Source/event_groups.c ****                     {
 833              		.loc 1 612 21 is_stmt 1 view .LVU283
 612:../../Middlewares/Third_Party/FreeRTOS/Source/event_groups.c ****                     {
 834              		.loc 1 612 23 is_stmt 0 view .LVU284
 835 005c 13F0807F 		tst	r3, #16777216
 836 0060 EAD0     		beq	.L65
 614:../../Middlewares/Third_Party/FreeRTOS/Source/event_groups.c ****                     }
 837              		.loc 1 614 25 is_stmt 1 view .LVU285
 614:../../Middlewares/Third_Party/FreeRTOS/Source/event_groups.c ****                     }
 838              		.loc 1 614 39 is_stmt 0 view .LVU286
 839 0062 1743     		orrs	r7, r7, r2
 840              	.LVL97:
 614:../../Middlewares/Third_Party/FreeRTOS/Source/event_groups.c ****                     }
 841              		.loc 1 614 39 view .LVU287
 842 0064 E8E7     		b	.L65
 843              	.LVL98:
 844              	.L69:
 637:../../Middlewares/Third_Party/FreeRTOS/Source/event_groups.c **** 
 845              		.loc 1 637 13 is_stmt 1 view .LVU288
 637:../../Middlewares/Third_Party/FreeRTOS/Source/event_groups.c **** 
 846              		.loc 1 637 24 is_stmt 0 view .LVU289
 847 0066 2568     		ldr	r5, [r4]
 637:../../Middlewares/Third_Party/FreeRTOS/Source/event_groups.c **** 
 848              		.loc 1 637 38 view .LVU290
 849 0068 25EA0705 		bic	r5, r5, r7
 850 006c 2560     		str	r5, [r4]
 640:../../Middlewares/Third_Party/FreeRTOS/Source/event_groups.c ****         }
 851              		.loc 1 640 13 is_stmt 1 view .LVU291
 852              	.LVL99:
 642:../../Middlewares/Third_Party/FreeRTOS/Source/event_groups.c **** 
 853              		.loc 1 642 9 view .LVU292
 642:../../Middlewares/Third_Party/FreeRTOS/Source/event_groups.c **** 
 854              		.loc 1 642 18 is_stmt 0 view .LVU293
 855 006e FFF7FEFF 		bl	xTaskResumeAll
 856              	.LVL100:
 644:../../Middlewares/Third_Party/FreeRTOS/Source/event_groups.c **** 
 857              		.loc 1 644 55 is_stmt 1 view .LVU294
 646:../../Middlewares/Third_Party/FreeRTOS/Source/event_groups.c ****     }
 858              		.loc 1 646 9 view .LVU295
 647:../../Middlewares/Third_Party/FreeRTOS/Source/event_groups.c **** /*-----------------------------------------------------------*/
 859              		.loc 1 647 5 is_stmt 0 view .LVU296
ARM GAS  C:\Users\SMART\AppData\Local\Temp\ccUCLR5k.s 			page 35


 860 0072 2846     		mov	r0, r5
 861 0074 F8BD     		pop	{r3, r4, r5, r6, r7, pc}
 647:../../Middlewares/Third_Party/FreeRTOS/Source/event_groups.c **** /*-----------------------------------------------------------*/
 862              		.loc 1 647 5 view .LVU297
 863              		.cfi_endproc
 864              	.LFE7:
 866              		.section	.text.xEventGroupSync,"ax",%progbits
 867              		.align	1
 868              		.global	xEventGroupSync
 869              		.syntax unified
 870              		.thumb
 871              		.thumb_func
 873              	xEventGroupSync:
 874              	.LVL101:
 875              	.LFB2:
 189:../../Middlewares/Third_Party/FreeRTOS/Source/event_groups.c ****         EventBits_t uxOriginalBitValue, uxReturn;
 876              		.loc 1 189 5 is_stmt 1 view -0
 877              		.cfi_startproc
 878              		@ args = 0, pretend = 0, frame = 0
 879              		@ frame_needed = 0, uses_anonymous_args = 0
 189:../../Middlewares/Third_Party/FreeRTOS/Source/event_groups.c ****         EventBits_t uxOriginalBitValue, uxReturn;
 880              		.loc 1 189 5 is_stmt 0 view .LVU299
 881 0000 2DE9F041 		push	{r4, r5, r6, r7, r8, lr}
 882              	.LCFI10:
 883              		.cfi_def_cfa_offset 24
 884              		.cfi_offset 4, -24
 885              		.cfi_offset 5, -20
 886              		.cfi_offset 6, -16
 887              		.cfi_offset 7, -12
 888              		.cfi_offset 8, -8
 889              		.cfi_offset 14, -4
 190:../../Middlewares/Third_Party/FreeRTOS/Source/event_groups.c ****         EventGroup_t * pxEventBits = xEventGroup;
 890              		.loc 1 190 9 is_stmt 1 view .LVU300
 191:../../Middlewares/Third_Party/FreeRTOS/Source/event_groups.c ****         BaseType_t xAlreadyYielded;
 891              		.loc 1 191 9 view .LVU301
 892              	.LVL102:
 192:../../Middlewares/Third_Party/FreeRTOS/Source/event_groups.c ****         BaseType_t xTimeoutOccurred = pdFALSE;
 893              		.loc 1 192 9 view .LVU302
 193:../../Middlewares/Third_Party/FreeRTOS/Source/event_groups.c **** 
 894              		.loc 1 193 9 view .LVU303
 195:../../Middlewares/Third_Party/FreeRTOS/Source/event_groups.c **** 
 895              		.loc 1 195 94 view .LVU304
 197:../../Middlewares/Third_Party/FreeRTOS/Source/event_groups.c ****         configASSERT( uxBitsToWaitFor != 0 );
 896              		.loc 1 197 9 view .LVU305
 897 0004 B2F1807F 		cmp	r2, #16777216
 898 0008 07D2     		bcs	.L85
 899 000a 0646     		mov	r6, r0
 900 000c 0D46     		mov	r5, r1
 901 000e 1446     		mov	r4, r2
 902 0010 1F46     		mov	r7, r3
 197:../../Middlewares/Third_Party/FreeRTOS/Source/event_groups.c ****         configASSERT( uxBitsToWaitFor != 0 );
 903              		.loc 1 197 81 discriminator 2 view .LVU306
 198:../../Middlewares/Third_Party/FreeRTOS/Source/event_groups.c ****         #if ( ( INCLUDE_xTaskGetSchedulerState == 1 ) || ( configUSE_TIMERS == 1 ) )
 904              		.loc 1 198 9 view .LVU307
 905 0012 2AB9     		cbnz	r2, .L73
 198:../../Middlewares/Third_Party/FreeRTOS/Source/event_groups.c ****         #if ( ( INCLUDE_xTaskGetSchedulerState == 1 ) || ( configUSE_TIMERS == 1 ) )
 906              		.loc 1 198 9 discriminator 1 view .LVU308
ARM GAS  C:\Users\SMART\AppData\Local\Temp\ccUCLR5k.s 			page 36


 907 0014 FFF7FEFF 		bl	ulSetInterruptMask
 908              	.LVL103:
 909              	.L74:
 198:../../Middlewares/Third_Party/FreeRTOS/Source/event_groups.c ****         #if ( ( INCLUDE_xTaskGetSchedulerState == 1 ) || ( configUSE_TIMERS == 1 ) )
 910              		.loc 1 198 9 discriminator 3 view .LVU309
 198:../../Middlewares/Third_Party/FreeRTOS/Source/event_groups.c ****         #if ( ( INCLUDE_xTaskGetSchedulerState == 1 ) || ( configUSE_TIMERS == 1 ) )
 911              		.loc 1 198 9 discriminator 3 view .LVU310
 912 0018 FEE7     		b	.L74
 913              	.LVL104:
 914              	.L85:
 197:../../Middlewares/Third_Party/FreeRTOS/Source/event_groups.c ****         configASSERT( uxBitsToWaitFor != 0 );
 915              		.loc 1 197 9 discriminator 1 view .LVU311
 916 001a FFF7FEFF 		bl	ulSetInterruptMask
 917              	.LVL105:
 918              	.L72:
 197:../../Middlewares/Third_Party/FreeRTOS/Source/event_groups.c ****         configASSERT( uxBitsToWaitFor != 0 );
 919              		.loc 1 197 9 discriminator 3 view .LVU312
 197:../../Middlewares/Third_Party/FreeRTOS/Source/event_groups.c ****         configASSERT( uxBitsToWaitFor != 0 );
 920              		.loc 1 197 9 discriminator 3 view .LVU313
 921 001e FEE7     		b	.L72
 922              	.LVL106:
 923              	.L73:
 198:../../Middlewares/Third_Party/FreeRTOS/Source/event_groups.c ****         #if ( ( INCLUDE_xTaskGetSchedulerState == 1 ) || ( configUSE_TIMERS == 1 ) )
 924              		.loc 1 198 45 discriminator 2 view .LVU314
 201:../../Middlewares/Third_Party/FreeRTOS/Source/event_groups.c ****         }
 925              		.loc 1 201 13 view .LVU315
 926 0020 FFF7FEFF 		bl	xTaskGetSchedulerState
 927              	.LVL107:
 201:../../Middlewares/Third_Party/FreeRTOS/Source/event_groups.c ****         }
 928              		.loc 1 201 13 is_stmt 0 discriminator 1 view .LVU316
 929 0024 00B9     		cbnz	r0, .L75
 201:../../Middlewares/Third_Party/FreeRTOS/Source/event_groups.c ****         }
 930              		.loc 1 201 13 discriminator 2 view .LVU317
 931 0026 EFB9     		cbnz	r7, .L86
 932              	.L75:
 201:../../Middlewares/Third_Party/FreeRTOS/Source/event_groups.c ****         }
 933              		.loc 1 201 114 is_stmt 1 discriminator 8 view .LVU318
 205:../../Middlewares/Third_Party/FreeRTOS/Source/event_groups.c ****         {
 934              		.loc 1 205 9 view .LVU319
 935 0028 FFF7FEFF 		bl	vTaskSuspendAll
 936              	.LVL108:
 207:../../Middlewares/Third_Party/FreeRTOS/Source/event_groups.c **** 
 937              		.loc 1 207 13 view .LVU320
 207:../../Middlewares/Third_Party/FreeRTOS/Source/event_groups.c **** 
 938              		.loc 1 207 32 is_stmt 0 view .LVU321
 939 002c D6F80080 		ldr	r8, [r6]
 940              	.LVL109:
 209:../../Middlewares/Third_Party/FreeRTOS/Source/event_groups.c **** 
 941              		.loc 1 209 13 is_stmt 1 view .LVU322
 209:../../Middlewares/Third_Party/FreeRTOS/Source/event_groups.c **** 
 942              		.loc 1 209 22 is_stmt 0 view .LVU323
 943 0030 2946     		mov	r1, r5
 944 0032 3046     		mov	r0, r6
 945 0034 FFF7FEFF 		bl	xEventGroupSetBits
 946              	.LVL110:
 211:../../Middlewares/Third_Party/FreeRTOS/Source/event_groups.c ****             {
 947              		.loc 1 211 13 is_stmt 1 view .LVU324
ARM GAS  C:\Users\SMART\AppData\Local\Temp\ccUCLR5k.s 			page 37


 211:../../Middlewares/Third_Party/FreeRTOS/Source/event_groups.c ****             {
 948              		.loc 1 211 40 is_stmt 0 view .LVU325
 949 0038 48EA0505 		orr	r5, r8, r5
 950              	.LVL111:
 211:../../Middlewares/Third_Party/FreeRTOS/Source/event_groups.c ****             {
 951              		.loc 1 211 15 view .LVU326
 952 003c 34EA0503 		bics	r3, r4, r5
 953 0040 13D0     		beq	.L87
 224:../../Middlewares/Third_Party/FreeRTOS/Source/event_groups.c ****                 {
 954              		.loc 1 224 17 is_stmt 1 view .LVU327
 224:../../Middlewares/Third_Party/FreeRTOS/Source/event_groups.c ****                 {
 955              		.loc 1 224 19 is_stmt 0 view .LVU328
 956 0042 C7B9     		cbnz	r7, .L88
 243:../../Middlewares/Third_Party/FreeRTOS/Source/event_groups.c ****                     xTimeoutOccurred = pdTRUE;
 957              		.loc 1 243 21 is_stmt 1 view .LVU329
 243:../../Middlewares/Third_Party/FreeRTOS/Source/event_groups.c ****                     xTimeoutOccurred = pdTRUE;
 958              		.loc 1 243 30 is_stmt 0 view .LVU330
 959 0044 3568     		ldr	r5, [r6]
 960              	.LVL112:
 244:../../Middlewares/Third_Party/FreeRTOS/Source/event_groups.c ****                 }
 961              		.loc 1 244 21 is_stmt 1 view .LVU331
 962              	.L78:
 248:../../Middlewares/Third_Party/FreeRTOS/Source/event_groups.c **** 
 963              		.loc 1 248 9 view .LVU332
 248:../../Middlewares/Third_Party/FreeRTOS/Source/event_groups.c **** 
 964              		.loc 1 248 27 is_stmt 0 view .LVU333
 965 0046 FFF7FEFF 		bl	xTaskResumeAll
 966              	.LVL113:
 250:../../Middlewares/Third_Party/FreeRTOS/Source/event_groups.c ****         {
 967              		.loc 1 250 9 is_stmt 1 view .LVU334
 250:../../Middlewares/Third_Party/FreeRTOS/Source/event_groups.c ****         {
 968              		.loc 1 250 11 is_stmt 0 view .LVU335
 969 004a 47B1     		cbz	r7, .L70
 252:../../Middlewares/Third_Party/FreeRTOS/Source/event_groups.c ****             {
 970              		.loc 1 252 13 is_stmt 1 view .LVU336
 252:../../Middlewares/Third_Party/FreeRTOS/Source/event_groups.c ****             {
 971              		.loc 1 252 15 is_stmt 0 view .LVU337
 972 004c D8B1     		cbz	r0, .L89
 973              	.LVL114:
 974              	.L81:
 258:../../Middlewares/Third_Party/FreeRTOS/Source/event_groups.c ****             }
 975              		.loc 1 258 41 is_stmt 1 view .LVU338
 265:../../Middlewares/Third_Party/FreeRTOS/Source/event_groups.c **** 
 976              		.loc 1 265 13 view .LVU339
 265:../../Middlewares/Third_Party/FreeRTOS/Source/event_groups.c **** 
 977              		.loc 1 265 24 is_stmt 0 view .LVU340
 978 004e FFF7FEFF 		bl	uxTaskResetEventItemValue
 979              	.LVL115:
 980 0052 0546     		mov	r5, r0
 981              	.LVL116:
 267:../../Middlewares/Third_Party/FreeRTOS/Source/event_groups.c ****             {
 982              		.loc 1 267 13 is_stmt 1 view .LVU341
 267:../../Middlewares/Third_Party/FreeRTOS/Source/event_groups.c ****             {
 983              		.loc 1 267 15 is_stmt 0 view .LVU342
 984 0054 10F0007F 		tst	r0, #33554432
 985 0058 18D0     		beq	.L90
 986              	.LVL117:
ARM GAS  C:\Users\SMART\AppData\Local\Temp\ccUCLR5k.s 			page 38


 987              	.L82:
 294:../../Middlewares/Third_Party/FreeRTOS/Source/event_groups.c **** 
 988              		.loc 1 294 13 is_stmt 1 view .LVU343
 298:../../Middlewares/Third_Party/FreeRTOS/Source/event_groups.c ****         }
 989              		.loc 1 298 13 view .LVU344
 298:../../Middlewares/Third_Party/FreeRTOS/Source/event_groups.c ****         }
 990              		.loc 1 298 22 is_stmt 0 view .LVU345
 991 005a 25F07F45 		bic	r5, r5, #-16777216
 992              	.LVL118:
 301:../../Middlewares/Third_Party/FreeRTOS/Source/event_groups.c **** 
 993              		.loc 1 301 9 is_stmt 1 view .LVU346
 304:../../Middlewares/Third_Party/FreeRTOS/Source/event_groups.c **** 
 994              		.loc 1 304 9 view .LVU347
 306:../../Middlewares/Third_Party/FreeRTOS/Source/event_groups.c **** 
 995              		.loc 1 306 48 view .LVU348
 308:../../Middlewares/Third_Party/FreeRTOS/Source/event_groups.c ****     }
 996              		.loc 1 308 9 view .LVU349
 997              	.L70:
 309:../../Middlewares/Third_Party/FreeRTOS/Source/event_groups.c **** /*-----------------------------------------------------------*/
 998              		.loc 1 309 5 is_stmt 0 view .LVU350
 999 005e 2846     		mov	r0, r5
 1000 0060 BDE8F081 		pop	{r4, r5, r6, r7, r8, pc}
 1001              	.LVL119:
 1002              	.L86:
 201:../../Middlewares/Third_Party/FreeRTOS/Source/event_groups.c ****         }
 1003              		.loc 1 201 13 is_stmt 1 discriminator 7 view .LVU351
 1004 0064 FFF7FEFF 		bl	ulSetInterruptMask
 1005              	.LVL120:
 1006              	.L76:
 201:../../Middlewares/Third_Party/FreeRTOS/Source/event_groups.c ****         }
 1007              		.loc 1 201 13 discriminator 9 view .LVU352
 201:../../Middlewares/Third_Party/FreeRTOS/Source/event_groups.c ****         }
 1008              		.loc 1 201 13 discriminator 9 view .LVU353
 1009 0068 FEE7     		b	.L76
 1010              	.LVL121:
 1011              	.L87:
 214:../../Middlewares/Third_Party/FreeRTOS/Source/event_groups.c **** 
 1012              		.loc 1 214 17 view .LVU354
 218:../../Middlewares/Third_Party/FreeRTOS/Source/event_groups.c **** 
 1013              		.loc 1 218 17 view .LVU355
 218:../../Middlewares/Third_Party/FreeRTOS/Source/event_groups.c **** 
 1014              		.loc 1 218 28 is_stmt 0 view .LVU356
 1015 006a 3368     		ldr	r3, [r6]
 218:../../Middlewares/Third_Party/FreeRTOS/Source/event_groups.c **** 
 1016              		.loc 1 218 42 view .LVU357
 1017 006c 23EA0403 		bic	r3, r3, r4
 1018 0070 3360     		str	r3, [r6]
 220:../../Middlewares/Third_Party/FreeRTOS/Source/event_groups.c ****             }
 1019              		.loc 1 220 17 is_stmt 1 view .LVU358
 1020              	.LVL122:
 220:../../Middlewares/Third_Party/FreeRTOS/Source/event_groups.c ****             }
 1021              		.loc 1 220 30 is_stmt 0 view .LVU359
 1022 0072 0027     		movs	r7, #0
 1023 0074 E7E7     		b	.L78
 1024              	.LVL123:
 1025              	.L88:
 226:../../Middlewares/Third_Party/FreeRTOS/Source/event_groups.c **** 
ARM GAS  C:\Users\SMART\AppData\Local\Temp\ccUCLR5k.s 			page 39


 1026              		.loc 1 226 93 is_stmt 1 view .LVU360
 231:../../Middlewares/Third_Party/FreeRTOS/Source/event_groups.c **** 
 1027              		.loc 1 231 21 view .LVU361
 1028 0076 3A46     		mov	r2, r7
 1029 0078 44F0A061 		orr	r1, r4, #83886080
 1030 007c 301D     		adds	r0, r6, #4
 1031 007e FFF7FEFF 		bl	vTaskPlaceOnUnorderedEventList
 1032              	.LVL124:
 237:../../Middlewares/Third_Party/FreeRTOS/Source/event_groups.c ****                 }
 1033              		.loc 1 237 21 view .LVU362
 237:../../Middlewares/Third_Party/FreeRTOS/Source/event_groups.c ****                 }
 1034              		.loc 1 237 30 is_stmt 0 view .LVU363
 1035 0082 0025     		movs	r5, #0
 1036 0084 DFE7     		b	.L78
 1037              	.LVL125:
 1038              	.L89:
 254:../../Middlewares/Third_Party/FreeRTOS/Source/event_groups.c ****             }
 1039              		.loc 1 254 17 is_stmt 1 view .LVU364
 1040 0086 FFF7FEFF 		bl	vPortYield
 1041              	.LVL126:
 254:../../Middlewares/Third_Party/FreeRTOS/Source/event_groups.c ****             }
 1042              		.loc 1 254 17 is_stmt 0 view .LVU365
 1043 008a E0E7     		b	.L81
 1044              	.LVL127:
 1045              	.L90:
 270:../../Middlewares/Third_Party/FreeRTOS/Source/event_groups.c ****                 {
 1046              		.loc 1 270 17 is_stmt 1 view .LVU366
 1047 008c FFF7FEFF 		bl	vPortEnterCritical
 1048              	.LVL128:
 272:../../Middlewares/Third_Party/FreeRTOS/Source/event_groups.c **** 
 1049              		.loc 1 272 21 view .LVU367
 272:../../Middlewares/Third_Party/FreeRTOS/Source/event_groups.c **** 
 1050              		.loc 1 272 30 is_stmt 0 view .LVU368
 1051 0090 3568     		ldr	r5, [r6]
 1052              	.LVL129:
 278:../../Middlewares/Third_Party/FreeRTOS/Source/event_groups.c ****                     {
 1053              		.loc 1 278 21 is_stmt 1 view .LVU369
 278:../../Middlewares/Third_Party/FreeRTOS/Source/event_groups.c ****                     {
 1054              		.loc 1 278 23 is_stmt 0 view .LVU370
 1055 0092 34EA0503 		bics	r3, r4, r5
 1056 0096 02D0     		beq	.L91
 1057              	.LVL130:
 1058              	.L83:
 284:../../Middlewares/Third_Party/FreeRTOS/Source/event_groups.c ****                     }
 1059              		.loc 1 284 49 is_stmt 1 view .LVU371
 287:../../Middlewares/Third_Party/FreeRTOS/Source/event_groups.c **** 
 1060              		.loc 1 287 17 view .LVU372
 1061 0098 FFF7FEFF 		bl	vPortExitCritical
 1062              	.LVL131:
 289:../../Middlewares/Third_Party/FreeRTOS/Source/event_groups.c ****             }
 1063              		.loc 1 289 17 view .LVU373
 289:../../Middlewares/Third_Party/FreeRTOS/Source/event_groups.c ****             }
 1064              		.loc 1 289 17 is_stmt 0 view .LVU374
 1065 009c DDE7     		b	.L82
 1066              	.LVL132:
 1067              	.L91:
 280:../../Middlewares/Third_Party/FreeRTOS/Source/event_groups.c ****                     }
ARM GAS  C:\Users\SMART\AppData\Local\Temp\ccUCLR5k.s 			page 40


 1068              		.loc 1 280 25 is_stmt 1 view .LVU375
 280:../../Middlewares/Third_Party/FreeRTOS/Source/event_groups.c ****                     }
 1069              		.loc 1 280 50 is_stmt 0 view .LVU376
 1070 009e 25EA0404 		bic	r4, r5, r4
 1071              	.LVL133:
 280:../../Middlewares/Third_Party/FreeRTOS/Source/event_groups.c ****                     }
 1072              		.loc 1 280 50 view .LVU377
 1073 00a2 3460     		str	r4, [r6]
 1074 00a4 F8E7     		b	.L83
 1075              		.cfi_endproc
 1076              	.LFE2:
 1078              		.section	.text.vEventGroupSetBitsCallback,"ax",%progbits
 1079              		.align	1
 1080              		.global	vEventGroupSetBitsCallback
 1081              		.syntax unified
 1082              		.thumb
 1083              		.thumb_func
 1085              	vEventGroupSetBitsCallback:
 1086              	.LVL134:
 1087              	.LFB10:
 750:../../Middlewares/Third_Party/FreeRTOS/Source/event_groups.c ****         traceENTER_vEventGroupSetBitsCallback( pvEventGroup, ulBitsToSet );
 1088              		.loc 1 750 5 is_stmt 1 view -0
 1089              		.cfi_startproc
 1090              		@ args = 0, pretend = 0, frame = 0
 1091              		@ frame_needed = 0, uses_anonymous_args = 0
 750:../../Middlewares/Third_Party/FreeRTOS/Source/event_groups.c ****         traceENTER_vEventGroupSetBitsCallback( pvEventGroup, ulBitsToSet );
 1092              		.loc 1 750 5 is_stmt 0 view .LVU379
 1093 0000 08B5     		push	{r3, lr}
 1094              	.LCFI11:
 1095              		.cfi_def_cfa_offset 8
 1096              		.cfi_offset 3, -8
 1097              		.cfi_offset 14, -4
 751:../../Middlewares/Third_Party/FreeRTOS/Source/event_groups.c **** 
 1098              		.loc 1 751 75 is_stmt 1 view .LVU380
 756:../../Middlewares/Third_Party/FreeRTOS/Source/event_groups.c **** 
 1099              		.loc 1 756 9 view .LVU381
 756:../../Middlewares/Third_Party/FreeRTOS/Source/event_groups.c **** 
 1100              		.loc 1 756 18 is_stmt 0 view .LVU382
 1101 0002 FFF7FEFF 		bl	xEventGroupSetBits
 1102              	.LVL135:
 758:../../Middlewares/Third_Party/FreeRTOS/Source/event_groups.c ****     }
 1103              		.loc 1 758 49 is_stmt 1 view .LVU383
 759:../../Middlewares/Third_Party/FreeRTOS/Source/event_groups.c **** /*-----------------------------------------------------------*/
 1104              		.loc 1 759 5 is_stmt 0 view .LVU384
 1105 0006 08BD     		pop	{r3, pc}
 1106              		.cfi_endproc
 1107              	.LFE10:
 1109              		.section	.text.vEventGroupDelete,"ax",%progbits
 1110              		.align	1
 1111              		.global	vEventGroupDelete
 1112              		.syntax unified
 1113              		.thumb
 1114              		.thumb_func
 1116              	vEventGroupDelete:
 1117              	.LVL136:
 1118              	.LFB8:
 651:../../Middlewares/Third_Party/FreeRTOS/Source/event_groups.c ****         EventGroup_t * pxEventBits = xEventGroup;
ARM GAS  C:\Users\SMART\AppData\Local\Temp\ccUCLR5k.s 			page 41


 1119              		.loc 1 651 5 is_stmt 1 view -0
 1120              		.cfi_startproc
 1121              		@ args = 0, pretend = 0, frame = 0
 1122              		@ frame_needed = 0, uses_anonymous_args = 0
 651:../../Middlewares/Third_Party/FreeRTOS/Source/event_groups.c ****         EventGroup_t * pxEventBits = xEventGroup;
 1123              		.loc 1 651 5 is_stmt 0 view .LVU386
 1124 0000 10B5     		push	{r4, lr}
 1125              	.LCFI12:
 1126              		.cfi_def_cfa_offset 8
 1127              		.cfi_offset 4, -8
 1128              		.cfi_offset 14, -4
 652:../../Middlewares/Third_Party/FreeRTOS/Source/event_groups.c ****         const List_t * pxTasksWaitingForBits;
 1129              		.loc 1 652 9 is_stmt 1 view .LVU387
 1130              	.LVL137:
 653:../../Middlewares/Third_Party/FreeRTOS/Source/event_groups.c **** 
 1131              		.loc 1 653 9 view .LVU388
 655:../../Middlewares/Third_Party/FreeRTOS/Source/event_groups.c **** 
 1132              		.loc 1 655 52 view .LVU389
 657:../../Middlewares/Third_Party/FreeRTOS/Source/event_groups.c **** 
 1133              		.loc 1 657 9 view .LVU390
 1134 0002 70B1     		cbz	r0, .L103
 1135 0004 0446     		mov	r4, r0
 657:../../Middlewares/Third_Party/FreeRTOS/Source/event_groups.c **** 
 1136              		.loc 1 657 36 discriminator 2 view .LVU391
 659:../../Middlewares/Third_Party/FreeRTOS/Source/event_groups.c **** 
 1137              		.loc 1 659 9 view .LVU392
 1138              	.LVL138:
 661:../../Middlewares/Third_Party/FreeRTOS/Source/event_groups.c ****         {
 1139              		.loc 1 661 9 view .LVU393
 1140 0006 FFF7FEFF 		bl	vTaskSuspendAll
 1141              	.LVL139:
 663:../../Middlewares/Third_Party/FreeRTOS/Source/event_groups.c **** 
 1142              		.loc 1 663 51 view .LVU394
 665:../../Middlewares/Third_Party/FreeRTOS/Source/event_groups.c ****             {
 1143              		.loc 1 665 13 view .LVU395
 1144              	.L97:
 665:../../Middlewares/Third_Party/FreeRTOS/Source/event_groups.c ****             {
 1145              		.loc 1 665 69 view .LVU396
 665:../../Middlewares/Third_Party/FreeRTOS/Source/event_groups.c ****             {
 1146              		.loc 1 665 20 is_stmt 0 view .LVU397
 1147 000a 6368     		ldr	r3, [r4, #4]
 665:../../Middlewares/Third_Party/FreeRTOS/Source/event_groups.c ****             {
 1148              		.loc 1 665 69 view .LVU398
 1149 000c 7BB1     		cbz	r3, .L104
 669:../../Middlewares/Third_Party/FreeRTOS/Source/event_groups.c ****                 vTaskRemoveFromUnorderedEventList( pxTasksWaitingForBits->xListEnd.pxNext, eventUNB
 1150              		.loc 1 669 17 is_stmt 1 view .LVU399
 1151 000e 2069     		ldr	r0, [r4, #16]
 1152 0010 04F10C03 		add	r3, r4, #12
 1153 0014 9842     		cmp	r0, r3
 1154 0016 07D0     		beq	.L105
 669:../../Middlewares/Third_Party/FreeRTOS/Source/event_groups.c ****                 vTaskRemoveFromUnorderedEventList( pxTasksWaitingForBits->xListEnd.pxNext, eventUNB
 1155              		.loc 1 669 134 discriminator 2 view .LVU400
 670:../../Middlewares/Third_Party/FreeRTOS/Source/event_groups.c ****             }
 1156              		.loc 1 670 17 view .LVU401
 1157 0018 4FF00071 		mov	r1, #33554432
 1158 001c FFF7FEFF 		bl	vTaskRemoveFromUnorderedEventList
 1159              	.LVL140:
ARM GAS  C:\Users\SMART\AppData\Local\Temp\ccUCLR5k.s 			page 42


 1160 0020 F3E7     		b	.L97
 1161              	.LVL141:
 1162              	.L103:
 657:../../Middlewares/Third_Party/FreeRTOS/Source/event_groups.c **** 
 1163              		.loc 1 657 9 discriminator 1 view .LVU402
 1164 0022 FFF7FEFF 		bl	ulSetInterruptMask
 1165              	.LVL142:
 1166              	.L96:
 657:../../Middlewares/Third_Party/FreeRTOS/Source/event_groups.c **** 
 1167              		.loc 1 657 9 discriminator 3 view .LVU403
 657:../../Middlewares/Third_Party/FreeRTOS/Source/event_groups.c **** 
 1168              		.loc 1 657 9 discriminator 3 view .LVU404
 1169 0026 FEE7     		b	.L96
 1170              	.LVL143:
 1171              	.L105:
 669:../../Middlewares/Third_Party/FreeRTOS/Source/event_groups.c ****                 vTaskRemoveFromUnorderedEventList( pxTasksWaitingForBits->xListEnd.pxNext, eventUNB
 1172              		.loc 1 669 17 discriminator 1 view .LVU405
 1173 0028 FFF7FEFF 		bl	ulSetInterruptMask
 1174              	.LVL144:
 1175              	.L99:
 669:../../Middlewares/Third_Party/FreeRTOS/Source/event_groups.c ****                 vTaskRemoveFromUnorderedEventList( pxTasksWaitingForBits->xListEnd.pxNext, eventUNB
 1176              		.loc 1 669 17 discriminator 3 view .LVU406
 669:../../Middlewares/Third_Party/FreeRTOS/Source/event_groups.c ****                 vTaskRemoveFromUnorderedEventList( pxTasksWaitingForBits->xListEnd.pxNext, eventUNB
 1177              		.loc 1 669 17 discriminator 3 view .LVU407
 1178 002c FEE7     		b	.L99
 1179              	.L104:
 673:../../Middlewares/Third_Party/FreeRTOS/Source/event_groups.c **** 
 1180              		.loc 1 673 9 view .LVU408
 673:../../Middlewares/Third_Party/FreeRTOS/Source/event_groups.c **** 
 1181              		.loc 1 673 18 is_stmt 0 view .LVU409
 1182 002e FFF7FEFF 		bl	xTaskResumeAll
 1183              	.LVL145:
 685:../../Middlewares/Third_Party/FreeRTOS/Source/event_groups.c ****             {
 1184              		.loc 1 685 13 is_stmt 1 view .LVU410
 685:../../Middlewares/Third_Party/FreeRTOS/Source/event_groups.c ****             {
 1185              		.loc 1 685 28 is_stmt 0 view .LVU411
 1186 0032 237F     		ldrb	r3, [r4, #28]	@ zero_extendqisi2
 685:../../Middlewares/Third_Party/FreeRTOS/Source/event_groups.c ****             {
 1187              		.loc 1 685 15 view .LVU412
 1188 0034 03B1     		cbz	r3, .L106
 1189              	.L94:
 697:../../Middlewares/Third_Party/FreeRTOS/Source/event_groups.c **** /*-----------------------------------------------------------*/
 1190              		.loc 1 697 5 view .LVU413
 1191 0036 10BD     		pop	{r4, pc}
 1192              	.LVL146:
 1193              	.L106:
 687:../../Middlewares/Third_Party/FreeRTOS/Source/event_groups.c ****             }
 1194              		.loc 1 687 17 is_stmt 1 view .LVU414
 1195 0038 2046     		mov	r0, r4
 1196 003a FFF7FEFF 		bl	vPortFree
 1197              	.LVL147:
 691:../../Middlewares/Third_Party/FreeRTOS/Source/event_groups.c ****             }
 1198              		.loc 1 691 41 view .LVU415
 696:../../Middlewares/Third_Party/FreeRTOS/Source/event_groups.c ****     }
 1199              		.loc 1 696 40 view .LVU416
 697:../../Middlewares/Third_Party/FreeRTOS/Source/event_groups.c **** /*-----------------------------------------------------------*/
 1200              		.loc 1 697 5 is_stmt 0 view .LVU417
ARM GAS  C:\Users\SMART\AppData\Local\Temp\ccUCLR5k.s 			page 43


 1201 003e FAE7     		b	.L94
 1202              		.cfi_endproc
 1203              	.LFE8:
 1205              		.section	.text.xEventGroupGetStaticBuffer,"ax",%progbits
 1206              		.align	1
 1207              		.global	xEventGroupGetStaticBuffer
 1208              		.syntax unified
 1209              		.thumb
 1210              		.thumb_func
 1212              	xEventGroupGetStaticBuffer:
 1213              	.LVL148:
 1214              	.LFB9:
 703:../../Middlewares/Third_Party/FreeRTOS/Source/event_groups.c ****             BaseType_t xReturn;
 1215              		.loc 1 703 9 is_stmt 1 view -0
 1216              		.cfi_startproc
 1217              		@ args = 0, pretend = 0, frame = 0
 1218              		@ frame_needed = 0, uses_anonymous_args = 0
 703:../../Middlewares/Third_Party/FreeRTOS/Source/event_groups.c ****             BaseType_t xReturn;
 1219              		.loc 1 703 9 is_stmt 0 view .LVU419
 1220 0000 08B5     		push	{r3, lr}
 1221              	.LCFI13:
 1222              		.cfi_def_cfa_offset 8
 1223              		.cfi_offset 3, -8
 1224              		.cfi_offset 14, -4
 704:../../Middlewares/Third_Party/FreeRTOS/Source/event_groups.c ****             EventGroup_t * pxEventBits = xEventGroup;
 1225              		.loc 1 704 13 is_stmt 1 view .LVU420
 705:../../Middlewares/Third_Party/FreeRTOS/Source/event_groups.c **** 
 1226              		.loc 1 705 13 view .LVU421
 1227              	.LVL149:
 707:../../Middlewares/Third_Party/FreeRTOS/Source/event_groups.c **** 
 1228              		.loc 1 707 86 view .LVU422
 709:../../Middlewares/Third_Party/FreeRTOS/Source/event_groups.c ****             configASSERT( ppxEventGroupBuffer );
 1229              		.loc 1 709 13 view .LVU423
 1230 0002 28B1     		cbz	r0, .L115
 709:../../Middlewares/Third_Party/FreeRTOS/Source/event_groups.c ****             configASSERT( ppxEventGroupBuffer );
 1231              		.loc 1 709 40 discriminator 2 view .LVU424
 710:../../Middlewares/Third_Party/FreeRTOS/Source/event_groups.c **** 
 1232              		.loc 1 710 13 view .LVU425
 1233 0004 39B1     		cbz	r1, .L116
 710:../../Middlewares/Third_Party/FreeRTOS/Source/event_groups.c **** 
 1234              		.loc 1 710 48 discriminator 2 view .LVU426
 715:../../Middlewares/Third_Party/FreeRTOS/Source/event_groups.c ****                 {
 1235              		.loc 1 715 17 view .LVU427
 715:../../Middlewares/Third_Party/FreeRTOS/Source/event_groups.c ****                 {
 1236              		.loc 1 715 32 is_stmt 0 view .LVU428
 1237 0006 027F     		ldrb	r2, [r0, #28]	@ zero_extendqisi2
 715:../../Middlewares/Third_Party/FreeRTOS/Source/event_groups.c ****                 {
 1238              		.loc 1 715 19 view .LVU429
 1239 0008 012A     		cmp	r2, #1
 1240 000a 07D0     		beq	.L117
 725:../../Middlewares/Third_Party/FreeRTOS/Source/event_groups.c ****                 }
 1241              		.loc 1 725 29 view .LVU430
 1242 000c 0020     		movs	r0, #0
 1243              	.LVL150:
 739:../../Middlewares/Third_Party/FreeRTOS/Source/event_groups.c **** 
 1244              		.loc 1 739 62 is_stmt 1 view .LVU431
 741:../../Middlewares/Third_Party/FreeRTOS/Source/event_groups.c ****         }
ARM GAS  C:\Users\SMART\AppData\Local\Temp\ccUCLR5k.s 			page 44


 1245              		.loc 1 741 13 view .LVU432
 1246              	.L107:
 742:../../Middlewares/Third_Party/FreeRTOS/Source/event_groups.c ****     #endif /* configSUPPORT_STATIC_ALLOCATION */
 1247              		.loc 1 742 9 is_stmt 0 view .LVU433
 1248 000e 08BD     		pop	{r3, pc}
 1249              	.LVL151:
 1250              	.L115:
 709:../../Middlewares/Third_Party/FreeRTOS/Source/event_groups.c ****             configASSERT( ppxEventGroupBuffer );
 1251              		.loc 1 709 13 is_stmt 1 discriminator 1 view .LVU434
 1252 0010 FFF7FEFF 		bl	ulSetInterruptMask
 1253              	.LVL152:
 1254              	.L109:
 709:../../Middlewares/Third_Party/FreeRTOS/Source/event_groups.c ****             configASSERT( ppxEventGroupBuffer );
 1255              		.loc 1 709 13 discriminator 3 view .LVU435
 709:../../Middlewares/Third_Party/FreeRTOS/Source/event_groups.c ****             configASSERT( ppxEventGroupBuffer );
 1256              		.loc 1 709 13 discriminator 3 view .LVU436
 1257 0014 FEE7     		b	.L109
 1258              	.LVL153:
 1259              	.L116:
 710:../../Middlewares/Third_Party/FreeRTOS/Source/event_groups.c **** 
 1260              		.loc 1 710 13 discriminator 1 view .LVU437
 1261 0016 FFF7FEFF 		bl	ulSetInterruptMask
 1262              	.LVL154:
 1263              	.L111:
 710:../../Middlewares/Third_Party/FreeRTOS/Source/event_groups.c **** 
 1264              		.loc 1 710 13 discriminator 3 view .LVU438
 710:../../Middlewares/Third_Party/FreeRTOS/Source/event_groups.c **** 
 1265              		.loc 1 710 13 discriminator 3 view .LVU439
 1266 001a FEE7     		b	.L111
 1267              	.LVL155:
 1268              	.L117:
 720:../../Middlewares/Third_Party/FreeRTOS/Source/event_groups.c ****                     xReturn = pdTRUE;
 1269              		.loc 1 720 21 view .LVU440
 720:../../Middlewares/Third_Party/FreeRTOS/Source/event_groups.c ****                     xReturn = pdTRUE;
 1270              		.loc 1 720 42 is_stmt 0 view .LVU441
 1271 001c 0860     		str	r0, [r1]
 721:../../Middlewares/Third_Party/FreeRTOS/Source/event_groups.c ****                 }
 1272              		.loc 1 721 21 is_stmt 1 view .LVU442
 1273              	.LVL156:
 721:../../Middlewares/Third_Party/FreeRTOS/Source/event_groups.c ****                 }
 1274              		.loc 1 721 29 is_stmt 0 view .LVU443
 1275 001e 0120     		movs	r0, #1
 1276              	.LVL157:
 721:../../Middlewares/Third_Party/FreeRTOS/Source/event_groups.c ****                 }
 1277              		.loc 1 721 29 view .LVU444
 1278 0020 F5E7     		b	.L107
 1279              		.cfi_endproc
 1280              	.LFE9:
 1282              		.section	.text.xEventGroupSetBitsFromISR,"ax",%progbits
 1283              		.align	1
 1284              		.global	xEventGroupSetBitsFromISR
 1285              		.syntax unified
 1286              		.thumb
 1287              		.thumb_func
 1289              	xEventGroupSetBitsFromISR:
 1290              	.LVL158:
 1291              	.LFB13:
ARM GAS  C:\Users\SMART\AppData\Local\Temp\ccUCLR5k.s 			page 45


 813:../../Middlewares/Third_Party/FreeRTOS/Source/event_groups.c **** /*-----------------------------------------------------------*/
 814:../../Middlewares/Third_Party/FreeRTOS/Source/event_groups.c **** 
 815:../../Middlewares/Third_Party/FreeRTOS/Source/event_groups.c ****     #if ( ( configUSE_TRACE_FACILITY == 1 ) && ( INCLUDE_xTimerPendFunctionCall == 1 ) && ( configU
 816:../../Middlewares/Third_Party/FreeRTOS/Source/event_groups.c **** 
 817:../../Middlewares/Third_Party/FreeRTOS/Source/event_groups.c ****         BaseType_t xEventGroupSetBitsFromISR( EventGroupHandle_t xEventGroup,
 818:../../Middlewares/Third_Party/FreeRTOS/Source/event_groups.c ****                                               const EventBits_t uxBitsToSet,
 819:../../Middlewares/Third_Party/FreeRTOS/Source/event_groups.c ****                                               BaseType_t * pxHigherPriorityTaskWoken )
 820:../../Middlewares/Third_Party/FreeRTOS/Source/event_groups.c ****         {
 1292              		.loc 1 820 9 is_stmt 1 view -0
 1293              		.cfi_startproc
 1294              		@ args = 0, pretend = 0, frame = 0
 1295              		@ frame_needed = 0, uses_anonymous_args = 0
 1296              		.loc 1 820 9 is_stmt 0 view .LVU446
 1297 0000 08B5     		push	{r3, lr}
 1298              	.LCFI14:
 1299              		.cfi_def_cfa_offset 8
 1300              		.cfi_offset 3, -8
 1301              		.cfi_offset 14, -4
 1302 0002 1346     		mov	r3, r2
 821:../../Middlewares/Third_Party/FreeRTOS/Source/event_groups.c ****             BaseType_t xReturn;
 1303              		.loc 1 821 13 is_stmt 1 view .LVU447
 822:../../Middlewares/Third_Party/FreeRTOS/Source/event_groups.c **** 
 823:../../Middlewares/Third_Party/FreeRTOS/Source/event_groups.c ****             traceENTER_xEventGroupSetBitsFromISR( xEventGroup, uxBitsToSet, pxHigherPriorityTaskWok
 1304              		.loc 1 823 104 view .LVU448
 824:../../Middlewares/Third_Party/FreeRTOS/Source/event_groups.c **** 
 825:../../Middlewares/Third_Party/FreeRTOS/Source/event_groups.c ****             traceEVENT_GROUP_SET_BITS_FROM_ISR( xEventGroup, uxBitsToSet );
 1305              		.loc 1 825 75 view .LVU449
 826:../../Middlewares/Third_Party/FreeRTOS/Source/event_groups.c ****             xReturn = xTimerPendFunctionCallFromISR( vEventGroupSetBitsCallback, ( void * ) xEventG
 1306              		.loc 1 826 13 view .LVU450
 1307              		.loc 1 826 23 is_stmt 0 view .LVU451
 1308 0004 0A46     		mov	r2, r1
 1309              	.LVL159:
 1310              		.loc 1 826 23 view .LVU452
 1311 0006 0146     		mov	r1, r0
 1312              	.LVL160:
 1313              		.loc 1 826 23 view .LVU453
 1314 0008 0148     		ldr	r0, .L120
 1315              	.LVL161:
 1316              		.loc 1 826 23 view .LVU454
 1317 000a FFF7FEFF 		bl	xTimerPendFunctionCallFromISR
 1318              	.LVL162:
 827:../../Middlewares/Third_Party/FreeRTOS/Source/event_groups.c **** 
 828:../../Middlewares/Third_Party/FreeRTOS/Source/event_groups.c ****             traceRETURN_xEventGroupSetBitsFromISR( xReturn );
 1319              		.loc 1 828 61 is_stmt 1 view .LVU455
 829:../../Middlewares/Third_Party/FreeRTOS/Source/event_groups.c **** 
 830:../../Middlewares/Third_Party/FreeRTOS/Source/event_groups.c ****             return xReturn;
 1320              		.loc 1 830 13 view .LVU456
 831:../../Middlewares/Third_Party/FreeRTOS/Source/event_groups.c ****         }
 1321              		.loc 1 831 9 is_stmt 0 view .LVU457
 1322 000e 08BD     		pop	{r3, pc}
 1323              	.L121:
 1324              		.align	2
 1325              	.L120:
 1326 0010 00000000 		.word	vEventGroupSetBitsCallback
 1327              		.cfi_endproc
 1328              	.LFE13:
 1330              		.section	.text.uxEventGroupGetNumber,"ax",%progbits
ARM GAS  C:\Users\SMART\AppData\Local\Temp\ccUCLR5k.s 			page 46


 1331              		.align	1
 1332              		.global	uxEventGroupGetNumber
 1333              		.syntax unified
 1334              		.thumb
 1335              		.thumb_func
 1337              	uxEventGroupGetNumber:
 1338              	.LVL163:
 1339              	.LFB14:
 832:../../Middlewares/Third_Party/FreeRTOS/Source/event_groups.c **** 
 833:../../Middlewares/Third_Party/FreeRTOS/Source/event_groups.c ****     #endif /* if ( ( configUSE_TRACE_FACILITY == 1 ) && ( INCLUDE_xTimerPendFunctionCall == 1 ) && 
 834:../../Middlewares/Third_Party/FreeRTOS/Source/event_groups.c **** /*-----------------------------------------------------------*/
 835:../../Middlewares/Third_Party/FreeRTOS/Source/event_groups.c **** 
 836:../../Middlewares/Third_Party/FreeRTOS/Source/event_groups.c ****     #if ( configUSE_TRACE_FACILITY == 1 )
 837:../../Middlewares/Third_Party/FreeRTOS/Source/event_groups.c **** 
 838:../../Middlewares/Third_Party/FreeRTOS/Source/event_groups.c ****         UBaseType_t uxEventGroupGetNumber( void * xEventGroup )
 839:../../Middlewares/Third_Party/FreeRTOS/Source/event_groups.c ****         {
 1340              		.loc 1 839 9 is_stmt 1 view -0
 1341              		.cfi_startproc
 1342              		@ args = 0, pretend = 0, frame = 0
 1343              		@ frame_needed = 0, uses_anonymous_args = 0
 1344              		@ link register save eliminated.
 840:../../Middlewares/Third_Party/FreeRTOS/Source/event_groups.c ****             UBaseType_t xReturn;
 1345              		.loc 1 840 13 view .LVU459
 841:../../Middlewares/Third_Party/FreeRTOS/Source/event_groups.c **** 
 842:../../Middlewares/Third_Party/FreeRTOS/Source/event_groups.c ****             /* MISRA Ref 11.5.2 [Opaque pointer] */
 843:../../Middlewares/Third_Party/FreeRTOS/Source/event_groups.c ****             /* More details at: https://github.com/FreeRTOS/FreeRTOS-Kernel/blob/main/MISRA.md#rule
 844:../../Middlewares/Third_Party/FreeRTOS/Source/event_groups.c ****             /* coverity[misra_c_2012_rule_11_5_violation] */
 845:../../Middlewares/Third_Party/FreeRTOS/Source/event_groups.c ****             EventGroup_t const * pxEventBits = ( EventGroup_t * ) xEventGroup;
 1346              		.loc 1 845 13 view .LVU460
 846:../../Middlewares/Third_Party/FreeRTOS/Source/event_groups.c **** 
 847:../../Middlewares/Third_Party/FreeRTOS/Source/event_groups.c ****             traceENTER_uxEventGroupGetNumber( xEventGroup );
 1347              		.loc 1 847 60 view .LVU461
 848:../../Middlewares/Third_Party/FreeRTOS/Source/event_groups.c **** 
 849:../../Middlewares/Third_Party/FreeRTOS/Source/event_groups.c ****             if( xEventGroup == NULL )
 1348              		.loc 1 849 13 view .LVU462
 1349              		.loc 1 849 15 is_stmt 0 view .LVU463
 1350 0000 08B1     		cbz	r0, .L124
 850:../../Middlewares/Third_Party/FreeRTOS/Source/event_groups.c ****             {
 851:../../Middlewares/Third_Party/FreeRTOS/Source/event_groups.c ****                 xReturn = 0;
 852:../../Middlewares/Third_Party/FreeRTOS/Source/event_groups.c ****             }
 853:../../Middlewares/Third_Party/FreeRTOS/Source/event_groups.c ****             else
 854:../../Middlewares/Third_Party/FreeRTOS/Source/event_groups.c ****             {
 855:../../Middlewares/Third_Party/FreeRTOS/Source/event_groups.c ****                 xReturn = pxEventBits->uxEventGroupNumber;
 1351              		.loc 1 855 17 is_stmt 1 view .LVU464
 1352              		.loc 1 855 25 is_stmt 0 view .LVU465
 1353 0002 8069     		ldr	r0, [r0, #24]
 1354              	.LVL164:
 1355              		.loc 1 855 25 view .LVU466
 1356 0004 7047     		bx	lr
 1357              	.LVL165:
 1358              	.L124:
 851:../../Middlewares/Third_Party/FreeRTOS/Source/event_groups.c ****             }
 1359              		.loc 1 851 25 view .LVU467
 1360 0006 0020     		movs	r0, #0
 1361              	.LVL166:
 856:../../Middlewares/Third_Party/FreeRTOS/Source/event_groups.c ****             }
 857:../../Middlewares/Third_Party/FreeRTOS/Source/event_groups.c **** 
ARM GAS  C:\Users\SMART\AppData\Local\Temp\ccUCLR5k.s 			page 47


 858:../../Middlewares/Third_Party/FreeRTOS/Source/event_groups.c ****             traceRETURN_uxEventGroupGetNumber( xReturn );
 1362              		.loc 1 858 57 is_stmt 1 view .LVU468
 859:../../Middlewares/Third_Party/FreeRTOS/Source/event_groups.c **** 
 860:../../Middlewares/Third_Party/FreeRTOS/Source/event_groups.c ****             return xReturn;
 1363              		.loc 1 860 13 view .LVU469
 861:../../Middlewares/Third_Party/FreeRTOS/Source/event_groups.c ****         }
 1364              		.loc 1 861 9 is_stmt 0 view .LVU470
 1365 0008 7047     		bx	lr
 1366              		.cfi_endproc
 1367              	.LFE14:
 1369              		.section	.text.vEventGroupSetNumber,"ax",%progbits
 1370              		.align	1
 1371              		.global	vEventGroupSetNumber
 1372              		.syntax unified
 1373              		.thumb
 1374              		.thumb_func
 1376              	vEventGroupSetNumber:
 1377              	.LVL167:
 1378              	.LFB15:
 862:../../Middlewares/Third_Party/FreeRTOS/Source/event_groups.c **** 
 863:../../Middlewares/Third_Party/FreeRTOS/Source/event_groups.c ****     #endif /* configUSE_TRACE_FACILITY */
 864:../../Middlewares/Third_Party/FreeRTOS/Source/event_groups.c **** /*-----------------------------------------------------------*/
 865:../../Middlewares/Third_Party/FreeRTOS/Source/event_groups.c **** 
 866:../../Middlewares/Third_Party/FreeRTOS/Source/event_groups.c ****     #if ( configUSE_TRACE_FACILITY == 1 )
 867:../../Middlewares/Third_Party/FreeRTOS/Source/event_groups.c **** 
 868:../../Middlewares/Third_Party/FreeRTOS/Source/event_groups.c ****         void vEventGroupSetNumber( void * xEventGroup,
 869:../../Middlewares/Third_Party/FreeRTOS/Source/event_groups.c ****                                    UBaseType_t uxEventGroupNumber )
 870:../../Middlewares/Third_Party/FreeRTOS/Source/event_groups.c ****         {
 1379              		.loc 1 870 9 is_stmt 1 view -0
 1380              		.cfi_startproc
 1381              		@ args = 0, pretend = 0, frame = 0
 1382              		@ frame_needed = 0, uses_anonymous_args = 0
 1383              		@ link register save eliminated.
 871:../../Middlewares/Third_Party/FreeRTOS/Source/event_groups.c ****             traceENTER_vEventGroupSetNumber( xEventGroup, uxEventGroupNumber );
 1384              		.loc 1 871 79 view .LVU472
 872:../../Middlewares/Third_Party/FreeRTOS/Source/event_groups.c **** 
 873:../../Middlewares/Third_Party/FreeRTOS/Source/event_groups.c ****             /* MISRA Ref 11.5.2 [Opaque pointer] */
 874:../../Middlewares/Third_Party/FreeRTOS/Source/event_groups.c ****             /* More details at: https://github.com/FreeRTOS/FreeRTOS-Kernel/blob/main/MISRA.md#rule
 875:../../Middlewares/Third_Party/FreeRTOS/Source/event_groups.c ****             /* coverity[misra_c_2012_rule_11_5_violation] */
 876:../../Middlewares/Third_Party/FreeRTOS/Source/event_groups.c ****             ( ( EventGroup_t * ) xEventGroup )->uxEventGroupNumber = uxEventGroupNumber;
 1385              		.loc 1 876 13 view .LVU473
 1386              		.loc 1 876 68 is_stmt 0 view .LVU474
 1387 0000 8161     		str	r1, [r0, #24]
 877:../../Middlewares/Third_Party/FreeRTOS/Source/event_groups.c **** 
 878:../../Middlewares/Third_Party/FreeRTOS/Source/event_groups.c ****             traceRETURN_vEventGroupSetNumber();
 1388              		.loc 1 878 47 is_stmt 1 view .LVU475
 879:../../Middlewares/Third_Party/FreeRTOS/Source/event_groups.c ****         }
 1389              		.loc 1 879 9 is_stmt 0 view .LVU476
 1390 0002 7047     		bx	lr
 1391              		.cfi_endproc
 1392              	.LFE15:
 1394              		.text
 1395              	.Letext0:
 1396              		.file 2 "C:\\ST\\STM32CubeIDE_2.0.0\\STM32CubeIDE\\plugins\\com.st.stm32cube.ide.mcu.externaltools
 1397              		.file 3 "C:\\ST\\STM32CubeIDE_2.0.0\\STM32CubeIDE\\plugins\\com.st.stm32cube.ide.mcu.externaltools
 1398              		.file 4 "C:\\ST\\STM32CubeIDE_2.0.0\\STM32CubeIDE\\plugins\\com.st.stm32cube.ide.mcu.externaltools
 1399              		.file 5 "../../Middlewares/Third_Party/FreeRTOS/Source/portable/GCC/ARM_CM55_NTZ/non_secure/portma
ARM GAS  C:\Users\SMART\AppData\Local\Temp\ccUCLR5k.s 			page 48


 1400              		.file 6 "../../Middlewares/Third_Party/FreeRTOS/Source/include/FreeRTOS.h"
 1401              		.file 7 "../../Middlewares/Third_Party/FreeRTOS/Source/include/list.h"
 1402              		.file 8 "../../Middlewares/Third_Party/FreeRTOS/Source/include/timers.h"
 1403              		.file 9 "../../Middlewares/Third_Party/FreeRTOS/Source/include/event_groups.h"
 1404              		.file 10 "../../Middlewares/Third_Party/FreeRTOS/Source/include/portable.h"
 1405              		.file 11 "../../Middlewares/Third_Party/FreeRTOS/Source/include/task.h"
ARM GAS  C:\Users\SMART\AppData\Local\Temp\ccUCLR5k.s 			page 49


DEFINED SYMBOLS
                            *ABS*:00000000 event_groups.c
C:\Users\SMART\AppData\Local\Temp\ccUCLR5k.s:26     .text.prvTestWaitCondition:00000000 $t
C:\Users\SMART\AppData\Local\Temp\ccUCLR5k.s:31     .text.prvTestWaitCondition:00000000 prvTestWaitCondition
C:\Users\SMART\AppData\Local\Temp\ccUCLR5k.s:85     .text.xEventGroupCreateStatic:00000000 $t
C:\Users\SMART\AppData\Local\Temp\ccUCLR5k.s:91     .text.xEventGroupCreateStatic:00000000 xEventGroupCreateStatic
C:\Users\SMART\AppData\Local\Temp\ccUCLR5k.s:175    .text.xEventGroupCreate:00000000 $t
C:\Users\SMART\AppData\Local\Temp\ccUCLR5k.s:181    .text.xEventGroupCreate:00000000 xEventGroupCreate
C:\Users\SMART\AppData\Local\Temp\ccUCLR5k.s:229    .text.xEventGroupWaitBits:00000000 $t
C:\Users\SMART\AppData\Local\Temp\ccUCLR5k.s:235    .text.xEventGroupWaitBits:00000000 xEventGroupWaitBits
C:\Users\SMART\AppData\Local\Temp\ccUCLR5k.s:494    .text.xEventGroupClearBits:00000000 $t
C:\Users\SMART\AppData\Local\Temp\ccUCLR5k.s:500    .text.xEventGroupClearBits:00000000 xEventGroupClearBits
C:\Users\SMART\AppData\Local\Temp\ccUCLR5k.s:573    .text.vEventGroupClearBitsCallback:00000000 $t
C:\Users\SMART\AppData\Local\Temp\ccUCLR5k.s:579    .text.vEventGroupClearBitsCallback:00000000 vEventGroupClearBitsCallback
C:\Users\SMART\AppData\Local\Temp\ccUCLR5k.s:604    .text.xEventGroupClearBitsFromISR:00000000 $t
C:\Users\SMART\AppData\Local\Temp\ccUCLR5k.s:610    .text.xEventGroupClearBitsFromISR:00000000 xEventGroupClearBitsFromISR
C:\Users\SMART\AppData\Local\Temp\ccUCLR5k.s:645    .text.xEventGroupClearBitsFromISR:00000010 $d
C:\Users\SMART\AppData\Local\Temp\ccUCLR5k.s:650    .text.xEventGroupGetBitsFromISR:00000000 $t
C:\Users\SMART\AppData\Local\Temp\ccUCLR5k.s:656    .text.xEventGroupGetBitsFromISR:00000000 xEventGroupGetBitsFromISR
C:\Users\SMART\AppData\Local\Temp\ccUCLR5k.s:696    .text.xEventGroupSetBits:00000000 $t
C:\Users\SMART\AppData\Local\Temp\ccUCLR5k.s:702    .text.xEventGroupSetBits:00000000 xEventGroupSetBits
C:\Users\SMART\AppData\Local\Temp\ccUCLR5k.s:867    .text.xEventGroupSync:00000000 $t
C:\Users\SMART\AppData\Local\Temp\ccUCLR5k.s:873    .text.xEventGroupSync:00000000 xEventGroupSync
C:\Users\SMART\AppData\Local\Temp\ccUCLR5k.s:1079   .text.vEventGroupSetBitsCallback:00000000 $t
C:\Users\SMART\AppData\Local\Temp\ccUCLR5k.s:1085   .text.vEventGroupSetBitsCallback:00000000 vEventGroupSetBitsCallback
C:\Users\SMART\AppData\Local\Temp\ccUCLR5k.s:1110   .text.vEventGroupDelete:00000000 $t
C:\Users\SMART\AppData\Local\Temp\ccUCLR5k.s:1116   .text.vEventGroupDelete:00000000 vEventGroupDelete
C:\Users\SMART\AppData\Local\Temp\ccUCLR5k.s:1206   .text.xEventGroupGetStaticBuffer:00000000 $t
C:\Users\SMART\AppData\Local\Temp\ccUCLR5k.s:1212   .text.xEventGroupGetStaticBuffer:00000000 xEventGroupGetStaticBuffer
C:\Users\SMART\AppData\Local\Temp\ccUCLR5k.s:1283   .text.xEventGroupSetBitsFromISR:00000000 $t
C:\Users\SMART\AppData\Local\Temp\ccUCLR5k.s:1289   .text.xEventGroupSetBitsFromISR:00000000 xEventGroupSetBitsFromISR
C:\Users\SMART\AppData\Local\Temp\ccUCLR5k.s:1326   .text.xEventGroupSetBitsFromISR:00000010 $d
C:\Users\SMART\AppData\Local\Temp\ccUCLR5k.s:1331   .text.uxEventGroupGetNumber:00000000 $t
C:\Users\SMART\AppData\Local\Temp\ccUCLR5k.s:1337   .text.uxEventGroupGetNumber:00000000 uxEventGroupGetNumber
C:\Users\SMART\AppData\Local\Temp\ccUCLR5k.s:1370   .text.vEventGroupSetNumber:00000000 $t
C:\Users\SMART\AppData\Local\Temp\ccUCLR5k.s:1376   .text.vEventGroupSetNumber:00000000 vEventGroupSetNumber

UNDEFINED SYMBOLS
ulSetInterruptMask
vListInitialise
pvPortMalloc
xTaskGetSchedulerState
vTaskSuspendAll
xTaskResumeAll
uxTaskResetEventItemValue
vTaskPlaceOnUnorderedEventList
vPortYield
vPortEnterCritical
vPortExitCritical
xTimerPendFunctionCallFromISR
vClearInterruptMask
vTaskRemoveFromUnorderedEventList
vPortFree
