ARM GAS  C:\Users\SMART\AppData\Local\Temp\ccSnXaeH.s 			page 1


   1              		.arch armv8.1-m.main
   2              		.fpu fpv5-d16
   3              		.arch_extension dsp
   4              		.arch_extension fp
   5              		.arch_extension fp.dp
   6              		.arch_extension mve
   7              		.arch_extension mve.fp
   8              		.eabi_attribute 5, "cortex-m55"
   9              		.eabi_attribute 28, 1
  10              		.eabi_attribute 20, 1
  11              		.eabi_attribute 21, 1
  12              		.eabi_attribute 23, 3
  13              		.eabi_attribute 24, 1
  14              		.eabi_attribute 25, 1
  15              		.eabi_attribute 26, 1
  16              		.eabi_attribute 30, 1
  17              		.eabi_attribute 34, 1
  18              		.eabi_attribute 38, 1
  19              		.eabi_attribute 18, 4
  20              		.file	"list.c"
  21              		.text
  22              	.Ltext0:
  23              		.cfi_sections	.debug_frame
  24              		.file 1 "../../Middlewares/Third_Party/FreeRTOS/Source/list.c"
  25              		.section	.text.vListInitialise,"ax",%progbits
  26              		.align	1
  27              		.global	vListInitialise
  28              		.syntax unified
  29              		.thumb
  30              		.thumb_func
  32              	vListInitialise:
  33              	.LVL0:
  34              	.LFB0:
   1:../../Middlewares/Third_Party/FreeRTOS/Source/list.c **** /*
   2:../../Middlewares/Third_Party/FreeRTOS/Source/list.c ****  * FreeRTOS Kernel V11.2.0
   3:../../Middlewares/Third_Party/FreeRTOS/Source/list.c ****  * Copyright (C) 2021 Amazon.com, Inc. or its affiliates. All Rights Reserved.
   4:../../Middlewares/Third_Party/FreeRTOS/Source/list.c ****  *
   5:../../Middlewares/Third_Party/FreeRTOS/Source/list.c ****  * SPDX-License-Identifier: MIT
   6:../../Middlewares/Third_Party/FreeRTOS/Source/list.c ****  *
   7:../../Middlewares/Third_Party/FreeRTOS/Source/list.c ****  * Permission is hereby granted, free of charge, to any person obtaining a copy of
   8:../../Middlewares/Third_Party/FreeRTOS/Source/list.c ****  * this software and associated documentation files (the "Software"), to deal in
   9:../../Middlewares/Third_Party/FreeRTOS/Source/list.c ****  * the Software without restriction, including without limitation the rights to
  10:../../Middlewares/Third_Party/FreeRTOS/Source/list.c ****  * use, copy, modify, merge, publish, distribute, sublicense, and/or sell copies of
  11:../../Middlewares/Third_Party/FreeRTOS/Source/list.c ****  * the Software, and to permit persons to whom the Software is furnished to do so,
  12:../../Middlewares/Third_Party/FreeRTOS/Source/list.c ****  * subject to the following conditions:
  13:../../Middlewares/Third_Party/FreeRTOS/Source/list.c ****  *
  14:../../Middlewares/Third_Party/FreeRTOS/Source/list.c ****  * The above copyright notice and this permission notice shall be included in all
  15:../../Middlewares/Third_Party/FreeRTOS/Source/list.c ****  * copies or substantial portions of the Software.
  16:../../Middlewares/Third_Party/FreeRTOS/Source/list.c ****  *
  17:../../Middlewares/Third_Party/FreeRTOS/Source/list.c ****  * THE SOFTWARE IS PROVIDED "AS IS", WITHOUT WARRANTY OF ANY KIND, EXPRESS OR
  18:../../Middlewares/Third_Party/FreeRTOS/Source/list.c ****  * IMPLIED, INCLUDING BUT NOT LIMITED TO THE WARRANTIES OF MERCHANTABILITY, FITNESS
  19:../../Middlewares/Third_Party/FreeRTOS/Source/list.c ****  * FOR A PARTICULAR PURPOSE AND NONINFRINGEMENT. IN NO EVENT SHALL THE AUTHORS OR
  20:../../Middlewares/Third_Party/FreeRTOS/Source/list.c ****  * COPYRIGHT HOLDERS BE LIABLE FOR ANY CLAIM, DAMAGES OR OTHER LIABILITY, WHETHER
  21:../../Middlewares/Third_Party/FreeRTOS/Source/list.c ****  * IN AN ACTION OF CONTRACT, TORT OR OTHERWISE, ARISING FROM, OUT OF OR IN
  22:../../Middlewares/Third_Party/FreeRTOS/Source/list.c ****  * CONNECTION WITH THE SOFTWARE OR THE USE OR OTHER DEALINGS IN THE SOFTWARE.
  23:../../Middlewares/Third_Party/FreeRTOS/Source/list.c ****  *
  24:../../Middlewares/Third_Party/FreeRTOS/Source/list.c ****  * https://www.FreeRTOS.org
ARM GAS  C:\Users\SMART\AppData\Local\Temp\ccSnXaeH.s 			page 2


  25:../../Middlewares/Third_Party/FreeRTOS/Source/list.c ****  * https://github.com/FreeRTOS
  26:../../Middlewares/Third_Party/FreeRTOS/Source/list.c ****  *
  27:../../Middlewares/Third_Party/FreeRTOS/Source/list.c ****  */
  28:../../Middlewares/Third_Party/FreeRTOS/Source/list.c **** 
  29:../../Middlewares/Third_Party/FreeRTOS/Source/list.c **** 
  30:../../Middlewares/Third_Party/FreeRTOS/Source/list.c **** #include <stdlib.h>
  31:../../Middlewares/Third_Party/FreeRTOS/Source/list.c **** 
  32:../../Middlewares/Third_Party/FreeRTOS/Source/list.c **** /* Defining MPU_WRAPPERS_INCLUDED_FROM_API_FILE prevents task.h from redefining
  33:../../Middlewares/Third_Party/FreeRTOS/Source/list.c ****  * all the API functions to use the MPU wrappers.  That should only be done when
  34:../../Middlewares/Third_Party/FreeRTOS/Source/list.c ****  * task.h is included from an application file. */
  35:../../Middlewares/Third_Party/FreeRTOS/Source/list.c **** #define MPU_WRAPPERS_INCLUDED_FROM_API_FILE
  36:../../Middlewares/Third_Party/FreeRTOS/Source/list.c **** 
  37:../../Middlewares/Third_Party/FreeRTOS/Source/list.c **** #include "FreeRTOS.h"
  38:../../Middlewares/Third_Party/FreeRTOS/Source/list.c **** #include "list.h"
  39:../../Middlewares/Third_Party/FreeRTOS/Source/list.c **** 
  40:../../Middlewares/Third_Party/FreeRTOS/Source/list.c **** /* The MPU ports require MPU_WRAPPERS_INCLUDED_FROM_API_FILE to be
  41:../../Middlewares/Third_Party/FreeRTOS/Source/list.c ****  * defined for the header files above, but not in this file, in order to
  42:../../Middlewares/Third_Party/FreeRTOS/Source/list.c ****  * generate the correct privileged Vs unprivileged linkage and placement. */
  43:../../Middlewares/Third_Party/FreeRTOS/Source/list.c **** #undef MPU_WRAPPERS_INCLUDED_FROM_API_FILE
  44:../../Middlewares/Third_Party/FreeRTOS/Source/list.c **** 
  45:../../Middlewares/Third_Party/FreeRTOS/Source/list.c **** /*-----------------------------------------------------------
  46:../../Middlewares/Third_Party/FreeRTOS/Source/list.c **** * PUBLIC LIST API documented in list.h
  47:../../Middlewares/Third_Party/FreeRTOS/Source/list.c **** *----------------------------------------------------------*/
  48:../../Middlewares/Third_Party/FreeRTOS/Source/list.c **** 
  49:../../Middlewares/Third_Party/FreeRTOS/Source/list.c **** void vListInitialise( List_t * const pxList )
  50:../../Middlewares/Third_Party/FreeRTOS/Source/list.c **** {
  35              		.loc 1 50 1 view -0
  36              		.cfi_startproc
  37              		@ args = 0, pretend = 0, frame = 0
  38              		@ frame_needed = 0, uses_anonymous_args = 0
  39              		@ link register save eliminated.
  51:../../Middlewares/Third_Party/FreeRTOS/Source/list.c ****     traceENTER_vListInitialise( pxList );
  40              		.loc 1 51 41 view .LVU1
  52:../../Middlewares/Third_Party/FreeRTOS/Source/list.c **** 
  53:../../Middlewares/Third_Party/FreeRTOS/Source/list.c ****     /* The list structure contains a list item which is used to mark the
  54:../../Middlewares/Third_Party/FreeRTOS/Source/list.c ****      * end of the list.  To initialise the list the list end is inserted
  55:../../Middlewares/Third_Party/FreeRTOS/Source/list.c ****      * as the only list entry. */
  56:../../Middlewares/Third_Party/FreeRTOS/Source/list.c ****     pxList->pxIndex = ( ListItem_t * ) &( pxList->xListEnd );
  41              		.loc 1 56 5 view .LVU2
  42              		.loc 1 56 40 is_stmt 0 view .LVU3
  43 0000 00F10803 		add	r3, r0, #8
  44              		.loc 1 56 21 view .LVU4
  45 0004 4360     		str	r3, [r0, #4]
  57:../../Middlewares/Third_Party/FreeRTOS/Source/list.c **** 
  58:../../Middlewares/Third_Party/FreeRTOS/Source/list.c ****     listSET_FIRST_LIST_ITEM_INTEGRITY_CHECK_VALUE( &( pxList->xListEnd ) );
  46              		.loc 1 58 75 is_stmt 1 view .LVU5
  59:../../Middlewares/Third_Party/FreeRTOS/Source/list.c **** 
  60:../../Middlewares/Third_Party/FreeRTOS/Source/list.c ****     /* The list end value is the highest possible value in the list to
  61:../../Middlewares/Third_Party/FreeRTOS/Source/list.c ****      * ensure it remains at the end of the list. */
  62:../../Middlewares/Third_Party/FreeRTOS/Source/list.c ****     pxList->xListEnd.xItemValue = portMAX_DELAY;
  47              		.loc 1 62 5 view .LVU6
  48              		.loc 1 62 33 is_stmt 0 view .LVU7
  49 0006 4FF0FF32 		mov	r2, #-1
  50 000a 8260     		str	r2, [r0, #8]
  63:../../Middlewares/Third_Party/FreeRTOS/Source/list.c **** 
  64:../../Middlewares/Third_Party/FreeRTOS/Source/list.c ****     /* The list end next and previous pointers point to itself so we know
  65:../../Middlewares/Third_Party/FreeRTOS/Source/list.c ****      * when the list is empty. */
ARM GAS  C:\Users\SMART\AppData\Local\Temp\ccSnXaeH.s 			page 3


  66:../../Middlewares/Third_Party/FreeRTOS/Source/list.c ****     pxList->xListEnd.pxNext = ( ListItem_t * ) &( pxList->xListEnd );
  51              		.loc 1 66 5 is_stmt 1 view .LVU8
  52              		.loc 1 66 29 is_stmt 0 view .LVU9
  53 000c C360     		str	r3, [r0, #12]
  67:../../Middlewares/Third_Party/FreeRTOS/Source/list.c ****     pxList->xListEnd.pxPrevious = ( ListItem_t * ) &( pxList->xListEnd );
  54              		.loc 1 67 5 is_stmt 1 view .LVU10
  55              		.loc 1 67 33 is_stmt 0 view .LVU11
  56 000e 0361     		str	r3, [r0, #16]
  68:../../Middlewares/Third_Party/FreeRTOS/Source/list.c **** 
  69:../../Middlewares/Third_Party/FreeRTOS/Source/list.c ****     /* Initialize the remaining fields of xListEnd when it is a proper ListItem_t */
  70:../../Middlewares/Third_Party/FreeRTOS/Source/list.c ****     #if ( configUSE_MINI_LIST_ITEM == 0 )
  71:../../Middlewares/Third_Party/FreeRTOS/Source/list.c ****     {
  72:../../Middlewares/Third_Party/FreeRTOS/Source/list.c ****         pxList->xListEnd.pvOwner = NULL;
  73:../../Middlewares/Third_Party/FreeRTOS/Source/list.c ****         pxList->xListEnd.pxContainer = NULL;
  74:../../Middlewares/Third_Party/FreeRTOS/Source/list.c ****         listSET_SECOND_LIST_ITEM_INTEGRITY_CHECK_VALUE( &( pxList->xListEnd ) );
  75:../../Middlewares/Third_Party/FreeRTOS/Source/list.c ****     }
  76:../../Middlewares/Third_Party/FreeRTOS/Source/list.c ****     #endif
  77:../../Middlewares/Third_Party/FreeRTOS/Source/list.c **** 
  78:../../Middlewares/Third_Party/FreeRTOS/Source/list.c ****     pxList->uxNumberOfItems = ( UBaseType_t ) 0U;
  57              		.loc 1 78 5 is_stmt 1 view .LVU12
  58              		.loc 1 78 29 is_stmt 0 view .LVU13
  59 0010 0023     		movs	r3, #0
  60 0012 0360     		str	r3, [r0]
  79:../../Middlewares/Third_Party/FreeRTOS/Source/list.c **** 
  80:../../Middlewares/Third_Party/FreeRTOS/Source/list.c ****     /* Write known values into the list if
  81:../../Middlewares/Third_Party/FreeRTOS/Source/list.c ****      * configUSE_LIST_DATA_INTEGRITY_CHECK_BYTES is set to 1. */
  82:../../Middlewares/Third_Party/FreeRTOS/Source/list.c ****     listSET_LIST_INTEGRITY_CHECK_1_VALUE( pxList );
  61              		.loc 1 82 51 is_stmt 1 view .LVU14
  83:../../Middlewares/Third_Party/FreeRTOS/Source/list.c ****     listSET_LIST_INTEGRITY_CHECK_2_VALUE( pxList );
  62              		.loc 1 83 51 view .LVU15
  84:../../Middlewares/Third_Party/FreeRTOS/Source/list.c **** 
  85:../../Middlewares/Third_Party/FreeRTOS/Source/list.c ****     traceRETURN_vListInitialise();
  63              		.loc 1 85 34 view .LVU16
  86:../../Middlewares/Third_Party/FreeRTOS/Source/list.c **** }
  64              		.loc 1 86 1 is_stmt 0 view .LVU17
  65 0014 7047     		bx	lr
  66              		.cfi_endproc
  67              	.LFE0:
  69              		.section	.text.vListInitialiseItem,"ax",%progbits
  70              		.align	1
  71              		.global	vListInitialiseItem
  72              		.syntax unified
  73              		.thumb
  74              		.thumb_func
  76              	vListInitialiseItem:
  77              	.LVL1:
  78              	.LFB1:
  87:../../Middlewares/Third_Party/FreeRTOS/Source/list.c **** /*-----------------------------------------------------------*/
  88:../../Middlewares/Third_Party/FreeRTOS/Source/list.c **** 
  89:../../Middlewares/Third_Party/FreeRTOS/Source/list.c **** void vListInitialiseItem( ListItem_t * const pxItem )
  90:../../Middlewares/Third_Party/FreeRTOS/Source/list.c **** {
  79              		.loc 1 90 1 is_stmt 1 view -0
  80              		.cfi_startproc
  81              		@ args = 0, pretend = 0, frame = 0
  82              		@ frame_needed = 0, uses_anonymous_args = 0
  83              		@ link register save eliminated.
  91:../../Middlewares/Third_Party/FreeRTOS/Source/list.c ****     traceENTER_vListInitialiseItem( pxItem );
ARM GAS  C:\Users\SMART\AppData\Local\Temp\ccSnXaeH.s 			page 4


  84              		.loc 1 91 45 view .LVU19
  92:../../Middlewares/Third_Party/FreeRTOS/Source/list.c **** 
  93:../../Middlewares/Third_Party/FreeRTOS/Source/list.c ****     /* Make sure the list item is not recorded as being on a list. */
  94:../../Middlewares/Third_Party/FreeRTOS/Source/list.c ****     pxItem->pxContainer = NULL;
  85              		.loc 1 94 5 view .LVU20
  86              		.loc 1 94 25 is_stmt 0 view .LVU21
  87 0000 0023     		movs	r3, #0
  88 0002 0361     		str	r3, [r0, #16]
  95:../../Middlewares/Third_Party/FreeRTOS/Source/list.c **** 
  96:../../Middlewares/Third_Party/FreeRTOS/Source/list.c ****     /* Write known values into the list item if
  97:../../Middlewares/Third_Party/FreeRTOS/Source/list.c ****      * configUSE_LIST_DATA_INTEGRITY_CHECK_BYTES is set to 1. */
  98:../../Middlewares/Third_Party/FreeRTOS/Source/list.c ****     listSET_FIRST_LIST_ITEM_INTEGRITY_CHECK_VALUE( pxItem );
  89              		.loc 1 98 60 is_stmt 1 view .LVU22
  99:../../Middlewares/Third_Party/FreeRTOS/Source/list.c ****     listSET_SECOND_LIST_ITEM_INTEGRITY_CHECK_VALUE( pxItem );
  90              		.loc 1 99 61 view .LVU23
 100:../../Middlewares/Third_Party/FreeRTOS/Source/list.c **** 
 101:../../Middlewares/Third_Party/FreeRTOS/Source/list.c ****     traceRETURN_vListInitialiseItem();
  91              		.loc 1 101 38 view .LVU24
 102:../../Middlewares/Third_Party/FreeRTOS/Source/list.c **** }
  92              		.loc 1 102 1 is_stmt 0 view .LVU25
  93 0004 7047     		bx	lr
  94              		.cfi_endproc
  95              	.LFE1:
  97              		.section	.text.vListInsertEnd,"ax",%progbits
  98              		.align	1
  99              		.global	vListInsertEnd
 100              		.syntax unified
 101              		.thumb
 102              		.thumb_func
 104              	vListInsertEnd:
 105              	.LVL2:
 106              	.LFB2:
 103:../../Middlewares/Third_Party/FreeRTOS/Source/list.c **** /*-----------------------------------------------------------*/
 104:../../Middlewares/Third_Party/FreeRTOS/Source/list.c **** 
 105:../../Middlewares/Third_Party/FreeRTOS/Source/list.c **** void vListInsertEnd( List_t * const pxList,
 106:../../Middlewares/Third_Party/FreeRTOS/Source/list.c ****                      ListItem_t * const pxNewListItem )
 107:../../Middlewares/Third_Party/FreeRTOS/Source/list.c **** {
 107              		.loc 1 107 1 is_stmt 1 view -0
 108              		.cfi_startproc
 109              		@ args = 0, pretend = 0, frame = 0
 110              		@ frame_needed = 0, uses_anonymous_args = 0
 111              		@ link register save eliminated.
 108:../../Middlewares/Third_Party/FreeRTOS/Source/list.c ****     ListItem_t * const pxIndex = pxList->pxIndex;
 112              		.loc 1 108 5 view .LVU27
 113              		.loc 1 108 24 is_stmt 0 view .LVU28
 114 0000 4368     		ldr	r3, [r0, #4]
 115              	.LVL3:
 109:../../Middlewares/Third_Party/FreeRTOS/Source/list.c **** 
 110:../../Middlewares/Third_Party/FreeRTOS/Source/list.c ****     traceENTER_vListInsertEnd( pxList, pxNewListItem );
 116              		.loc 1 110 55 is_stmt 1 view .LVU29
 111:../../Middlewares/Third_Party/FreeRTOS/Source/list.c **** 
 112:../../Middlewares/Third_Party/FreeRTOS/Source/list.c ****     /* Only effective when configASSERT() is also defined, these tests may catch
 113:../../Middlewares/Third_Party/FreeRTOS/Source/list.c ****      * the list data structures being overwritten in memory.  They will not catch
 114:../../Middlewares/Third_Party/FreeRTOS/Source/list.c ****      * data errors caused by incorrect configuration or use of FreeRTOS. */
 115:../../Middlewares/Third_Party/FreeRTOS/Source/list.c ****     listTEST_LIST_INTEGRITY( pxList );
 117              		.loc 1 115 38 view .LVU30
 116:../../Middlewares/Third_Party/FreeRTOS/Source/list.c ****     listTEST_LIST_ITEM_INTEGRITY( pxNewListItem );
ARM GAS  C:\Users\SMART\AppData\Local\Temp\ccSnXaeH.s 			page 5


 118              		.loc 1 116 50 view .LVU31
 117:../../Middlewares/Third_Party/FreeRTOS/Source/list.c **** 
 118:../../Middlewares/Third_Party/FreeRTOS/Source/list.c ****     /* Insert a new list item into pxList, but rather than sort the list,
 119:../../Middlewares/Third_Party/FreeRTOS/Source/list.c ****      * makes the new list item the last item to be removed by a call to
 120:../../Middlewares/Third_Party/FreeRTOS/Source/list.c ****      * listGET_OWNER_OF_NEXT_ENTRY(). */
 121:../../Middlewares/Third_Party/FreeRTOS/Source/list.c ****     pxNewListItem->pxNext = pxIndex;
 119              		.loc 1 121 5 view .LVU32
 120              		.loc 1 121 27 is_stmt 0 view .LVU33
 121 0002 4B60     		str	r3, [r1, #4]
 122:../../Middlewares/Third_Party/FreeRTOS/Source/list.c ****     pxNewListItem->pxPrevious = pxIndex->pxPrevious;
 122              		.loc 1 122 5 is_stmt 1 view .LVU34
 123              		.loc 1 122 40 is_stmt 0 view .LVU35
 124 0004 9A68     		ldr	r2, [r3, #8]
 125              		.loc 1 122 31 view .LVU36
 126 0006 8A60     		str	r2, [r1, #8]
 123:../../Middlewares/Third_Party/FreeRTOS/Source/list.c **** 
 124:../../Middlewares/Third_Party/FreeRTOS/Source/list.c ****     /* Only used during decision coverage testing. */
 125:../../Middlewares/Third_Party/FreeRTOS/Source/list.c ****     mtCOVERAGE_TEST_DELAY();
 127              		.loc 1 125 28 is_stmt 1 view .LVU37
 126:../../Middlewares/Third_Party/FreeRTOS/Source/list.c **** 
 127:../../Middlewares/Third_Party/FreeRTOS/Source/list.c ****     pxIndex->pxPrevious->pxNext = pxNewListItem;
 128              		.loc 1 127 5 view .LVU38
 129              		.loc 1 127 33 is_stmt 0 view .LVU39
 130 0008 5160     		str	r1, [r2, #4]
 128:../../Middlewares/Third_Party/FreeRTOS/Source/list.c ****     pxIndex->pxPrevious = pxNewListItem;
 131              		.loc 1 128 5 is_stmt 1 view .LVU40
 132              		.loc 1 128 25 is_stmt 0 view .LVU41
 133 000a 9960     		str	r1, [r3, #8]
 129:../../Middlewares/Third_Party/FreeRTOS/Source/list.c **** 
 130:../../Middlewares/Third_Party/FreeRTOS/Source/list.c ****     /* Remember which list the item is in. */
 131:../../Middlewares/Third_Party/FreeRTOS/Source/list.c ****     pxNewListItem->pxContainer = pxList;
 134              		.loc 1 131 5 is_stmt 1 view .LVU42
 135              		.loc 1 131 32 is_stmt 0 view .LVU43
 136 000c 0861     		str	r0, [r1, #16]
 132:../../Middlewares/Third_Party/FreeRTOS/Source/list.c **** 
 133:../../Middlewares/Third_Party/FreeRTOS/Source/list.c ****     ( pxList->uxNumberOfItems ) = ( UBaseType_t ) ( pxList->uxNumberOfItems + 1U );
 137              		.loc 1 133 5 is_stmt 1 view .LVU44
 138              		.loc 1 133 59 is_stmt 0 view .LVU45
 139 000e 0368     		ldr	r3, [r0]
 140              	.LVL4:
 141              		.loc 1 133 35 view .LVU46
 142 0010 0133     		adds	r3, r3, #1
 143              		.loc 1 133 33 view .LVU47
 144 0012 0360     		str	r3, [r0]
 134:../../Middlewares/Third_Party/FreeRTOS/Source/list.c **** 
 135:../../Middlewares/Third_Party/FreeRTOS/Source/list.c ****     traceRETURN_vListInsertEnd();
 145              		.loc 1 135 33 is_stmt 1 view .LVU48
 136:../../Middlewares/Third_Party/FreeRTOS/Source/list.c **** }
 146              		.loc 1 136 1 is_stmt 0 view .LVU49
 147 0014 7047     		bx	lr
 148              		.cfi_endproc
 149              	.LFE2:
 151              		.section	.text.vListInsert,"ax",%progbits
 152              		.align	1
 153              		.global	vListInsert
 154              		.syntax unified
 155              		.thumb
ARM GAS  C:\Users\SMART\AppData\Local\Temp\ccSnXaeH.s 			page 6


 156              		.thumb_func
 158              	vListInsert:
 159              	.LVL5:
 160              	.LFB3:
 137:../../Middlewares/Third_Party/FreeRTOS/Source/list.c **** /*-----------------------------------------------------------*/
 138:../../Middlewares/Third_Party/FreeRTOS/Source/list.c **** 
 139:../../Middlewares/Third_Party/FreeRTOS/Source/list.c **** void vListInsert( List_t * const pxList,
 140:../../Middlewares/Third_Party/FreeRTOS/Source/list.c ****                   ListItem_t * const pxNewListItem )
 141:../../Middlewares/Third_Party/FreeRTOS/Source/list.c **** {
 161              		.loc 1 141 1 is_stmt 1 view -0
 162              		.cfi_startproc
 163              		@ args = 0, pretend = 0, frame = 0
 164              		@ frame_needed = 0, uses_anonymous_args = 0
 165              		@ link register save eliminated.
 166              		.loc 1 141 1 is_stmt 0 view .LVU51
 167 0000 30B4     		push	{r4, r5}
 168              	.LCFI0:
 169              		.cfi_def_cfa_offset 8
 170              		.cfi_offset 4, -8
 171              		.cfi_offset 5, -4
 142:../../Middlewares/Third_Party/FreeRTOS/Source/list.c ****     ListItem_t * pxIterator;
 172              		.loc 1 142 5 is_stmt 1 view .LVU52
 143:../../Middlewares/Third_Party/FreeRTOS/Source/list.c ****     const TickType_t xValueOfInsertion = pxNewListItem->xItemValue;
 173              		.loc 1 143 5 view .LVU53
 174              		.loc 1 143 22 is_stmt 0 view .LVU54
 175 0002 0D68     		ldr	r5, [r1]
 176              	.LVL6:
 144:../../Middlewares/Third_Party/FreeRTOS/Source/list.c **** 
 145:../../Middlewares/Third_Party/FreeRTOS/Source/list.c ****     traceENTER_vListInsert( pxList, pxNewListItem );
 177              		.loc 1 145 52 is_stmt 1 view .LVU55
 146:../../Middlewares/Third_Party/FreeRTOS/Source/list.c **** 
 147:../../Middlewares/Third_Party/FreeRTOS/Source/list.c ****     /* Only effective when configASSERT() is also defined, these tests may catch
 148:../../Middlewares/Third_Party/FreeRTOS/Source/list.c ****      * the list data structures being overwritten in memory.  They will not catch
 149:../../Middlewares/Third_Party/FreeRTOS/Source/list.c ****      * data errors caused by incorrect configuration or use of FreeRTOS. */
 150:../../Middlewares/Third_Party/FreeRTOS/Source/list.c ****     listTEST_LIST_INTEGRITY( pxList );
 178              		.loc 1 150 38 view .LVU56
 151:../../Middlewares/Third_Party/FreeRTOS/Source/list.c ****     listTEST_LIST_ITEM_INTEGRITY( pxNewListItem );
 179              		.loc 1 151 50 view .LVU57
 152:../../Middlewares/Third_Party/FreeRTOS/Source/list.c **** 
 153:../../Middlewares/Third_Party/FreeRTOS/Source/list.c ****     /* Insert the new list item into the list, sorted in xItemValue order.
 154:../../Middlewares/Third_Party/FreeRTOS/Source/list.c ****      *
 155:../../Middlewares/Third_Party/FreeRTOS/Source/list.c ****      * If the list already contains a list item with the same item value then the
 156:../../Middlewares/Third_Party/FreeRTOS/Source/list.c ****      * new list item should be placed after it.  This ensures that TCBs which are
 157:../../Middlewares/Third_Party/FreeRTOS/Source/list.c ****      * stored in ready lists (all of which have the same xItemValue value) get a
 158:../../Middlewares/Third_Party/FreeRTOS/Source/list.c ****      * share of the CPU.  However, if the xItemValue is the same as the back marker
 159:../../Middlewares/Third_Party/FreeRTOS/Source/list.c ****      * the iteration loop below will not end.  Therefore the value is checked
 160:../../Middlewares/Third_Party/FreeRTOS/Source/list.c ****      * first, and the algorithm slightly modified if necessary. */
 161:../../Middlewares/Third_Party/FreeRTOS/Source/list.c ****     if( xValueOfInsertion == portMAX_DELAY )
 180              		.loc 1 161 5 view .LVU58
 181              		.loc 1 161 7 is_stmt 0 view .LVU59
 182 0004 B5F1FF3F 		cmp	r5, #-1
 183 0008 11D0     		beq	.L9
 162:../../Middlewares/Third_Party/FreeRTOS/Source/list.c ****     {
 163:../../Middlewares/Third_Party/FreeRTOS/Source/list.c ****         pxIterator = pxList->xListEnd.pxPrevious;
 164:../../Middlewares/Third_Party/FreeRTOS/Source/list.c ****     }
 165:../../Middlewares/Third_Party/FreeRTOS/Source/list.c ****     else
 166:../../Middlewares/Third_Party/FreeRTOS/Source/list.c ****     {
ARM GAS  C:\Users\SMART\AppData\Local\Temp\ccSnXaeH.s 			page 7


 167:../../Middlewares/Third_Party/FreeRTOS/Source/list.c ****         /* *** NOTE ***********************************************************
 168:../../Middlewares/Third_Party/FreeRTOS/Source/list.c ****         *  If you find your application is crashing here then likely causes are
 169:../../Middlewares/Third_Party/FreeRTOS/Source/list.c ****         *  listed below.  In addition see https://www.freertos.org/Why-FreeRTOS/FAQs for
 170:../../Middlewares/Third_Party/FreeRTOS/Source/list.c ****         *  more tips, and ensure configASSERT() is defined!
 171:../../Middlewares/Third_Party/FreeRTOS/Source/list.c ****         *  https://www.FreeRTOS.org/a00110.html#configASSERT
 172:../../Middlewares/Third_Party/FreeRTOS/Source/list.c ****         *
 173:../../Middlewares/Third_Party/FreeRTOS/Source/list.c ****         *   1) Stack overflow -
 174:../../Middlewares/Third_Party/FreeRTOS/Source/list.c ****         *      see https://www.FreeRTOS.org/Stacks-and-stack-overflow-checking.html
 175:../../Middlewares/Third_Party/FreeRTOS/Source/list.c ****         *   2) Incorrect interrupt priority assignment, especially on Cortex-M
 176:../../Middlewares/Third_Party/FreeRTOS/Source/list.c ****         *      parts where numerically high priority values denote low actual
 177:../../Middlewares/Third_Party/FreeRTOS/Source/list.c ****         *      interrupt priorities, which can seem counter intuitive.  See
 178:../../Middlewares/Third_Party/FreeRTOS/Source/list.c ****         *      https://www.FreeRTOS.org/RTOS-Cortex-M3-M4.html and the definition
 179:../../Middlewares/Third_Party/FreeRTOS/Source/list.c ****         *      of configMAX_SYSCALL_INTERRUPT_PRIORITY on
 180:../../Middlewares/Third_Party/FreeRTOS/Source/list.c ****         *      https://www.FreeRTOS.org/a00110.html
 181:../../Middlewares/Third_Party/FreeRTOS/Source/list.c ****         *   3) Calling an API function from within a critical section or when
 182:../../Middlewares/Third_Party/FreeRTOS/Source/list.c ****         *      the scheduler is suspended, or calling an API function that does
 183:../../Middlewares/Third_Party/FreeRTOS/Source/list.c ****         *      not end in "FromISR" from an interrupt.
 184:../../Middlewares/Third_Party/FreeRTOS/Source/list.c ****         *   4) Using a queue or semaphore before it has been initialised or
 185:../../Middlewares/Third_Party/FreeRTOS/Source/list.c ****         *      before the scheduler has been started (are interrupts firing
 186:../../Middlewares/Third_Party/FreeRTOS/Source/list.c ****         *      before vTaskStartScheduler() has been called?).
 187:../../Middlewares/Third_Party/FreeRTOS/Source/list.c ****         *   5) If the FreeRTOS port supports interrupt nesting then ensure that
 188:../../Middlewares/Third_Party/FreeRTOS/Source/list.c ****         *      the priority of the tick interrupt is at or below
 189:../../Middlewares/Third_Party/FreeRTOS/Source/list.c ****         *      configMAX_SYSCALL_INTERRUPT_PRIORITY.
 190:../../Middlewares/Third_Party/FreeRTOS/Source/list.c ****         **********************************************************************/
 191:../../Middlewares/Third_Party/FreeRTOS/Source/list.c **** 
 192:../../Middlewares/Third_Party/FreeRTOS/Source/list.c ****         for( pxIterator = ( ListItem_t * ) &( pxList->xListEnd ); pxIterator->pxNext->xItemValue <=
 184              		.loc 1 192 9 is_stmt 1 view .LVU60
 185              		.loc 1 192 25 is_stmt 0 view .LVU61
 186 000a 00F10803 		add	r3, r0, #8
 187              	.LVL7:
 188              	.L7:
 189              		.loc 1 192 98 is_stmt 1 discriminator 1 view .LVU62
 190 000e 1C46     		mov	r4, r3
 191              		.loc 1 192 77 is_stmt 0 discriminator 1 view .LVU63
 192 0010 5B68     		ldr	r3, [r3, #4]
 193              	.LVL8:
 194              		.loc 1 192 85 discriminator 1 view .LVU64
 195 0012 1A68     		ldr	r2, [r3]
 196              		.loc 1 192 98 discriminator 1 view .LVU65
 197 0014 AA42     		cmp	r2, r5
 198 0016 FAD9     		bls	.L7
 199              	.L6:
 193:../../Middlewares/Third_Party/FreeRTOS/Source/list.c ****         {
 194:../../Middlewares/Third_Party/FreeRTOS/Source/list.c ****             /* There is nothing to do here, just iterating to the wanted
 195:../../Middlewares/Third_Party/FreeRTOS/Source/list.c ****              * insertion position.
 196:../../Middlewares/Third_Party/FreeRTOS/Source/list.c ****              * IF YOU FIND YOUR CODE STUCK HERE, SEE THE NOTE JUST ABOVE.
 197:../../Middlewares/Third_Party/FreeRTOS/Source/list.c ****              */
 198:../../Middlewares/Third_Party/FreeRTOS/Source/list.c ****         }
 199:../../Middlewares/Third_Party/FreeRTOS/Source/list.c ****     }
 200:../../Middlewares/Third_Party/FreeRTOS/Source/list.c **** 
 201:../../Middlewares/Third_Party/FreeRTOS/Source/list.c ****     pxNewListItem->pxNext = pxIterator->pxNext;
 200              		.loc 1 201 5 is_stmt 1 view .LVU66
 201              		.loc 1 201 39 is_stmt 0 view .LVU67
 202 0018 6368     		ldr	r3, [r4, #4]
 203              		.loc 1 201 27 view .LVU68
 204 001a 4B60     		str	r3, [r1, #4]
 202:../../Middlewares/Third_Party/FreeRTOS/Source/list.c ****     pxNewListItem->pxNext->pxPrevious = pxNewListItem;
ARM GAS  C:\Users\SMART\AppData\Local\Temp\ccSnXaeH.s 			page 8


 205              		.loc 1 202 5 is_stmt 1 view .LVU69
 206              		.loc 1 202 39 is_stmt 0 view .LVU70
 207 001c 9960     		str	r1, [r3, #8]
 203:../../Middlewares/Third_Party/FreeRTOS/Source/list.c ****     pxNewListItem->pxPrevious = pxIterator;
 208              		.loc 1 203 5 is_stmt 1 view .LVU71
 209              		.loc 1 203 31 is_stmt 0 view .LVU72
 210 001e 8C60     		str	r4, [r1, #8]
 204:../../Middlewares/Third_Party/FreeRTOS/Source/list.c ****     pxIterator->pxNext = pxNewListItem;
 211              		.loc 1 204 5 is_stmt 1 view .LVU73
 212              		.loc 1 204 24 is_stmt 0 view .LVU74
 213 0020 6160     		str	r1, [r4, #4]
 205:../../Middlewares/Third_Party/FreeRTOS/Source/list.c **** 
 206:../../Middlewares/Third_Party/FreeRTOS/Source/list.c ****     /* Remember which list the item is in.  This allows fast removal of the
 207:../../Middlewares/Third_Party/FreeRTOS/Source/list.c ****      * item later. */
 208:../../Middlewares/Third_Party/FreeRTOS/Source/list.c ****     pxNewListItem->pxContainer = pxList;
 214              		.loc 1 208 5 is_stmt 1 view .LVU75
 215              		.loc 1 208 32 is_stmt 0 view .LVU76
 216 0022 0861     		str	r0, [r1, #16]
 209:../../Middlewares/Third_Party/FreeRTOS/Source/list.c **** 
 210:../../Middlewares/Third_Party/FreeRTOS/Source/list.c ****     ( pxList->uxNumberOfItems ) = ( UBaseType_t ) ( pxList->uxNumberOfItems + 1U );
 217              		.loc 1 210 5 is_stmt 1 view .LVU77
 218              		.loc 1 210 59 is_stmt 0 view .LVU78
 219 0024 0368     		ldr	r3, [r0]
 220              		.loc 1 210 35 view .LVU79
 221 0026 0133     		adds	r3, r3, #1
 222              		.loc 1 210 33 view .LVU80
 223 0028 0360     		str	r3, [r0]
 211:../../Middlewares/Third_Party/FreeRTOS/Source/list.c **** 
 212:../../Middlewares/Third_Party/FreeRTOS/Source/list.c ****     traceRETURN_vListInsert();
 224              		.loc 1 212 30 is_stmt 1 view .LVU81
 213:../../Middlewares/Third_Party/FreeRTOS/Source/list.c **** }
 225              		.loc 1 213 1 is_stmt 0 view .LVU82
 226 002a 30BC     		pop	{r4, r5}
 227              	.LCFI1:
 228              		.cfi_remember_state
 229              		.cfi_restore 5
 230              		.cfi_restore 4
 231              		.cfi_def_cfa_offset 0
 232              	.LVL9:
 233              		.loc 1 213 1 view .LVU83
 234 002c 7047     		bx	lr
 235              	.LVL10:
 236              	.L9:
 237              	.LCFI2:
 238              		.cfi_restore_state
 163:../../Middlewares/Third_Party/FreeRTOS/Source/list.c ****     }
 239              		.loc 1 163 9 is_stmt 1 view .LVU84
 163:../../Middlewares/Third_Party/FreeRTOS/Source/list.c ****     }
 240              		.loc 1 163 20 is_stmt 0 view .LVU85
 241 002e 0469     		ldr	r4, [r0, #16]
 242              	.LVL11:
 163:../../Middlewares/Third_Party/FreeRTOS/Source/list.c ****     }
 243              		.loc 1 163 20 view .LVU86
 244 0030 F2E7     		b	.L6
 245              		.cfi_endproc
 246              	.LFE3:
 248              		.section	.text.uxListRemove,"ax",%progbits
ARM GAS  C:\Users\SMART\AppData\Local\Temp\ccSnXaeH.s 			page 9


 249              		.align	1
 250              		.global	uxListRemove
 251              		.syntax unified
 252              		.thumb
 253              		.thumb_func
 255              	uxListRemove:
 256              	.LVL12:
 257              	.LFB4:
 214:../../Middlewares/Third_Party/FreeRTOS/Source/list.c **** /*-----------------------------------------------------------*/
 215:../../Middlewares/Third_Party/FreeRTOS/Source/list.c **** 
 216:../../Middlewares/Third_Party/FreeRTOS/Source/list.c **** 
 217:../../Middlewares/Third_Party/FreeRTOS/Source/list.c **** UBaseType_t uxListRemove( ListItem_t * const pxItemToRemove )
 218:../../Middlewares/Third_Party/FreeRTOS/Source/list.c **** {
 258              		.loc 1 218 1 is_stmt 1 view -0
 259              		.cfi_startproc
 260              		@ args = 0, pretend = 0, frame = 0
 261              		@ frame_needed = 0, uses_anonymous_args = 0
 262              		@ link register save eliminated.
 219:../../Middlewares/Third_Party/FreeRTOS/Source/list.c ****     /* The list item knows which list it is in.  Obtain the list from the list
 220:../../Middlewares/Third_Party/FreeRTOS/Source/list.c ****      * item. */
 221:../../Middlewares/Third_Party/FreeRTOS/Source/list.c ****     List_t * const pxList = pxItemToRemove->pxContainer;
 263              		.loc 1 221 5 view .LVU88
 264              		.loc 1 221 20 is_stmt 0 view .LVU89
 265 0000 0369     		ldr	r3, [r0, #16]
 266              	.LVL13:
 222:../../Middlewares/Third_Party/FreeRTOS/Source/list.c **** 
 223:../../Middlewares/Third_Party/FreeRTOS/Source/list.c ****     traceENTER_uxListRemove( pxItemToRemove );
 267              		.loc 1 223 46 is_stmt 1 view .LVU90
 224:../../Middlewares/Third_Party/FreeRTOS/Source/list.c **** 
 225:../../Middlewares/Third_Party/FreeRTOS/Source/list.c ****     pxItemToRemove->pxNext->pxPrevious = pxItemToRemove->pxPrevious;
 268              		.loc 1 225 5 view .LVU91
 269              		.loc 1 225 19 is_stmt 0 view .LVU92
 270 0002 4168     		ldr	r1, [r0, #4]
 271              		.loc 1 225 56 view .LVU93
 272 0004 8268     		ldr	r2, [r0, #8]
 273              		.loc 1 225 40 view .LVU94
 274 0006 8A60     		str	r2, [r1, #8]
 226:../../Middlewares/Third_Party/FreeRTOS/Source/list.c ****     pxItemToRemove->pxPrevious->pxNext = pxItemToRemove->pxNext;
 275              		.loc 1 226 5 is_stmt 1 view .LVU95
 276              		.loc 1 226 56 is_stmt 0 view .LVU96
 277 0008 4168     		ldr	r1, [r0, #4]
 278              		.loc 1 226 40 view .LVU97
 279 000a 5160     		str	r1, [r2, #4]
 227:../../Middlewares/Third_Party/FreeRTOS/Source/list.c **** 
 228:../../Middlewares/Third_Party/FreeRTOS/Source/list.c ****     /* Only used during decision coverage testing. */
 229:../../Middlewares/Third_Party/FreeRTOS/Source/list.c ****     mtCOVERAGE_TEST_DELAY();
 280              		.loc 1 229 28 is_stmt 1 view .LVU98
 230:../../Middlewares/Third_Party/FreeRTOS/Source/list.c **** 
 231:../../Middlewares/Third_Party/FreeRTOS/Source/list.c ****     /* Make sure the index is left pointing to a valid item. */
 232:../../Middlewares/Third_Party/FreeRTOS/Source/list.c ****     if( pxList->pxIndex == pxItemToRemove )
 281              		.loc 1 232 5 view .LVU99
 282              		.loc 1 232 15 is_stmt 0 view .LVU100
 283 000c 5A68     		ldr	r2, [r3, #4]
 284              		.loc 1 232 7 view .LVU101
 285 000e 8242     		cmp	r2, r0
 286 0010 05D0     		beq	.L12
 287              	.L11:
ARM GAS  C:\Users\SMART\AppData\Local\Temp\ccSnXaeH.s 			page 10


 233:../../Middlewares/Third_Party/FreeRTOS/Source/list.c ****     {
 234:../../Middlewares/Third_Party/FreeRTOS/Source/list.c ****         pxList->pxIndex = pxItemToRemove->pxPrevious;
 235:../../Middlewares/Third_Party/FreeRTOS/Source/list.c ****     }
 236:../../Middlewares/Third_Party/FreeRTOS/Source/list.c ****     else
 237:../../Middlewares/Third_Party/FreeRTOS/Source/list.c ****     {
 238:../../Middlewares/Third_Party/FreeRTOS/Source/list.c ****         mtCOVERAGE_TEST_MARKER();
 288              		.loc 1 238 33 is_stmt 1 view .LVU102
 239:../../Middlewares/Third_Party/FreeRTOS/Source/list.c ****     }
 240:../../Middlewares/Third_Party/FreeRTOS/Source/list.c **** 
 241:../../Middlewares/Third_Party/FreeRTOS/Source/list.c ****     pxItemToRemove->pxContainer = NULL;
 289              		.loc 1 241 5 view .LVU103
 290              		.loc 1 241 33 is_stmt 0 view .LVU104
 291 0012 0022     		movs	r2, #0
 292 0014 0261     		str	r2, [r0, #16]
 242:../../Middlewares/Third_Party/FreeRTOS/Source/list.c ****     ( pxList->uxNumberOfItems ) = ( UBaseType_t ) ( pxList->uxNumberOfItems - 1U );
 293              		.loc 1 242 5 is_stmt 1 view .LVU105
 294              		.loc 1 242 59 is_stmt 0 view .LVU106
 295 0016 1868     		ldr	r0, [r3]
 296              	.LVL14:
 297              		.loc 1 242 35 view .LVU107
 298 0018 0138     		subs	r0, r0, #1
 299              		.loc 1 242 33 view .LVU108
 300 001a 1860     		str	r0, [r3]
 243:../../Middlewares/Third_Party/FreeRTOS/Source/list.c **** 
 244:../../Middlewares/Third_Party/FreeRTOS/Source/list.c ****     traceRETURN_uxListRemove( pxList->uxNumberOfItems );
 301              		.loc 1 244 56 is_stmt 1 view .LVU109
 245:../../Middlewares/Third_Party/FreeRTOS/Source/list.c **** 
 246:../../Middlewares/Third_Party/FreeRTOS/Source/list.c ****     return pxList->uxNumberOfItems;
 302              		.loc 1 246 5 view .LVU110
 247:../../Middlewares/Third_Party/FreeRTOS/Source/list.c **** }
 303              		.loc 1 247 1 is_stmt 0 view .LVU111
 304 001c 7047     		bx	lr
 305              	.LVL15:
 306              	.L12:
 234:../../Middlewares/Third_Party/FreeRTOS/Source/list.c ****     }
 307              		.loc 1 234 9 is_stmt 1 view .LVU112
 234:../../Middlewares/Third_Party/FreeRTOS/Source/list.c ****     }
 308              		.loc 1 234 41 is_stmt 0 view .LVU113
 309 001e 8268     		ldr	r2, [r0, #8]
 234:../../Middlewares/Third_Party/FreeRTOS/Source/list.c ****     }
 310              		.loc 1 234 25 view .LVU114
 311 0020 5A60     		str	r2, [r3, #4]
 312 0022 F6E7     		b	.L11
 313              		.cfi_endproc
 314              	.LFE4:
 316              		.text
 317              	.Letext0:
 318              		.file 2 "C:\\ST\\STM32CubeIDE_2.0.0\\STM32CubeIDE\\plugins\\com.st.stm32cube.ide.mcu.externaltools
 319              		.file 3 "C:\\ST\\STM32CubeIDE_2.0.0\\STM32CubeIDE\\plugins\\com.st.stm32cube.ide.mcu.externaltools
 320              		.file 4 "../../Middlewares/Third_Party/FreeRTOS/Source/portable/GCC/ARM_CM55_NTZ/non_secure/portma
 321              		.file 5 "../../Middlewares/Third_Party/FreeRTOS/Source/include/list.h"
ARM GAS  C:\Users\SMART\AppData\Local\Temp\ccSnXaeH.s 			page 11

