ARM GAS  C:\Users\SMART\AppData\Local\Temp\ccgp2ZM7.s 			page 1


   1              		.arch armv8.1-m.main
   2              		.fpu fpv5-d16
   3              		.arch_extension dsp
   4              		.arch_extension fp
   5              		.arch_extension fp.dp
   6              		.arch_extension mve
   7              		.arch_extension mve.fp
   8              		.eabi_attribute 5, "cortex-m55"
   9              		.eabi_attribute 28, 1
  10              		.eabi_attribute 20, 1
  11              		.eabi_attribute 21, 1
  12              		.eabi_attribute 23, 3
  13              		.eabi_attribute 24, 1
  14              		.eabi_attribute 25, 1
  15              		.eabi_attribute 26, 1
  16              		.eabi_attribute 30, 1
  17              		.eabi_attribute 34, 1
  18              		.eabi_attribute 38, 1
  19              		.eabi_attribute 18, 4
  20              		.file	"secure_nsc.c"
  21              		.text
  22              	.Ltext0:
  23              		.cfi_sections	.debug_frame
  24              		.file 1 "../../Appli/Core/Src/secure_nsc.c"
  25              		.section	.text.SECURE_RegisterCallback,"ax",%progbits
  26              		.align	1
  27              		.global	SECURE_RegisterCallback
  28              		.global	__acle_se_SECURE_RegisterCallback
  29              		.syntax unified
  30              		.thumb
  31              		.thumb_func
  33              		.syntax unified
  34              		.thumb
  35              		.thumb_func
  37              	SECURE_RegisterCallback:
  38              	__acle_se_SECURE_RegisterCallback:
  39              	.LVL0:
  40              	.LFB862:
   1:../../Appli/Core/Src/secure_nsc.c **** /* USER CODE BEGIN Header */
   2:../../Appli/Core/Src/secure_nsc.c **** /**
   3:../../Appli/Core/Src/secure_nsc.c ****   ******************************************************************************
   4:../../Appli/Core/Src/secure_nsc.c ****   * @file    Secure/Src/secure_nsc.c
   5:../../Appli/Core/Src/secure_nsc.c ****   * @author  MCD Application Team
   6:../../Appli/Core/Src/secure_nsc.c ****   * @brief   This file contains the non-secure callable APIs (secure world)
   7:../../Appli/Core/Src/secure_nsc.c ****   ******************************************************************************
   8:../../Appli/Core/Src/secure_nsc.c ****     * @attention
   9:../../Appli/Core/Src/secure_nsc.c ****   *
  10:../../Appli/Core/Src/secure_nsc.c ****   * Copyright (c) 2026 STMicroelectronics.
  11:../../Appli/Core/Src/secure_nsc.c ****   * All rights reserved.
  12:../../Appli/Core/Src/secure_nsc.c ****   *
  13:../../Appli/Core/Src/secure_nsc.c ****   * This software is licensed under terms that can be found in the LICENSE file
  14:../../Appli/Core/Src/secure_nsc.c ****   * in the root directory of this software component.
  15:../../Appli/Core/Src/secure_nsc.c ****   * If no LICENSE file comes with this software, it is provided AS-IS.
  16:../../Appli/Core/Src/secure_nsc.c ****   *
  17:../../Appli/Core/Src/secure_nsc.c ****   ******************************************************************************
  18:../../Appli/Core/Src/secure_nsc.c ****   */
  19:../../Appli/Core/Src/secure_nsc.c **** /* USER CODE END Header */
ARM GAS  C:\Users\SMART\AppData\Local\Temp\ccgp2ZM7.s 			page 2


  20:../../Appli/Core/Src/secure_nsc.c **** 
  21:../../Appli/Core/Src/secure_nsc.c **** /* USER CODE BEGIN Non_Secure_CallLib */
  22:../../Appli/Core/Src/secure_nsc.c **** /* Includes ------------------------------------------------------------------*/
  23:../../Appli/Core/Src/secure_nsc.c **** #include "main.h"
  24:../../Appli/Core/Src/secure_nsc.c **** #include "secure_nsc.h"
  25:../../Appli/Core/Src/secure_nsc.c **** /** @addtogroup STM32N6xx_HAL_Examples
  26:../../Appli/Core/Src/secure_nsc.c **** 
  27:../../Appli/Core/Src/secure_nsc.c ****   * @{
  28:../../Appli/Core/Src/secure_nsc.c ****   */
  29:../../Appli/Core/Src/secure_nsc.c **** 
  30:../../Appli/Core/Src/secure_nsc.c **** /** @addtogroup Templates
  31:../../Appli/Core/Src/secure_nsc.c ****   * @{
  32:../../Appli/Core/Src/secure_nsc.c ****   */
  33:../../Appli/Core/Src/secure_nsc.c **** 
  34:../../Appli/Core/Src/secure_nsc.c **** /* Global variables ----------------------------------------------------------*/
  35:../../Appli/Core/Src/secure_nsc.c **** void *pSecureFaultCallback = NULL;   /* Pointer to secure fault callback in Non-secure */
  36:../../Appli/Core/Src/secure_nsc.c **** void *pSecureErrorCallback = NULL;   /* Pointer to secure error callback in Non-secure */
  37:../../Appli/Core/Src/secure_nsc.c **** 
  38:../../Appli/Core/Src/secure_nsc.c **** /* Private typedef -----------------------------------------------------------*/
  39:../../Appli/Core/Src/secure_nsc.c **** /* Private define ------------------------------------------------------------*/
  40:../../Appli/Core/Src/secure_nsc.c **** /* Private macro -------------------------------------------------------------*/
  41:../../Appli/Core/Src/secure_nsc.c **** /* Private variables ---------------------------------------------------------*/
  42:../../Appli/Core/Src/secure_nsc.c **** /* Private function prototypes -----------------------------------------------*/
  43:../../Appli/Core/Src/secure_nsc.c **** /* Private functions ---------------------------------------------------------*/
  44:../../Appli/Core/Src/secure_nsc.c **** 
  45:../../Appli/Core/Src/secure_nsc.c **** /**
  46:../../Appli/Core/Src/secure_nsc.c ****   * @brief  Secure registration of non-secure callback.
  47:../../Appli/Core/Src/secure_nsc.c ****   * @param  CallbackId  callback identifier
  48:../../Appli/Core/Src/secure_nsc.c ****   * @param  func        pointer to non-secure function
  49:../../Appli/Core/Src/secure_nsc.c ****   * @retval None
  50:../../Appli/Core/Src/secure_nsc.c ****   */
  51:../../Appli/Core/Src/secure_nsc.c ****   CMSE_NS_ENTRY void SECURE_RegisterCallback(SECURE_CallbackIDTypeDef CallbackId, void *func)
  52:../../Appli/Core/Src/secure_nsc.c ****   {
  41              		.loc 1 52 3 view -0
  42              		.cfi_startproc
  43              		@ Non-secure entry function: called from non-secure code.
  44              		@ args = 0, pretend = 0, frame = 0
  45              		@ frame_needed = 0, uses_anonymous_args = 0
  46              		@ link register save eliminated.
  47              		.loc 1 52 3 is_stmt 0 view .LVU1
  48 0000 C0B2     		uxtb	r0, r0
  49              		.loc 1 52 3 view .LVU2
  50 0002 6DED81CF 		vstr	FPCXTNS, [sp, #-4]!
  51              	.LCFI0:
  52              		.cfi_def_cfa_offset 4
  53:../../Appli/Core/Src/secure_nsc.c ****       if(func != NULL)
  53              		.loc 1 53 7 is_stmt 1 view .LVU3
  54              		.loc 1 53 9 is_stmt 0 view .LVU4
  55 0006 39B1     		cbz	r1, .L1
  54:../../Appli/Core/Src/secure_nsc.c ****       {
  55:../../Appli/Core/Src/secure_nsc.c ****         switch(CallbackId)
  56              		.loc 1 55 9 is_stmt 1 view .LVU5
  57 0008 20B1     		cbz	r0, .L3
  58 000a 0128     		cmp	r0, #1
  59 000c 04D1     		bne	.L1
  56:../../Appli/Core/Src/secure_nsc.c ****         {
  57:../../Appli/Core/Src/secure_nsc.c ****           case SECURE_FAULT_CB_ID:           /* SecureFault Interrupt occurred */
ARM GAS  C:\Users\SMART\AppData\Local\Temp\ccgp2ZM7.s 			page 3


  58:../../Appli/Core/Src/secure_nsc.c ****           pSecureFaultCallback = func;
  59:../../Appli/Core/Src/secure_nsc.c ****           break;
  60:../../Appli/Core/Src/secure_nsc.c ****           case IAC_ERROR_CB_ID:             /* Illegal Access Interrupt occurred */
  61:../../Appli/Core/Src/secure_nsc.c ****           pSecureErrorCallback = func;
  60              		.loc 1 61 11 view .LVU6
  61              		.loc 1 61 32 is_stmt 0 view .LVU7
  62 000e 064A     		ldr	r2, .L6
  63 0010 1160     		str	r1, [r2]
  62:../../Appli/Core/Src/secure_nsc.c ****           break;
  64              		.loc 1 62 11 is_stmt 1 view .LVU8
  63:../../Appli/Core/Src/secure_nsc.c ****           default:
  64:../../Appli/Core/Src/secure_nsc.c ****           /* unknown */
  65:../../Appli/Core/Src/secure_nsc.c ****           break;
  66:../../Appli/Core/Src/secure_nsc.c ****         }
  67:../../Appli/Core/Src/secure_nsc.c ****       }
  68:../../Appli/Core/Src/secure_nsc.c ****   }
  65              		.loc 1 68 3 is_stmt 0 view .LVU9
  66 0012 01E0     		b	.L1
  67              	.L3:
  58:../../Appli/Core/Src/secure_nsc.c ****           break;
  68              		.loc 1 58 11 is_stmt 1 view .LVU10
  58:../../Appli/Core/Src/secure_nsc.c ****           break;
  69              		.loc 1 58 32 is_stmt 0 view .LVU11
  70 0014 054A     		ldr	r2, .L6+4
  71 0016 1160     		str	r1, [r2]
  59:../../Appli/Core/Src/secure_nsc.c ****           case IAC_ERROR_CB_ID:             /* Illegal Access Interrupt occurred */
  72              		.loc 1 59 11 is_stmt 1 view .LVU12
  73              	.L1:
  74              		.loc 1 68 3 is_stmt 0 view .LVU13
  75 0018 9FEC100A 		vscclrm	{s0-s15, VPR}
  76 001c 9FE80F90 		clrm	{r0, r1, r2, r3, ip, APSR}
  77              	.LVL1:
  78              		.loc 1 68 3 view .LVU14
  79 0020 FDEC81CF 		vldr	FPCXTNS, [sp], #4
  80              	.LCFI1:
  81              		.cfi_def_cfa_offset 0
  82 0024 7447     		bxns	lr
  83              	.L7:
  84 0026 00BF     		.align	2
  85              	.L6:
  86 0028 00000000 		.word	pSecureErrorCallback
  87 002c 00000000 		.word	pSecureFaultCallback
  88              		.cfi_endproc
  89              	.LFE862:
  91              		.global	pSecureErrorCallback
  92              		.section	.bss.pSecureErrorCallback,"aw",%nobits
  93              		.align	2
  96              	pSecureErrorCallback:
  97 0000 00000000 		.space	4
  98              		.global	pSecureFaultCallback
  99              		.section	.bss.pSecureFaultCallback,"aw",%nobits
 100              		.align	2
 103              	pSecureFaultCallback:
 104 0000 00000000 		.space	4
 105              		.text
 106              	.Letext0:
 107              		.file 2 "../../Secure_nsclib/secure_nsc.h"
ARM GAS  C:\Users\SMART\AppData\Local\Temp\ccgp2ZM7.s 			page 4


ARM GAS  C:\Users\SMART\AppData\Local\Temp\ccgp2ZM7.s 			page 5


DEFINED SYMBOLS
                            *ABS*:00000000 secure_nsc.c
C:\Users\SMART\AppData\Local\Temp\ccgp2ZM7.s:26     .text.SECURE_RegisterCallback:00000000 $t
C:\Users\SMART\AppData\Local\Temp\ccgp2ZM7.s:37     .text.SECURE_RegisterCallback:00000000 SECURE_RegisterCallback
C:\Users\SMART\AppData\Local\Temp\ccgp2ZM7.s:38     .text.SECURE_RegisterCallback:00000000 __acle_se_SECURE_RegisterCallback
C:\Users\SMART\AppData\Local\Temp\ccgp2ZM7.s:86     .text.SECURE_RegisterCallback:00000028 $d
C:\Users\SMART\AppData\Local\Temp\ccgp2ZM7.s:96     .bss.pSecureErrorCallback:00000000 pSecureErrorCallback
C:\Users\SMART\AppData\Local\Temp\ccgp2ZM7.s:103    .bss.pSecureFaultCallback:00000000 pSecureFaultCallback
C:\Users\SMART\AppData\Local\Temp\ccgp2ZM7.s:93     .bss.pSecureErrorCallback:00000000 $d
C:\Users\SMART\AppData\Local\Temp\ccgp2ZM7.s:100    .bss.pSecureFaultCallback:00000000 $d

NO UNDEFINED SYMBOLS
