ARM GAS  C:\Users\SMART\AppData\Local\Temp\ccszOMU3.s 			page 1


   1              		.arch armv8.1-m.main
   2              		.fpu fpv5-d16
   3              		.arch_extension dsp
   4              		.arch_extension fp
   5              		.arch_extension fp.dp
   6              		.arch_extension mve
   7              		.arch_extension mve.fp
   8              		.eabi_attribute 5, "cortex-m55"
   9              		.eabi_attribute 28, 1
  10              		.eabi_attribute 20, 1
  11              		.eabi_attribute 21, 1
  12              		.eabi_attribute 23, 3
  13              		.eabi_attribute 24, 1
  14              		.eabi_attribute 25, 1
  15              		.eabi_attribute 26, 1
  16              		.eabi_attribute 30, 1
  17              		.eabi_attribute 34, 1
  18              		.eabi_attribute 38, 1
  19              		.eabi_attribute 18, 4
  20              		.file	"stm32n6xx_hal_exti.c"
  21              		.text
  22              	.Ltext0:
  23              		.cfi_sections	.debug_frame
  24              		.file 1 "../../Drivers/STM32N6xx_HAL_Driver/Src/stm32n6xx_hal_exti.c"
  25              		.section	.text.HAL_EXTI_SetConfigLine,"ax",%progbits
  26              		.align	1
  27              		.global	HAL_EXTI_SetConfigLine
  28              		.syntax unified
  29              		.thumb
  30              		.thumb_func
  32              	HAL_EXTI_SetConfigLine:
  33              	.LVL0:
  34              	.LFB862:
   1:../../Drivers/STM32N6xx_HAL_Driver/Src/stm32n6xx_hal_exti.c **** /**
   2:../../Drivers/STM32N6xx_HAL_Driver/Src/stm32n6xx_hal_exti.c ****   ******************************************************************************
   3:../../Drivers/STM32N6xx_HAL_Driver/Src/stm32n6xx_hal_exti.c ****   * @file    stm32n6xx_hal_exti.c
   4:../../Drivers/STM32N6xx_HAL_Driver/Src/stm32n6xx_hal_exti.c ****   * @author  GPM Application Team
   5:../../Drivers/STM32N6xx_HAL_Driver/Src/stm32n6xx_hal_exti.c ****   * @brief   EXTI HAL module driver.
   6:../../Drivers/STM32N6xx_HAL_Driver/Src/stm32n6xx_hal_exti.c ****   *          This file provides firmware functions to manage the following
   7:../../Drivers/STM32N6xx_HAL_Driver/Src/stm32n6xx_hal_exti.c ****   *          functionalities of the General Purpose Input/Output (EXTI) peripheral:
   8:../../Drivers/STM32N6xx_HAL_Driver/Src/stm32n6xx_hal_exti.c ****   *           + Initialization and de-initialization functions
   9:../../Drivers/STM32N6xx_HAL_Driver/Src/stm32n6xx_hal_exti.c ****   *           + IO operation functions
  10:../../Drivers/STM32N6xx_HAL_Driver/Src/stm32n6xx_hal_exti.c ****   *
  11:../../Drivers/STM32N6xx_HAL_Driver/Src/stm32n6xx_hal_exti.c ****   ******************************************************************************
  12:../../Drivers/STM32N6xx_HAL_Driver/Src/stm32n6xx_hal_exti.c ****   * @attention
  13:../../Drivers/STM32N6xx_HAL_Driver/Src/stm32n6xx_hal_exti.c ****   *
  14:../../Drivers/STM32N6xx_HAL_Driver/Src/stm32n6xx_hal_exti.c ****   * Copyright (c) 2023 STMicroelectronics.
  15:../../Drivers/STM32N6xx_HAL_Driver/Src/stm32n6xx_hal_exti.c ****   * All rights reserved.
  16:../../Drivers/STM32N6xx_HAL_Driver/Src/stm32n6xx_hal_exti.c ****   *
  17:../../Drivers/STM32N6xx_HAL_Driver/Src/stm32n6xx_hal_exti.c ****   * This software is licensed under terms that can be found in the LICENSE file
  18:../../Drivers/STM32N6xx_HAL_Driver/Src/stm32n6xx_hal_exti.c ****   * in the root directory of this software component.
  19:../../Drivers/STM32N6xx_HAL_Driver/Src/stm32n6xx_hal_exti.c ****   * If no LICENSE file comes with this software, it is provided AS-IS.
  20:../../Drivers/STM32N6xx_HAL_Driver/Src/stm32n6xx_hal_exti.c ****   *
  21:../../Drivers/STM32N6xx_HAL_Driver/Src/stm32n6xx_hal_exti.c ****   ******************************************************************************
  22:../../Drivers/STM32N6xx_HAL_Driver/Src/stm32n6xx_hal_exti.c ****   @verbatim
  23:../../Drivers/STM32N6xx_HAL_Driver/Src/stm32n6xx_hal_exti.c ****   ==============================================================================
  24:../../Drivers/STM32N6xx_HAL_Driver/Src/stm32n6xx_hal_exti.c ****                     ##### EXTI Peripheral features #####
ARM GAS  C:\Users\SMART\AppData\Local\Temp\ccszOMU3.s 			page 2


  25:../../Drivers/STM32N6xx_HAL_Driver/Src/stm32n6xx_hal_exti.c ****   ==============================================================================
  26:../../Drivers/STM32N6xx_HAL_Driver/Src/stm32n6xx_hal_exti.c ****   [..]
  27:../../Drivers/STM32N6xx_HAL_Driver/Src/stm32n6xx_hal_exti.c ****     (+) Each Exti line can be configured within this driver.
  28:../../Drivers/STM32N6xx_HAL_Driver/Src/stm32n6xx_hal_exti.c **** 
  29:../../Drivers/STM32N6xx_HAL_Driver/Src/stm32n6xx_hal_exti.c ****     (+) Exti line can be configured in 3 different modes
  30:../../Drivers/STM32N6xx_HAL_Driver/Src/stm32n6xx_hal_exti.c ****         (++) Interrupt
  31:../../Drivers/STM32N6xx_HAL_Driver/Src/stm32n6xx_hal_exti.c ****         (++) Event
  32:../../Drivers/STM32N6xx_HAL_Driver/Src/stm32n6xx_hal_exti.c ****         (++) Both of them
  33:../../Drivers/STM32N6xx_HAL_Driver/Src/stm32n6xx_hal_exti.c **** 
  34:../../Drivers/STM32N6xx_HAL_Driver/Src/stm32n6xx_hal_exti.c ****     (+) Configurable Exti lines can be configured with 3 different triggers
  35:../../Drivers/STM32N6xx_HAL_Driver/Src/stm32n6xx_hal_exti.c ****         (++) Rising
  36:../../Drivers/STM32N6xx_HAL_Driver/Src/stm32n6xx_hal_exti.c ****         (++) Falling
  37:../../Drivers/STM32N6xx_HAL_Driver/Src/stm32n6xx_hal_exti.c ****         (++) Both of them
  38:../../Drivers/STM32N6xx_HAL_Driver/Src/stm32n6xx_hal_exti.c **** 
  39:../../Drivers/STM32N6xx_HAL_Driver/Src/stm32n6xx_hal_exti.c ****     (+) When set in interrupt mode, configurable Exti lines have two different
  40:../../Drivers/STM32N6xx_HAL_Driver/Src/stm32n6xx_hal_exti.c ****         interrupt pending registers which allow to distinguish which transition
  41:../../Drivers/STM32N6xx_HAL_Driver/Src/stm32n6xx_hal_exti.c ****         occurs:
  42:../../Drivers/STM32N6xx_HAL_Driver/Src/stm32n6xx_hal_exti.c ****         (++) Rising edge pending interrupt
  43:../../Drivers/STM32N6xx_HAL_Driver/Src/stm32n6xx_hal_exti.c ****         (++) Falling
  44:../../Drivers/STM32N6xx_HAL_Driver/Src/stm32n6xx_hal_exti.c **** 
  45:../../Drivers/STM32N6xx_HAL_Driver/Src/stm32n6xx_hal_exti.c ****     (+) Exti lines 0 to 15 are linked to gpio pin number 0 to 15. Gpio port can
  46:../../Drivers/STM32N6xx_HAL_Driver/Src/stm32n6xx_hal_exti.c ****         be selected through multiplexer.
  47:../../Drivers/STM32N6xx_HAL_Driver/Src/stm32n6xx_hal_exti.c **** 
  48:../../Drivers/STM32N6xx_HAL_Driver/Src/stm32n6xx_hal_exti.c ****                      ##### How to use this driver #####
  49:../../Drivers/STM32N6xx_HAL_Driver/Src/stm32n6xx_hal_exti.c ****   ==============================================================================
  50:../../Drivers/STM32N6xx_HAL_Driver/Src/stm32n6xx_hal_exti.c ****   [..]
  51:../../Drivers/STM32N6xx_HAL_Driver/Src/stm32n6xx_hal_exti.c **** 
  52:../../Drivers/STM32N6xx_HAL_Driver/Src/stm32n6xx_hal_exti.c ****     (#) Configure the EXTI line using HAL_EXTI_SetConfigLine().
  53:../../Drivers/STM32N6xx_HAL_Driver/Src/stm32n6xx_hal_exti.c ****         (++) Choose the interrupt line number by setting "Line" member from
  54:../../Drivers/STM32N6xx_HAL_Driver/Src/stm32n6xx_hal_exti.c ****              EXTI_ConfigTypeDef structure.
  55:../../Drivers/STM32N6xx_HAL_Driver/Src/stm32n6xx_hal_exti.c ****         (++) Configure the interrupt and/or event mode using "Mode" member from
  56:../../Drivers/STM32N6xx_HAL_Driver/Src/stm32n6xx_hal_exti.c ****              EXTI_ConfigTypeDef structure.
  57:../../Drivers/STM32N6xx_HAL_Driver/Src/stm32n6xx_hal_exti.c ****         (++) For configurable lines, configure rising and/or falling trigger
  58:../../Drivers/STM32N6xx_HAL_Driver/Src/stm32n6xx_hal_exti.c ****              "Trigger" member from EXTI_ConfigTypeDef structure.
  59:../../Drivers/STM32N6xx_HAL_Driver/Src/stm32n6xx_hal_exti.c ****         (++) For Exti lines linked to gpio, choose gpio port using "GPIOSel"
  60:../../Drivers/STM32N6xx_HAL_Driver/Src/stm32n6xx_hal_exti.c ****              member from GPIO_InitTypeDef structure.
  61:../../Drivers/STM32N6xx_HAL_Driver/Src/stm32n6xx_hal_exti.c **** 
  62:../../Drivers/STM32N6xx_HAL_Driver/Src/stm32n6xx_hal_exti.c ****     (#) Get current Exti configuration of a dedicated line using
  63:../../Drivers/STM32N6xx_HAL_Driver/Src/stm32n6xx_hal_exti.c ****         HAL_EXTI_GetConfigLine().
  64:../../Drivers/STM32N6xx_HAL_Driver/Src/stm32n6xx_hal_exti.c ****         (++) Provide exiting handle as parameter.
  65:../../Drivers/STM32N6xx_HAL_Driver/Src/stm32n6xx_hal_exti.c ****         (++) Provide pointer on EXTI_ConfigTypeDef structure as second parameter.
  66:../../Drivers/STM32N6xx_HAL_Driver/Src/stm32n6xx_hal_exti.c **** 
  67:../../Drivers/STM32N6xx_HAL_Driver/Src/stm32n6xx_hal_exti.c ****     (#) Clear Exti configuration of a dedicated line using HAL_EXTI_ClearConfigLine().
  68:../../Drivers/STM32N6xx_HAL_Driver/Src/stm32n6xx_hal_exti.c ****         (++) Provide exiting handle as parameter.
  69:../../Drivers/STM32N6xx_HAL_Driver/Src/stm32n6xx_hal_exti.c **** 
  70:../../Drivers/STM32N6xx_HAL_Driver/Src/stm32n6xx_hal_exti.c ****     (#) Register callback to treat Exti interrupts using HAL_EXTI_RegisterCallback().
  71:../../Drivers/STM32N6xx_HAL_Driver/Src/stm32n6xx_hal_exti.c ****         (++) Provide exiting handle as first parameter.
  72:../../Drivers/STM32N6xx_HAL_Driver/Src/stm32n6xx_hal_exti.c ****         (++) Provide which callback will be registered using one value from
  73:../../Drivers/STM32N6xx_HAL_Driver/Src/stm32n6xx_hal_exti.c ****              EXTI_CallbackIDTypeDef.
  74:../../Drivers/STM32N6xx_HAL_Driver/Src/stm32n6xx_hal_exti.c ****         (++) Provide callback function pointer.
  75:../../Drivers/STM32N6xx_HAL_Driver/Src/stm32n6xx_hal_exti.c **** 
  76:../../Drivers/STM32N6xx_HAL_Driver/Src/stm32n6xx_hal_exti.c ****     (#) Get interrupt pending bit using HAL_EXTI_GetPending().
  77:../../Drivers/STM32N6xx_HAL_Driver/Src/stm32n6xx_hal_exti.c **** 
  78:../../Drivers/STM32N6xx_HAL_Driver/Src/stm32n6xx_hal_exti.c ****     (#) Clear interrupt pending bit using HAL_EXTI_ClearPending().
  79:../../Drivers/STM32N6xx_HAL_Driver/Src/stm32n6xx_hal_exti.c **** 
  80:../../Drivers/STM32N6xx_HAL_Driver/Src/stm32n6xx_hal_exti.c ****     (#) Generate software interrupt using HAL_EXTI_GenerateSWI().
  81:../../Drivers/STM32N6xx_HAL_Driver/Src/stm32n6xx_hal_exti.c **** 
ARM GAS  C:\Users\SMART\AppData\Local\Temp\ccszOMU3.s 			page 3


  82:../../Drivers/STM32N6xx_HAL_Driver/Src/stm32n6xx_hal_exti.c ****   @endverbatim
  83:../../Drivers/STM32N6xx_HAL_Driver/Src/stm32n6xx_hal_exti.c ****   ******************************************************************************
  84:../../Drivers/STM32N6xx_HAL_Driver/Src/stm32n6xx_hal_exti.c ****   */
  85:../../Drivers/STM32N6xx_HAL_Driver/Src/stm32n6xx_hal_exti.c **** 
  86:../../Drivers/STM32N6xx_HAL_Driver/Src/stm32n6xx_hal_exti.c **** /* Includes ------------------------------------------------------------------*/
  87:../../Drivers/STM32N6xx_HAL_Driver/Src/stm32n6xx_hal_exti.c **** #include "stm32n6xx_hal.h"
  88:../../Drivers/STM32N6xx_HAL_Driver/Src/stm32n6xx_hal_exti.c **** 
  89:../../Drivers/STM32N6xx_HAL_Driver/Src/stm32n6xx_hal_exti.c **** /** @addtogroup STM32N6xx_HAL_Driver
  90:../../Drivers/STM32N6xx_HAL_Driver/Src/stm32n6xx_hal_exti.c ****   * @{
  91:../../Drivers/STM32N6xx_HAL_Driver/Src/stm32n6xx_hal_exti.c ****   */
  92:../../Drivers/STM32N6xx_HAL_Driver/Src/stm32n6xx_hal_exti.c **** 
  93:../../Drivers/STM32N6xx_HAL_Driver/Src/stm32n6xx_hal_exti.c **** /** @addtogroup EXTI
  94:../../Drivers/STM32N6xx_HAL_Driver/Src/stm32n6xx_hal_exti.c ****   * @{
  95:../../Drivers/STM32N6xx_HAL_Driver/Src/stm32n6xx_hal_exti.c ****   */
  96:../../Drivers/STM32N6xx_HAL_Driver/Src/stm32n6xx_hal_exti.c **** 
  97:../../Drivers/STM32N6xx_HAL_Driver/Src/stm32n6xx_hal_exti.c **** #ifdef HAL_EXTI_MODULE_ENABLED
  98:../../Drivers/STM32N6xx_HAL_Driver/Src/stm32n6xx_hal_exti.c **** 
  99:../../Drivers/STM32N6xx_HAL_Driver/Src/stm32n6xx_hal_exti.c **** /* Private typedef -----------------------------------------------------------*/
 100:../../Drivers/STM32N6xx_HAL_Driver/Src/stm32n6xx_hal_exti.c **** /* Private defines ------------------------------------------------------------*/
 101:../../Drivers/STM32N6xx_HAL_Driver/Src/stm32n6xx_hal_exti.c **** /** @defgroup EXTI_Private_Constants EXTI Private Constants
 102:../../Drivers/STM32N6xx_HAL_Driver/Src/stm32n6xx_hal_exti.c ****   * @{
 103:../../Drivers/STM32N6xx_HAL_Driver/Src/stm32n6xx_hal_exti.c ****   */
 104:../../Drivers/STM32N6xx_HAL_Driver/Src/stm32n6xx_hal_exti.c **** #define EXTI_MODE_OFFSET                    0x04U   /* byte offset between IMRx/EMRx registers */
 105:../../Drivers/STM32N6xx_HAL_Driver/Src/stm32n6xx_hal_exti.c **** #define EXTI_CONFIG_OFFSET                  0x08U   /* byte offset between Rising/Falling configura
 106:../../Drivers/STM32N6xx_HAL_Driver/Src/stm32n6xx_hal_exti.c **** #define EXTI_PRIVCFGR_OFFSET                0x08U   /* byte offset between PRIVCFGRx/PRIVCFGRx regi
 107:../../Drivers/STM32N6xx_HAL_Driver/Src/stm32n6xx_hal_exti.c **** #define EXTI_SECCFGR_OFFSET                 0x08U   /* byte offset between SECCFGRx/SECCFGRx regist
 108:../../Drivers/STM32N6xx_HAL_Driver/Src/stm32n6xx_hal_exti.c **** /**
 109:../../Drivers/STM32N6xx_HAL_Driver/Src/stm32n6xx_hal_exti.c ****   * @}
 110:../../Drivers/STM32N6xx_HAL_Driver/Src/stm32n6xx_hal_exti.c ****   */
 111:../../Drivers/STM32N6xx_HAL_Driver/Src/stm32n6xx_hal_exti.c **** 
 112:../../Drivers/STM32N6xx_HAL_Driver/Src/stm32n6xx_hal_exti.c **** /* Private macros ------------------------------------------------------------*/
 113:../../Drivers/STM32N6xx_HAL_Driver/Src/stm32n6xx_hal_exti.c **** /* Private variables ---------------------------------------------------------*/
 114:../../Drivers/STM32N6xx_HAL_Driver/Src/stm32n6xx_hal_exti.c **** /* Private function prototypes -----------------------------------------------*/
 115:../../Drivers/STM32N6xx_HAL_Driver/Src/stm32n6xx_hal_exti.c **** /* Exported functions --------------------------------------------------------*/
 116:../../Drivers/STM32N6xx_HAL_Driver/Src/stm32n6xx_hal_exti.c **** 
 117:../../Drivers/STM32N6xx_HAL_Driver/Src/stm32n6xx_hal_exti.c **** /** @addtogroup EXTI_Exported_Functions
 118:../../Drivers/STM32N6xx_HAL_Driver/Src/stm32n6xx_hal_exti.c ****   * @{
 119:../../Drivers/STM32N6xx_HAL_Driver/Src/stm32n6xx_hal_exti.c ****   */
 120:../../Drivers/STM32N6xx_HAL_Driver/Src/stm32n6xx_hal_exti.c **** 
 121:../../Drivers/STM32N6xx_HAL_Driver/Src/stm32n6xx_hal_exti.c **** /** @addtogroup EXTI_Exported_Functions_Group1
 122:../../Drivers/STM32N6xx_HAL_Driver/Src/stm32n6xx_hal_exti.c ****   *  @brief    Configuration functions
 123:../../Drivers/STM32N6xx_HAL_Driver/Src/stm32n6xx_hal_exti.c ****   *
 124:../../Drivers/STM32N6xx_HAL_Driver/Src/stm32n6xx_hal_exti.c **** @verbatim
 125:../../Drivers/STM32N6xx_HAL_Driver/Src/stm32n6xx_hal_exti.c ****  ===============================================================================
 126:../../Drivers/STM32N6xx_HAL_Driver/Src/stm32n6xx_hal_exti.c ****               ##### Configuration functions #####
 127:../../Drivers/STM32N6xx_HAL_Driver/Src/stm32n6xx_hal_exti.c ****  ===============================================================================
 128:../../Drivers/STM32N6xx_HAL_Driver/Src/stm32n6xx_hal_exti.c **** 
 129:../../Drivers/STM32N6xx_HAL_Driver/Src/stm32n6xx_hal_exti.c **** @endverbatim
 130:../../Drivers/STM32N6xx_HAL_Driver/Src/stm32n6xx_hal_exti.c ****   * @{
 131:../../Drivers/STM32N6xx_HAL_Driver/Src/stm32n6xx_hal_exti.c ****   */
 132:../../Drivers/STM32N6xx_HAL_Driver/Src/stm32n6xx_hal_exti.c **** 
 133:../../Drivers/STM32N6xx_HAL_Driver/Src/stm32n6xx_hal_exti.c **** /**
 134:../../Drivers/STM32N6xx_HAL_Driver/Src/stm32n6xx_hal_exti.c ****   * @brief  Set configuration of a dedicated Exti line.
 135:../../Drivers/STM32N6xx_HAL_Driver/Src/stm32n6xx_hal_exti.c ****   * @param  hexti Exti handle.
 136:../../Drivers/STM32N6xx_HAL_Driver/Src/stm32n6xx_hal_exti.c ****   * @param  pExtiConfig Pointer on EXTI configuration to be set.
 137:../../Drivers/STM32N6xx_HAL_Driver/Src/stm32n6xx_hal_exti.c ****   * @retval HAL Status.
 138:../../Drivers/STM32N6xx_HAL_Driver/Src/stm32n6xx_hal_exti.c ****   */
ARM GAS  C:\Users\SMART\AppData\Local\Temp\ccszOMU3.s 			page 4


 139:../../Drivers/STM32N6xx_HAL_Driver/Src/stm32n6xx_hal_exti.c **** HAL_StatusTypeDef HAL_EXTI_SetConfigLine(EXTI_HandleTypeDef *hexti, const EXTI_ConfigTypeDef *pExti
 140:../../Drivers/STM32N6xx_HAL_Driver/Src/stm32n6xx_hal_exti.c **** {
  35              		.loc 1 140 1 view -0
  36              		.cfi_startproc
  37              		@ args = 0, pretend = 0, frame = 0
  38              		@ frame_needed = 0, uses_anonymous_args = 0
 141:../../Drivers/STM32N6xx_HAL_Driver/Src/stm32n6xx_hal_exti.c ****   __IO uint32_t *regaddr;
  39              		.loc 1 141 3 view .LVU1
 142:../../Drivers/STM32N6xx_HAL_Driver/Src/stm32n6xx_hal_exti.c ****   uint32_t regval;
  40              		.loc 1 142 3 view .LVU2
 143:../../Drivers/STM32N6xx_HAL_Driver/Src/stm32n6xx_hal_exti.c ****   uint32_t linepos;
  41              		.loc 1 143 3 view .LVU3
 144:../../Drivers/STM32N6xx_HAL_Driver/Src/stm32n6xx_hal_exti.c ****   uint32_t maskline;
  42              		.loc 1 144 3 view .LVU4
 145:../../Drivers/STM32N6xx_HAL_Driver/Src/stm32n6xx_hal_exti.c ****   uint32_t offset;
  43              		.loc 1 145 3 view .LVU5
 146:../../Drivers/STM32N6xx_HAL_Driver/Src/stm32n6xx_hal_exti.c **** 
 147:../../Drivers/STM32N6xx_HAL_Driver/Src/stm32n6xx_hal_exti.c ****   /* Check null pointer */
 148:../../Drivers/STM32N6xx_HAL_Driver/Src/stm32n6xx_hal_exti.c ****   if ((hexti == NULL) || (pExtiConfig == NULL))
  44              		.loc 1 148 3 view .LVU6
  45              		.loc 1 148 6 is_stmt 0 view .LVU7
  46 0000 0028     		cmp	r0, #0
  47 0002 5ED0     		beq	.L12
  48              		.loc 1 148 23 discriminator 1 view .LVU8
  49 0004 0029     		cmp	r1, #0
  50 0006 5ED0     		beq	.L13
 140:../../Drivers/STM32N6xx_HAL_Driver/Src/stm32n6xx_hal_exti.c ****   __IO uint32_t *regaddr;
  51              		.loc 1 140 1 view .LVU9
  52 0008 70B5     		push	{r4, r5, r6, lr}
  53              	.LCFI0:
  54              		.cfi_def_cfa_offset 16
  55              		.cfi_offset 4, -16
  56              		.cfi_offset 5, -12
  57              		.cfi_offset 6, -8
  58              		.cfi_offset 14, -4
 149:../../Drivers/STM32N6xx_HAL_Driver/Src/stm32n6xx_hal_exti.c ****   {
 150:../../Drivers/STM32N6xx_HAL_Driver/Src/stm32n6xx_hal_exti.c ****     return HAL_ERROR;
 151:../../Drivers/STM32N6xx_HAL_Driver/Src/stm32n6xx_hal_exti.c ****   }
 152:../../Drivers/STM32N6xx_HAL_Driver/Src/stm32n6xx_hal_exti.c **** 
 153:../../Drivers/STM32N6xx_HAL_Driver/Src/stm32n6xx_hal_exti.c ****   /* Check the parameters */
 154:../../Drivers/STM32N6xx_HAL_Driver/Src/stm32n6xx_hal_exti.c ****   assert_param(IS_EXTI_LINE(pExtiConfig->Line));
  59              		.loc 1 154 3 is_stmt 1 view .LVU10
 155:../../Drivers/STM32N6xx_HAL_Driver/Src/stm32n6xx_hal_exti.c ****   assert_param(IS_EXTI_MODE(pExtiConfig->Mode));
  60              		.loc 1 155 3 view .LVU11
 156:../../Drivers/STM32N6xx_HAL_Driver/Src/stm32n6xx_hal_exti.c **** 
 157:../../Drivers/STM32N6xx_HAL_Driver/Src/stm32n6xx_hal_exti.c ****   /* Assign line number to handle */
 158:../../Drivers/STM32N6xx_HAL_Driver/Src/stm32n6xx_hal_exti.c ****   hexti->Line = pExtiConfig->Line;
  61              		.loc 1 158 3 view .LVU12
  62              		.loc 1 158 28 is_stmt 0 view .LVU13
  63 000a 0A68     		ldr	r2, [r1]
  64              		.loc 1 158 15 view .LVU14
  65 000c 0260     		str	r2, [r0]
 159:../../Drivers/STM32N6xx_HAL_Driver/Src/stm32n6xx_hal_exti.c **** 
 160:../../Drivers/STM32N6xx_HAL_Driver/Src/stm32n6xx_hal_exti.c ****   /* compute line register offset and line mask */
 161:../../Drivers/STM32N6xx_HAL_Driver/Src/stm32n6xx_hal_exti.c ****   offset = ((pExtiConfig->Line & EXTI_REG_MASK) >> EXTI_REG_SHIFT);
  66              		.loc 1 161 3 is_stmt 1 view .LVU15
  67              		.loc 1 161 10 is_stmt 0 view .LVU16
ARM GAS  C:\Users\SMART\AppData\Local\Temp\ccszOMU3.s 			page 5


  68 000e C2F30143 		ubfx	r3, r2, #16, #2
  69              	.LVL1:
 162:../../Drivers/STM32N6xx_HAL_Driver/Src/stm32n6xx_hal_exti.c ****   linepos = (pExtiConfig->Line & EXTI_PIN_MASK);
  70              		.loc 1 162 3 is_stmt 1 view .LVU17
  71              		.loc 1 162 11 is_stmt 0 view .LVU18
  72 0012 02F01F0C 		and	ip, r2, #31
  73              	.LVL2:
 163:../../Drivers/STM32N6xx_HAL_Driver/Src/stm32n6xx_hal_exti.c ****   maskline = (1UL << linepos);
  74              		.loc 1 163 3 is_stmt 1 view .LVU19
  75              		.loc 1 163 12 is_stmt 0 view .LVU20
  76 0016 0120     		movs	r0, #1
  77              	.LVL3:
  78              		.loc 1 163 12 view .LVU21
  79 0018 00FA0CF0 		lsl	r0, r0, ip
  80              	.LVL4:
 164:../../Drivers/STM32N6xx_HAL_Driver/Src/stm32n6xx_hal_exti.c **** 
 165:../../Drivers/STM32N6xx_HAL_Driver/Src/stm32n6xx_hal_exti.c ****   /* Configure triggers for configurable lines */
 166:../../Drivers/STM32N6xx_HAL_Driver/Src/stm32n6xx_hal_exti.c ****   if ((pExtiConfig->Line & EXTI_CONFIG) != 0U)
  81              		.loc 1 166 3 is_stmt 1 view .LVU22
  82              		.loc 1 166 6 is_stmt 0 view .LVU23
  83 001c 12F0007F 		tst	r2, #33554432
  84 0020 1CD0     		beq	.L3
 167:../../Drivers/STM32N6xx_HAL_Driver/Src/stm32n6xx_hal_exti.c ****   {
 168:../../Drivers/STM32N6xx_HAL_Driver/Src/stm32n6xx_hal_exti.c ****     assert_param(IS_EXTI_TRIGGER(pExtiConfig->Trigger));
  85              		.loc 1 168 5 is_stmt 1 view .LVU24
 169:../../Drivers/STM32N6xx_HAL_Driver/Src/stm32n6xx_hal_exti.c **** 
 170:../../Drivers/STM32N6xx_HAL_Driver/Src/stm32n6xx_hal_exti.c ****     /* Configure rising trigger */
 171:../../Drivers/STM32N6xx_HAL_Driver/Src/stm32n6xx_hal_exti.c ****     regaddr = (__IO uint32_t *)(&EXTI->RTSR1 + (EXTI_CONFIG_OFFSET * offset));
  86              		.loc 1 171 5 view .LVU25
  87              		.loc 1 171 15 is_stmt 0 view .LVU26
  88 0022 4FEA431E 		lsl	lr, r3, #5
  89              		.loc 1 171 13 view .LVU27
  90 0026 0EF1AC44 		add	r4, lr, #1442840576
  91 002a 04F51434 		add	r4, r4, #151552
  92              	.LVL5:
 172:../../Drivers/STM32N6xx_HAL_Driver/Src/stm32n6xx_hal_exti.c ****     regval = *regaddr;
  93              		.loc 1 172 5 is_stmt 1 view .LVU28
  94              		.loc 1 172 12 is_stmt 0 view .LVU29
  95 002e 2568     		ldr	r5, [r4]
  96              	.LVL6:
 173:../../Drivers/STM32N6xx_HAL_Driver/Src/stm32n6xx_hal_exti.c **** 
 174:../../Drivers/STM32N6xx_HAL_Driver/Src/stm32n6xx_hal_exti.c ****     /* Mask or set line */
 175:../../Drivers/STM32N6xx_HAL_Driver/Src/stm32n6xx_hal_exti.c ****     if ((pExtiConfig->Trigger & EXTI_TRIGGER_RISING) != 0U)
  97              		.loc 1 175 5 is_stmt 1 view .LVU30
  98              		.loc 1 175 8 is_stmt 0 view .LVU31
  99 0030 8E68     		ldr	r6, [r1, #8]
 100 0032 16F0010F 		tst	r6, #1
 101 0036 24D0     		beq	.L4
 176:../../Drivers/STM32N6xx_HAL_Driver/Src/stm32n6xx_hal_exti.c ****     {
 177:../../Drivers/STM32N6xx_HAL_Driver/Src/stm32n6xx_hal_exti.c ****       regval |= maskline;
 102              		.loc 1 177 7 is_stmt 1 view .LVU32
 103              		.loc 1 177 14 is_stmt 0 view .LVU33
 104 0038 0543     		orrs	r5, r5, r0
 105              	.LVL7:
 106              	.L5:
 178:../../Drivers/STM32N6xx_HAL_Driver/Src/stm32n6xx_hal_exti.c ****     }
 179:../../Drivers/STM32N6xx_HAL_Driver/Src/stm32n6xx_hal_exti.c ****     else
ARM GAS  C:\Users\SMART\AppData\Local\Temp\ccszOMU3.s 			page 6


 180:../../Drivers/STM32N6xx_HAL_Driver/Src/stm32n6xx_hal_exti.c ****     {
 181:../../Drivers/STM32N6xx_HAL_Driver/Src/stm32n6xx_hal_exti.c ****       regval &= ~maskline;
 182:../../Drivers/STM32N6xx_HAL_Driver/Src/stm32n6xx_hal_exti.c ****     }
 183:../../Drivers/STM32N6xx_HAL_Driver/Src/stm32n6xx_hal_exti.c **** 
 184:../../Drivers/STM32N6xx_HAL_Driver/Src/stm32n6xx_hal_exti.c ****     /* Store rising trigger mode */
 185:../../Drivers/STM32N6xx_HAL_Driver/Src/stm32n6xx_hal_exti.c ****     *regaddr = regval;
 107              		.loc 1 185 5 is_stmt 1 view .LVU34
 108              		.loc 1 185 14 is_stmt 0 view .LVU35
 109 003a 2560     		str	r5, [r4]
 186:../../Drivers/STM32N6xx_HAL_Driver/Src/stm32n6xx_hal_exti.c **** 
 187:../../Drivers/STM32N6xx_HAL_Driver/Src/stm32n6xx_hal_exti.c ****     /* Configure falling trigger */
 188:../../Drivers/STM32N6xx_HAL_Driver/Src/stm32n6xx_hal_exti.c ****     regaddr = (__IO uint32_t *)(&EXTI->FTSR1 + (EXTI_CONFIG_OFFSET * offset));
 110              		.loc 1 188 5 is_stmt 1 view .LVU36
 111              		.loc 1 188 13 is_stmt 0 view .LVU37
 112 003c 234E     		ldr	r6, .L19
 113              	.LVL8:
 189:../../Drivers/STM32N6xx_HAL_Driver/Src/stm32n6xx_hal_exti.c ****     regval = *regaddr;
 114              		.loc 1 189 5 is_stmt 1 view .LVU38
 115              		.loc 1 189 12 is_stmt 0 view .LVU39
 116 003e 5EF80640 		ldr	r4, [lr, r6]
 117              	.LVL9:
 190:../../Drivers/STM32N6xx_HAL_Driver/Src/stm32n6xx_hal_exti.c **** 
 191:../../Drivers/STM32N6xx_HAL_Driver/Src/stm32n6xx_hal_exti.c ****     /* Mask or set line */
 192:../../Drivers/STM32N6xx_HAL_Driver/Src/stm32n6xx_hal_exti.c ****     if ((pExtiConfig->Trigger & EXTI_TRIGGER_FALLING) != 0U)
 118              		.loc 1 192 5 is_stmt 1 view .LVU40
 119              		.loc 1 192 21 is_stmt 0 view .LVU41
 120 0042 8D68     		ldr	r5, [r1, #8]
 121              		.loc 1 192 8 view .LVU42
 122 0044 15F0020F 		tst	r5, #2
 123 0048 1ED0     		beq	.L6
 193:../../Drivers/STM32N6xx_HAL_Driver/Src/stm32n6xx_hal_exti.c ****     {
 194:../../Drivers/STM32N6xx_HAL_Driver/Src/stm32n6xx_hal_exti.c ****       regval |= maskline;
 124              		.loc 1 194 7 is_stmt 1 view .LVU43
 125              		.loc 1 194 14 is_stmt 0 view .LVU44
 126 004a 0443     		orrs	r4, r4, r0
 127              	.LVL10:
 128              	.L7:
 195:../../Drivers/STM32N6xx_HAL_Driver/Src/stm32n6xx_hal_exti.c ****     }
 196:../../Drivers/STM32N6xx_HAL_Driver/Src/stm32n6xx_hal_exti.c ****     else
 197:../../Drivers/STM32N6xx_HAL_Driver/Src/stm32n6xx_hal_exti.c ****     {
 198:../../Drivers/STM32N6xx_HAL_Driver/Src/stm32n6xx_hal_exti.c ****       regval &= ~maskline;
 199:../../Drivers/STM32N6xx_HAL_Driver/Src/stm32n6xx_hal_exti.c ****     }
 200:../../Drivers/STM32N6xx_HAL_Driver/Src/stm32n6xx_hal_exti.c **** 
 201:../../Drivers/STM32N6xx_HAL_Driver/Src/stm32n6xx_hal_exti.c ****     /* Store falling trigger mode */
 202:../../Drivers/STM32N6xx_HAL_Driver/Src/stm32n6xx_hal_exti.c ****     *regaddr = regval;
 129              		.loc 1 202 5 is_stmt 1 view .LVU45
 130              		.loc 1 202 14 is_stmt 0 view .LVU46
 131 004c 4EF80640 		str	r4, [lr, r6]
 203:../../Drivers/STM32N6xx_HAL_Driver/Src/stm32n6xx_hal_exti.c **** 
 204:../../Drivers/STM32N6xx_HAL_Driver/Src/stm32n6xx_hal_exti.c ****     /* Configure gpio port selection in case of gpio exti line */
 205:../../Drivers/STM32N6xx_HAL_Driver/Src/stm32n6xx_hal_exti.c ****     if ((pExtiConfig->Line & EXTI_GPIO) == EXTI_GPIO)
 132              		.loc 1 205 5 is_stmt 1 view .LVU47
 133              		.loc 1 205 21 is_stmt 0 view .LVU48
 134 0050 0C68     		ldr	r4, [r1]
 135              	.LVL11:
 136              		.loc 1 205 28 view .LVU49
 137 0052 04F0C064 		and	r4, r4, #100663296
ARM GAS  C:\Users\SMART\AppData\Local\Temp\ccszOMU3.s 			page 7


 138              		.loc 1 205 8 view .LVU50
 139 0056 B4F1C06F 		cmp	r4, #100663296
 140 005a 18D0     		beq	.L18
 141              	.LVL12:
 142              	.L3:
 206:../../Drivers/STM32N6xx_HAL_Driver/Src/stm32n6xx_hal_exti.c ****     {
 207:../../Drivers/STM32N6xx_HAL_Driver/Src/stm32n6xx_hal_exti.c ****       assert_param(IS_EXTI_GPIO_PORT(pExtiConfig->GPIOSel));
 208:../../Drivers/STM32N6xx_HAL_Driver/Src/stm32n6xx_hal_exti.c ****       assert_param(IS_EXTI_GPIO_PIN(linepos));
 209:../../Drivers/STM32N6xx_HAL_Driver/Src/stm32n6xx_hal_exti.c **** 
 210:../../Drivers/STM32N6xx_HAL_Driver/Src/stm32n6xx_hal_exti.c ****       regval = EXTI->EXTICR[(linepos >> 2U) & 0x03UL];
 211:../../Drivers/STM32N6xx_HAL_Driver/Src/stm32n6xx_hal_exti.c ****       regval &= ~(EXTI_EXTICR1_EXTI0 << (EXTI_EXTICR1_EXTI1_Pos * (linepos & 0x03U)));
 212:../../Drivers/STM32N6xx_HAL_Driver/Src/stm32n6xx_hal_exti.c ****       regval |= (pExtiConfig->GPIOSel << (EXTI_EXTICR1_EXTI1_Pos * (linepos & 0x03U)));
 213:../../Drivers/STM32N6xx_HAL_Driver/Src/stm32n6xx_hal_exti.c ****       EXTI->EXTICR[(linepos >> 2U) & 0x03UL] = regval;
 214:../../Drivers/STM32N6xx_HAL_Driver/Src/stm32n6xx_hal_exti.c ****     }
 215:../../Drivers/STM32N6xx_HAL_Driver/Src/stm32n6xx_hal_exti.c ****   }
 216:../../Drivers/STM32N6xx_HAL_Driver/Src/stm32n6xx_hal_exti.c **** 
 217:../../Drivers/STM32N6xx_HAL_Driver/Src/stm32n6xx_hal_exti.c ****   /* Configure interrupt mode : read current mode */
 218:../../Drivers/STM32N6xx_HAL_Driver/Src/stm32n6xx_hal_exti.c ****   regaddr = (__IO uint32_t *)(&EXTI->IMR1 + (EXTI_MODE_OFFSET * offset));
 143              		.loc 1 218 3 is_stmt 1 view .LVU51
 144              		.loc 1 218 13 is_stmt 0 view .LVU52
 145 005c 1B01     		lsls	r3, r3, #4
 146              	.LVL13:
 147              		.loc 1 218 11 view .LVU53
 148 005e 1C4C     		ldr	r4, .L19+4
 149              	.LVL14:
 219:../../Drivers/STM32N6xx_HAL_Driver/Src/stm32n6xx_hal_exti.c ****   regval = *regaddr;
 150              		.loc 1 219 3 is_stmt 1 view .LVU54
 151              		.loc 1 219 10 is_stmt 0 view .LVU55
 152 0060 1A59     		ldr	r2, [r3, r4]
 153              	.LVL15:
 220:../../Drivers/STM32N6xx_HAL_Driver/Src/stm32n6xx_hal_exti.c **** 
 221:../../Drivers/STM32N6xx_HAL_Driver/Src/stm32n6xx_hal_exti.c ****   /* Mask or set line */
 222:../../Drivers/STM32N6xx_HAL_Driver/Src/stm32n6xx_hal_exti.c ****   if ((pExtiConfig->Mode & EXTI_MODE_INTERRUPT) != 0U)
 154              		.loc 1 222 3 is_stmt 1 view .LVU56
 155              		.loc 1 222 6 is_stmt 0 view .LVU57
 156 0062 4D68     		ldr	r5, [r1, #4]
 157 0064 15F0010F 		tst	r5, #1
 158 0068 25D0     		beq	.L8
 223:../../Drivers/STM32N6xx_HAL_Driver/Src/stm32n6xx_hal_exti.c ****   {
 224:../../Drivers/STM32N6xx_HAL_Driver/Src/stm32n6xx_hal_exti.c ****     regval |= maskline;
 159              		.loc 1 224 5 is_stmt 1 view .LVU58
 160              		.loc 1 224 12 is_stmt 0 view .LVU59
 161 006a 0243     		orrs	r2, r2, r0
 162              	.LVL16:
 163              	.L9:
 225:../../Drivers/STM32N6xx_HAL_Driver/Src/stm32n6xx_hal_exti.c ****   }
 226:../../Drivers/STM32N6xx_HAL_Driver/Src/stm32n6xx_hal_exti.c ****   else
 227:../../Drivers/STM32N6xx_HAL_Driver/Src/stm32n6xx_hal_exti.c ****   {
 228:../../Drivers/STM32N6xx_HAL_Driver/Src/stm32n6xx_hal_exti.c ****     regval &= ~maskline;
 229:../../Drivers/STM32N6xx_HAL_Driver/Src/stm32n6xx_hal_exti.c ****   }
 230:../../Drivers/STM32N6xx_HAL_Driver/Src/stm32n6xx_hal_exti.c **** 
 231:../../Drivers/STM32N6xx_HAL_Driver/Src/stm32n6xx_hal_exti.c ****   /* Store interrupt mode */
 232:../../Drivers/STM32N6xx_HAL_Driver/Src/stm32n6xx_hal_exti.c ****   *regaddr = regval;
 164              		.loc 1 232 3 is_stmt 1 view .LVU60
 165              		.loc 1 232 12 is_stmt 0 view .LVU61
 166 006c 1A51     		str	r2, [r3, r4]
 233:../../Drivers/STM32N6xx_HAL_Driver/Src/stm32n6xx_hal_exti.c **** 
ARM GAS  C:\Users\SMART\AppData\Local\Temp\ccszOMU3.s 			page 8


 234:../../Drivers/STM32N6xx_HAL_Driver/Src/stm32n6xx_hal_exti.c ****   /* Configure event mode : read current mode */
 235:../../Drivers/STM32N6xx_HAL_Driver/Src/stm32n6xx_hal_exti.c ****   regaddr = (__IO uint32_t *)(&EXTI->EMR1 + (EXTI_MODE_OFFSET * offset));
 167              		.loc 1 235 3 is_stmt 1 view .LVU62
 168              		.loc 1 235 11 is_stmt 0 view .LVU63
 169 006e 194C     		ldr	r4, .L19+8
 170              	.LVL17:
 236:../../Drivers/STM32N6xx_HAL_Driver/Src/stm32n6xx_hal_exti.c ****   regval = *regaddr;
 171              		.loc 1 236 3 is_stmt 1 view .LVU64
 172              		.loc 1 236 10 is_stmt 0 view .LVU65
 173 0070 1A59     		ldr	r2, [r3, r4]
 174              	.LVL18:
 237:../../Drivers/STM32N6xx_HAL_Driver/Src/stm32n6xx_hal_exti.c **** 
 238:../../Drivers/STM32N6xx_HAL_Driver/Src/stm32n6xx_hal_exti.c ****   /* Mask or set line */
 239:../../Drivers/STM32N6xx_HAL_Driver/Src/stm32n6xx_hal_exti.c ****   if ((pExtiConfig->Mode & EXTI_MODE_EVENT) != 0U)
 175              		.loc 1 239 3 is_stmt 1 view .LVU66
 176              		.loc 1 239 19 is_stmt 0 view .LVU67
 177 0072 4968     		ldr	r1, [r1, #4]
 178              	.LVL19:
 179              		.loc 1 239 6 view .LVU68
 180 0074 11F0020F 		tst	r1, #2
 181 0078 20D0     		beq	.L10
 240:../../Drivers/STM32N6xx_HAL_Driver/Src/stm32n6xx_hal_exti.c ****   {
 241:../../Drivers/STM32N6xx_HAL_Driver/Src/stm32n6xx_hal_exti.c ****     regval |= maskline;
 182              		.loc 1 241 5 is_stmt 1 view .LVU69
 183              		.loc 1 241 12 is_stmt 0 view .LVU70
 184 007a 0243     		orrs	r2, r2, r0
 185              	.LVL20:
 186              	.L11:
 242:../../Drivers/STM32N6xx_HAL_Driver/Src/stm32n6xx_hal_exti.c ****   }
 243:../../Drivers/STM32N6xx_HAL_Driver/Src/stm32n6xx_hal_exti.c ****   else
 244:../../Drivers/STM32N6xx_HAL_Driver/Src/stm32n6xx_hal_exti.c ****   {
 245:../../Drivers/STM32N6xx_HAL_Driver/Src/stm32n6xx_hal_exti.c ****     regval &= ~maskline;
 246:../../Drivers/STM32N6xx_HAL_Driver/Src/stm32n6xx_hal_exti.c ****   }
 247:../../Drivers/STM32N6xx_HAL_Driver/Src/stm32n6xx_hal_exti.c **** 
 248:../../Drivers/STM32N6xx_HAL_Driver/Src/stm32n6xx_hal_exti.c ****   /* Store event mode */
 249:../../Drivers/STM32N6xx_HAL_Driver/Src/stm32n6xx_hal_exti.c ****   *regaddr = regval;
 187              		.loc 1 249 3 is_stmt 1 view .LVU71
 188              		.loc 1 249 12 is_stmt 0 view .LVU72
 189 007c 1A51     		str	r2, [r3, r4]
 250:../../Drivers/STM32N6xx_HAL_Driver/Src/stm32n6xx_hal_exti.c **** 
 251:../../Drivers/STM32N6xx_HAL_Driver/Src/stm32n6xx_hal_exti.c ****   return HAL_OK;
 190              		.loc 1 251 3 is_stmt 1 view .LVU73
 191              		.loc 1 251 10 is_stmt 0 view .LVU74
 192 007e 0020     		movs	r0, #0
 193              	.LVL21:
 252:../../Drivers/STM32N6xx_HAL_Driver/Src/stm32n6xx_hal_exti.c **** }
 194              		.loc 1 252 1 view .LVU75
 195 0080 70BD     		pop	{r4, r5, r6, pc}
 196              	.LVL22:
 197              	.L4:
 181:../../Drivers/STM32N6xx_HAL_Driver/Src/stm32n6xx_hal_exti.c ****     }
 198              		.loc 1 181 7 is_stmt 1 view .LVU76
 181:../../Drivers/STM32N6xx_HAL_Driver/Src/stm32n6xx_hal_exti.c ****     }
 199              		.loc 1 181 14 is_stmt 0 view .LVU77
 200 0082 25EA0005 		bic	r5, r5, r0
 201              	.LVL23:
 181:../../Drivers/STM32N6xx_HAL_Driver/Src/stm32n6xx_hal_exti.c ****     }
ARM GAS  C:\Users\SMART\AppData\Local\Temp\ccszOMU3.s 			page 9


 202              		.loc 1 181 14 view .LVU78
 203 0086 D8E7     		b	.L5
 204              	.LVL24:
 205              	.L6:
 198:../../Drivers/STM32N6xx_HAL_Driver/Src/stm32n6xx_hal_exti.c ****     }
 206              		.loc 1 198 7 is_stmt 1 view .LVU79
 198:../../Drivers/STM32N6xx_HAL_Driver/Src/stm32n6xx_hal_exti.c ****     }
 207              		.loc 1 198 14 is_stmt 0 view .LVU80
 208 0088 24EA0004 		bic	r4, r4, r0
 209              	.LVL25:
 198:../../Drivers/STM32N6xx_HAL_Driver/Src/stm32n6xx_hal_exti.c ****     }
 210              		.loc 1 198 14 view .LVU81
 211 008c DEE7     		b	.L7
 212              	.LVL26:
 213              	.L18:
 207:../../Drivers/STM32N6xx_HAL_Driver/Src/stm32n6xx_hal_exti.c ****       assert_param(IS_EXTI_GPIO_PIN(linepos));
 214              		.loc 1 207 7 is_stmt 1 view .LVU82
 208:../../Drivers/STM32N6xx_HAL_Driver/Src/stm32n6xx_hal_exti.c **** 
 215              		.loc 1 208 7 view .LVU83
 210:../../Drivers/STM32N6xx_HAL_Driver/Src/stm32n6xx_hal_exti.c ****       regval &= ~(EXTI_EXTICR1_EXTI0 << (EXTI_EXTICR1_EXTI1_Pos * (linepos & 0x03U)));
 216              		.loc 1 210 7 view .LVU84
 210:../../Drivers/STM32N6xx_HAL_Driver/Src/stm32n6xx_hal_exti.c ****       regval &= ~(EXTI_EXTICR1_EXTI0 << (EXTI_EXTICR1_EXTI1_Pos * (linepos & 0x03U)));
 217              		.loc 1 210 45 is_stmt 0 view .LVU85
 218 008e CCF3810C 		ubfx	ip, ip, #2, #2
 219              	.LVL27:
 210:../../Drivers/STM32N6xx_HAL_Driver/Src/stm32n6xx_hal_exti.c ****       regval &= ~(EXTI_EXTICR1_EXTI0 << (EXTI_EXTICR1_EXTI1_Pos * (linepos & 0x03U)));
 220              		.loc 1 210 14 view .LVU86
 221 0092 114E     		ldr	r6, .L19+12
 222              	.LVL28:
 210:../../Drivers/STM32N6xx_HAL_Driver/Src/stm32n6xx_hal_exti.c ****       regval &= ~(EXTI_EXTICR1_EXTI0 << (EXTI_EXTICR1_EXTI1_Pos * (linepos & 0x03U)));
 223              		.loc 1 210 14 view .LVU87
 224 0094 0CF1180C 		add	ip, ip, #24
 225 0098 56F82C50 		ldr	r5, [r6, ip, lsl #2]
 226              	.LVL29:
 211:../../Drivers/STM32N6xx_HAL_Driver/Src/stm32n6xx_hal_exti.c ****       regval |= (pExtiConfig->GPIOSel << (EXTI_EXTICR1_EXTI1_Pos * (linepos & 0x03U)));
 227              		.loc 1 211 7 is_stmt 1 view .LVU88
 211:../../Drivers/STM32N6xx_HAL_Driver/Src/stm32n6xx_hal_exti.c ****       regval |= (pExtiConfig->GPIOSel << (EXTI_EXTICR1_EXTI1_Pos * (linepos & 0x03U)));
 228              		.loc 1 211 76 is_stmt 0 view .LVU89
 229 009c 02F00302 		and	r2, r2, #3
 230              	.LVL30:
 211:../../Drivers/STM32N6xx_HAL_Driver/Src/stm32n6xx_hal_exti.c ****       regval |= (pExtiConfig->GPIOSel << (EXTI_EXTICR1_EXTI1_Pos * (linepos & 0x03U)));
 231              		.loc 1 211 65 view .LVU90
 232 00a0 D200     		lsls	r2, r2, #3
 211:../../Drivers/STM32N6xx_HAL_Driver/Src/stm32n6xx_hal_exti.c ****       regval |= (pExtiConfig->GPIOSel << (EXTI_EXTICR1_EXTI1_Pos * (linepos & 0x03U)));
 233              		.loc 1 211 38 view .LVU91
 234 00a2 FF24     		movs	r4, #255
 235 00a4 9440     		lsls	r4, r4, r2
 211:../../Drivers/STM32N6xx_HAL_Driver/Src/stm32n6xx_hal_exti.c ****       regval |= (pExtiConfig->GPIOSel << (EXTI_EXTICR1_EXTI1_Pos * (linepos & 0x03U)));
 236              		.loc 1 211 14 view .LVU92
 237 00a6 25EA0405 		bic	r5, r5, r4
 238              	.LVL31:
 212:../../Drivers/STM32N6xx_HAL_Driver/Src/stm32n6xx_hal_exti.c ****       EXTI->EXTICR[(linepos >> 2U) & 0x03UL] = regval;
 239              		.loc 1 212 7 is_stmt 1 view .LVU93
 212:../../Drivers/STM32N6xx_HAL_Driver/Src/stm32n6xx_hal_exti.c ****       EXTI->EXTICR[(linepos >> 2U) & 0x03UL] = regval;
 240              		.loc 1 212 29 is_stmt 0 view .LVU94
 241 00aa CC68     		ldr	r4, [r1, #12]
 212:../../Drivers/STM32N6xx_HAL_Driver/Src/stm32n6xx_hal_exti.c ****       EXTI->EXTICR[(linepos >> 2U) & 0x03UL] = regval;
ARM GAS  C:\Users\SMART\AppData\Local\Temp\ccszOMU3.s 			page 10


 242              		.loc 1 212 39 view .LVU95
 243 00ac 9440     		lsls	r4, r4, r2
 212:../../Drivers/STM32N6xx_HAL_Driver/Src/stm32n6xx_hal_exti.c ****       EXTI->EXTICR[(linepos >> 2U) & 0x03UL] = regval;
 244              		.loc 1 212 14 view .LVU96
 245 00ae 2C43     		orrs	r4, r4, r5
 246              	.LVL32:
 213:../../Drivers/STM32N6xx_HAL_Driver/Src/stm32n6xx_hal_exti.c ****     }
 247              		.loc 1 213 7 is_stmt 1 view .LVU97
 213:../../Drivers/STM32N6xx_HAL_Driver/Src/stm32n6xx_hal_exti.c ****     }
 248              		.loc 1 213 46 is_stmt 0 view .LVU98
 249 00b0 46F82C40 		str	r4, [r6, ip, lsl #2]
 250 00b4 D2E7     		b	.L3
 251              	.LVL33:
 252              	.L8:
 228:../../Drivers/STM32N6xx_HAL_Driver/Src/stm32n6xx_hal_exti.c ****   }
 253              		.loc 1 228 5 is_stmt 1 view .LVU99
 228:../../Drivers/STM32N6xx_HAL_Driver/Src/stm32n6xx_hal_exti.c ****   }
 254              		.loc 1 228 12 is_stmt 0 view .LVU100
 255 00b6 22EA0002 		bic	r2, r2, r0
 256              	.LVL34:
 228:../../Drivers/STM32N6xx_HAL_Driver/Src/stm32n6xx_hal_exti.c ****   }
 257              		.loc 1 228 12 view .LVU101
 258 00ba D7E7     		b	.L9
 259              	.LVL35:
 260              	.L10:
 245:../../Drivers/STM32N6xx_HAL_Driver/Src/stm32n6xx_hal_exti.c ****   }
 261              		.loc 1 245 5 is_stmt 1 view .LVU102
 245:../../Drivers/STM32N6xx_HAL_Driver/Src/stm32n6xx_hal_exti.c ****   }
 262              		.loc 1 245 12 is_stmt 0 view .LVU103
 263 00bc 22EA0002 		bic	r2, r2, r0
 264              	.LVL36:
 245:../../Drivers/STM32N6xx_HAL_Driver/Src/stm32n6xx_hal_exti.c ****   }
 265              		.loc 1 245 12 view .LVU104
 266 00c0 DCE7     		b	.L11
 267              	.LVL37:
 268              	.L12:
 269              	.LCFI1:
 270              		.cfi_def_cfa_offset 0
 271              		.cfi_restore 4
 272              		.cfi_restore 5
 273              		.cfi_restore 6
 274              		.cfi_restore 14
 150:../../Drivers/STM32N6xx_HAL_Driver/Src/stm32n6xx_hal_exti.c ****   }
 275              		.loc 1 150 12 view .LVU105
 276 00c2 0120     		movs	r0, #1
 277              	.LVL38:
 150:../../Drivers/STM32N6xx_HAL_Driver/Src/stm32n6xx_hal_exti.c ****   }
 278              		.loc 1 150 12 view .LVU106
 279 00c4 7047     		bx	lr
 280              	.LVL39:
 281              	.L13:
 150:../../Drivers/STM32N6xx_HAL_Driver/Src/stm32n6xx_hal_exti.c ****   }
 282              		.loc 1 150 12 view .LVU107
 283 00c6 0120     		movs	r0, #1
 284              	.LVL40:
 285              		.loc 1 252 1 view .LVU108
 286 00c8 7047     		bx	lr
ARM GAS  C:\Users\SMART\AppData\Local\Temp\ccszOMU3.s 			page 11


 287              	.L20:
 288 00ca 00BF     		.align	2
 289              	.L19:
 290 00cc 04500256 		.word	1442992132
 291 00d0 80500256 		.word	1442992256
 292 00d4 84500256 		.word	1442992260
 293 00d8 00500256 		.word	1442992128
 294              		.cfi_endproc
 295              	.LFE862:
 297              		.section	.text.HAL_EXTI_GetConfigLine,"ax",%progbits
 298              		.align	1
 299              		.global	HAL_EXTI_GetConfigLine
 300              		.syntax unified
 301              		.thumb
 302              		.thumb_func
 304              	HAL_EXTI_GetConfigLine:
 305              	.LVL41:
 306              	.LFB863:
 253:../../Drivers/STM32N6xx_HAL_Driver/Src/stm32n6xx_hal_exti.c **** 
 254:../../Drivers/STM32N6xx_HAL_Driver/Src/stm32n6xx_hal_exti.c **** 
 255:../../Drivers/STM32N6xx_HAL_Driver/Src/stm32n6xx_hal_exti.c **** /**
 256:../../Drivers/STM32N6xx_HAL_Driver/Src/stm32n6xx_hal_exti.c ****   * @brief  Get configuration of a dedicated Exti line.
 257:../../Drivers/STM32N6xx_HAL_Driver/Src/stm32n6xx_hal_exti.c ****   * @param  hexti Exti handle.
 258:../../Drivers/STM32N6xx_HAL_Driver/Src/stm32n6xx_hal_exti.c ****   * @param  pExtiConfig Pointer on structure to store Exti configuration.
 259:../../Drivers/STM32N6xx_HAL_Driver/Src/stm32n6xx_hal_exti.c ****   * @retval HAL Status.
 260:../../Drivers/STM32N6xx_HAL_Driver/Src/stm32n6xx_hal_exti.c ****   */
 261:../../Drivers/STM32N6xx_HAL_Driver/Src/stm32n6xx_hal_exti.c **** HAL_StatusTypeDef HAL_EXTI_GetConfigLine(const EXTI_HandleTypeDef *hexti, EXTI_ConfigTypeDef *pExti
 262:../../Drivers/STM32N6xx_HAL_Driver/Src/stm32n6xx_hal_exti.c **** {
 307              		.loc 1 262 1 is_stmt 1 view -0
 308              		.cfi_startproc
 309              		@ args = 0, pretend = 0, frame = 0
 310              		@ frame_needed = 0, uses_anonymous_args = 0
 263:../../Drivers/STM32N6xx_HAL_Driver/Src/stm32n6xx_hal_exti.c ****   const __IO uint32_t *regaddr;
 311              		.loc 1 263 3 view .LVU110
 264:../../Drivers/STM32N6xx_HAL_Driver/Src/stm32n6xx_hal_exti.c ****   uint32_t regval;
 312              		.loc 1 264 3 view .LVU111
 265:../../Drivers/STM32N6xx_HAL_Driver/Src/stm32n6xx_hal_exti.c ****   uint32_t linepos;
 313              		.loc 1 265 3 view .LVU112
 266:../../Drivers/STM32N6xx_HAL_Driver/Src/stm32n6xx_hal_exti.c ****   uint32_t maskline;
 314              		.loc 1 266 3 view .LVU113
 267:../../Drivers/STM32N6xx_HAL_Driver/Src/stm32n6xx_hal_exti.c ****   uint32_t offset;
 315              		.loc 1 267 3 view .LVU114
 268:../../Drivers/STM32N6xx_HAL_Driver/Src/stm32n6xx_hal_exti.c **** 
 269:../../Drivers/STM32N6xx_HAL_Driver/Src/stm32n6xx_hal_exti.c ****   /* Check null pointer */
 270:../../Drivers/STM32N6xx_HAL_Driver/Src/stm32n6xx_hal_exti.c ****   if ((hexti == NULL) || (pExtiConfig == NULL))
 316              		.loc 1 270 3 view .LVU115
 317              		.loc 1 270 6 is_stmt 0 view .LVU116
 318 0000 0028     		cmp	r0, #0
 319 0002 55D0     		beq	.L31
 320              		.loc 1 270 23 discriminator 1 view .LVU117
 321 0004 0029     		cmp	r1, #0
 322 0006 55D0     		beq	.L32
 262:../../Drivers/STM32N6xx_HAL_Driver/Src/stm32n6xx_hal_exti.c ****   const __IO uint32_t *regaddr;
 323              		.loc 1 262 1 view .LVU118
 324 0008 10B5     		push	{r4, lr}
 325              	.LCFI2:
 326              		.cfi_def_cfa_offset 8
ARM GAS  C:\Users\SMART\AppData\Local\Temp\ccszOMU3.s 			page 12


 327              		.cfi_offset 4, -8
 328              		.cfi_offset 14, -4
 271:../../Drivers/STM32N6xx_HAL_Driver/Src/stm32n6xx_hal_exti.c ****   {
 272:../../Drivers/STM32N6xx_HAL_Driver/Src/stm32n6xx_hal_exti.c ****     return HAL_ERROR;
 273:../../Drivers/STM32N6xx_HAL_Driver/Src/stm32n6xx_hal_exti.c ****   }
 274:../../Drivers/STM32N6xx_HAL_Driver/Src/stm32n6xx_hal_exti.c **** 
 275:../../Drivers/STM32N6xx_HAL_Driver/Src/stm32n6xx_hal_exti.c ****   /* Check the parameter */
 276:../../Drivers/STM32N6xx_HAL_Driver/Src/stm32n6xx_hal_exti.c ****   assert_param(IS_EXTI_LINE(hexti->Line));
 329              		.loc 1 276 3 is_stmt 1 view .LVU119
 277:../../Drivers/STM32N6xx_HAL_Driver/Src/stm32n6xx_hal_exti.c **** 
 278:../../Drivers/STM32N6xx_HAL_Driver/Src/stm32n6xx_hal_exti.c ****   /* Store handle line number to configuration structure */
 279:../../Drivers/STM32N6xx_HAL_Driver/Src/stm32n6xx_hal_exti.c ****   pExtiConfig->Line = hexti->Line;
 330              		.loc 1 279 3 view .LVU120
 331              		.loc 1 279 28 is_stmt 0 view .LVU121
 332 000a 0368     		ldr	r3, [r0]
 333              		.loc 1 279 21 view .LVU122
 334 000c 0B60     		str	r3, [r1]
 280:../../Drivers/STM32N6xx_HAL_Driver/Src/stm32n6xx_hal_exti.c **** 
 281:../../Drivers/STM32N6xx_HAL_Driver/Src/stm32n6xx_hal_exti.c ****   /* compute line register offset and line mask */
 282:../../Drivers/STM32N6xx_HAL_Driver/Src/stm32n6xx_hal_exti.c ****   offset = ((pExtiConfig->Line & EXTI_REG_MASK) >> EXTI_REG_SHIFT);
 335              		.loc 1 282 3 is_stmt 1 view .LVU123
 336              		.loc 1 282 10 is_stmt 0 view .LVU124
 337 000e C3F30140 		ubfx	r0, r3, #16, #2
 338              	.LVL42:
 283:../../Drivers/STM32N6xx_HAL_Driver/Src/stm32n6xx_hal_exti.c ****   linepos = (pExtiConfig->Line & EXTI_PIN_MASK);
 339              		.loc 1 283 3 is_stmt 1 view .LVU125
 340              		.loc 1 283 11 is_stmt 0 view .LVU126
 341 0012 03F01F0E 		and	lr, r3, #31
 342              	.LVL43:
 284:../../Drivers/STM32N6xx_HAL_Driver/Src/stm32n6xx_hal_exti.c ****   maskline = (1UL << linepos);
 343              		.loc 1 284 3 is_stmt 1 view .LVU127
 344              		.loc 1 284 12 is_stmt 0 view .LVU128
 345 0016 0122     		movs	r2, #1
 346 0018 02FA0EF2 		lsl	r2, r2, lr
 347              	.LVL44:
 285:../../Drivers/STM32N6xx_HAL_Driver/Src/stm32n6xx_hal_exti.c **** 
 286:../../Drivers/STM32N6xx_HAL_Driver/Src/stm32n6xx_hal_exti.c ****   /* 1] Get core mode : interrupt */
 287:../../Drivers/STM32N6xx_HAL_Driver/Src/stm32n6xx_hal_exti.c ****   regaddr = (__IO uint32_t *)(&EXTI->IMR1 + (EXTI_MODE_OFFSET * offset));
 348              		.loc 1 287 3 is_stmt 1 view .LVU129
 349              		.loc 1 287 13 is_stmt 0 view .LVU130
 350 001c 4FEA001C 		lsl	ip, r0, #4
 351              		.loc 1 287 11 view .LVU131
 352 0020 254C     		ldr	r4, .L38
 353              	.LVL45:
 288:../../Drivers/STM32N6xx_HAL_Driver/Src/stm32n6xx_hal_exti.c ****   regval = *regaddr;
 354              		.loc 1 288 3 is_stmt 1 view .LVU132
 355              		.loc 1 288 10 is_stmt 0 view .LVU133
 356 0022 5CF80440 		ldr	r4, [ip, r4]
 357              	.LVL46:
 289:../../Drivers/STM32N6xx_HAL_Driver/Src/stm32n6xx_hal_exti.c **** 
 290:../../Drivers/STM32N6xx_HAL_Driver/Src/stm32n6xx_hal_exti.c ****   /* Check if selected line is enable */
 291:../../Drivers/STM32N6xx_HAL_Driver/Src/stm32n6xx_hal_exti.c ****   if ((regval & maskline) != 0U)
 358              		.loc 1 291 3 is_stmt 1 view .LVU134
 359              		.loc 1 291 6 is_stmt 0 view .LVU135
 360 0026 2242     		tst	r2, r4
 361 0028 28D0     		beq	.L23
 292:../../Drivers/STM32N6xx_HAL_Driver/Src/stm32n6xx_hal_exti.c ****   {
ARM GAS  C:\Users\SMART\AppData\Local\Temp\ccszOMU3.s 			page 13


 293:../../Drivers/STM32N6xx_HAL_Driver/Src/stm32n6xx_hal_exti.c ****     pExtiConfig->Mode = EXTI_MODE_INTERRUPT;
 362              		.loc 1 293 5 is_stmt 1 view .LVU136
 363              		.loc 1 293 23 is_stmt 0 view .LVU137
 364 002a 0124     		movs	r4, #1
 365              	.LVL47:
 366              		.loc 1 293 23 view .LVU138
 367 002c 4C60     		str	r4, [r1, #4]
 368              	.L24:
 294:../../Drivers/STM32N6xx_HAL_Driver/Src/stm32n6xx_hal_exti.c ****   }
 295:../../Drivers/STM32N6xx_HAL_Driver/Src/stm32n6xx_hal_exti.c ****   else
 296:../../Drivers/STM32N6xx_HAL_Driver/Src/stm32n6xx_hal_exti.c ****   {
 297:../../Drivers/STM32N6xx_HAL_Driver/Src/stm32n6xx_hal_exti.c ****     pExtiConfig->Mode = EXTI_MODE_NONE;
 298:../../Drivers/STM32N6xx_HAL_Driver/Src/stm32n6xx_hal_exti.c ****   }
 299:../../Drivers/STM32N6xx_HAL_Driver/Src/stm32n6xx_hal_exti.c **** 
 300:../../Drivers/STM32N6xx_HAL_Driver/Src/stm32n6xx_hal_exti.c ****   /* Get event mode */
 301:../../Drivers/STM32N6xx_HAL_Driver/Src/stm32n6xx_hal_exti.c ****   regaddr = (__IO uint32_t *)(&EXTI->EMR1 + (EXTI_MODE_OFFSET * offset));
 369              		.loc 1 301 3 is_stmt 1 view .LVU139
 370              		.loc 1 301 11 is_stmt 0 view .LVU140
 371 002e 234C     		ldr	r4, .L38+4
 372              	.LVL48:
 302:../../Drivers/STM32N6xx_HAL_Driver/Src/stm32n6xx_hal_exti.c ****   regval = *regaddr;
 373              		.loc 1 302 3 is_stmt 1 view .LVU141
 374              		.loc 1 302 10 is_stmt 0 view .LVU142
 375 0030 5CF80440 		ldr	r4, [ip, r4]
 376              	.LVL49:
 303:../../Drivers/STM32N6xx_HAL_Driver/Src/stm32n6xx_hal_exti.c **** 
 304:../../Drivers/STM32N6xx_HAL_Driver/Src/stm32n6xx_hal_exti.c ****   /* Check if selected line is enable */
 305:../../Drivers/STM32N6xx_HAL_Driver/Src/stm32n6xx_hal_exti.c ****   if ((regval & maskline) != 0U)
 377              		.loc 1 305 3 is_stmt 1 view .LVU143
 378              		.loc 1 305 6 is_stmt 0 view .LVU144
 379 0034 2242     		tst	r2, r4
 380 0036 03D0     		beq	.L25
 306:../../Drivers/STM32N6xx_HAL_Driver/Src/stm32n6xx_hal_exti.c ****   {
 307:../../Drivers/STM32N6xx_HAL_Driver/Src/stm32n6xx_hal_exti.c ****     pExtiConfig->Mode |= EXTI_MODE_EVENT;
 381              		.loc 1 307 5 is_stmt 1 view .LVU145
 382              		.loc 1 307 16 is_stmt 0 view .LVU146
 383 0038 4C68     		ldr	r4, [r1, #4]
 384              	.LVL50:
 385              		.loc 1 307 23 view .LVU147
 386 003a 44F00204 		orr	r4, r4, #2
 387 003e 4C60     		str	r4, [r1, #4]
 388              	.L25:
 308:../../Drivers/STM32N6xx_HAL_Driver/Src/stm32n6xx_hal_exti.c ****   }
 309:../../Drivers/STM32N6xx_HAL_Driver/Src/stm32n6xx_hal_exti.c **** 
 310:../../Drivers/STM32N6xx_HAL_Driver/Src/stm32n6xx_hal_exti.c ****   /* 2] Get trigger for configurable lines : rising */
 311:../../Drivers/STM32N6xx_HAL_Driver/Src/stm32n6xx_hal_exti.c ****   if ((pExtiConfig->Line & EXTI_CONFIG) != 0U)
 389              		.loc 1 311 3 is_stmt 1 view .LVU148
 390              		.loc 1 311 6 is_stmt 0 view .LVU149
 391 0040 13F0007F 		tst	r3, #33554432
 392 0044 30D0     		beq	.L26
 312:../../Drivers/STM32N6xx_HAL_Driver/Src/stm32n6xx_hal_exti.c ****   {
 313:../../Drivers/STM32N6xx_HAL_Driver/Src/stm32n6xx_hal_exti.c ****     regaddr = (__IO uint32_t *)(&EXTI->RTSR1 + (EXTI_CONFIG_OFFSET * offset));
 393              		.loc 1 313 5 is_stmt 1 view .LVU150
 394              		.loc 1 313 15 is_stmt 0 view .LVU151
 395 0046 4001     		lsls	r0, r0, #5
 396              	.LVL51:
 397              		.loc 1 313 13 view .LVU152
ARM GAS  C:\Users\SMART\AppData\Local\Temp\ccszOMU3.s 			page 14


 398 0048 00F1AC4C 		add	ip, r0, #1442840576
 399              	.LVL52:
 400              		.loc 1 313 13 view .LVU153
 401 004c 0CF5143C 		add	ip, ip, #151552
 402              	.LVL53:
 314:../../Drivers/STM32N6xx_HAL_Driver/Src/stm32n6xx_hal_exti.c ****     regval = *regaddr;
 403              		.loc 1 314 5 is_stmt 1 view .LVU154
 404              		.loc 1 314 12 is_stmt 0 view .LVU155
 405 0050 DCF80040 		ldr	r4, [ip]
 406              	.LVL54:
 315:../../Drivers/STM32N6xx_HAL_Driver/Src/stm32n6xx_hal_exti.c **** 
 316:../../Drivers/STM32N6xx_HAL_Driver/Src/stm32n6xx_hal_exti.c ****     /* Check if configuration of selected line is enable */
 317:../../Drivers/STM32N6xx_HAL_Driver/Src/stm32n6xx_hal_exti.c ****     if ((regval & maskline) != 0U)
 407              		.loc 1 317 5 is_stmt 1 view .LVU156
 408              		.loc 1 317 8 is_stmt 0 view .LVU157
 409 0054 2242     		tst	r2, r4
 410 0056 14D0     		beq	.L27
 318:../../Drivers/STM32N6xx_HAL_Driver/Src/stm32n6xx_hal_exti.c ****     {
 319:../../Drivers/STM32N6xx_HAL_Driver/Src/stm32n6xx_hal_exti.c ****       pExtiConfig->Trigger = EXTI_TRIGGER_RISING;
 411              		.loc 1 319 7 is_stmt 1 view .LVU158
 412              		.loc 1 319 28 is_stmt 0 view .LVU159
 413 0058 0124     		movs	r4, #1
 414              	.LVL55:
 415              		.loc 1 319 28 view .LVU160
 416 005a 8C60     		str	r4, [r1, #8]
 417              	.L28:
 320:../../Drivers/STM32N6xx_HAL_Driver/Src/stm32n6xx_hal_exti.c ****     }
 321:../../Drivers/STM32N6xx_HAL_Driver/Src/stm32n6xx_hal_exti.c ****     else
 322:../../Drivers/STM32N6xx_HAL_Driver/Src/stm32n6xx_hal_exti.c ****     {
 323:../../Drivers/STM32N6xx_HAL_Driver/Src/stm32n6xx_hal_exti.c ****       pExtiConfig->Trigger = EXTI_TRIGGER_NONE;
 324:../../Drivers/STM32N6xx_HAL_Driver/Src/stm32n6xx_hal_exti.c ****     }
 325:../../Drivers/STM32N6xx_HAL_Driver/Src/stm32n6xx_hal_exti.c **** 
 326:../../Drivers/STM32N6xx_HAL_Driver/Src/stm32n6xx_hal_exti.c ****     /* Get falling configuration */
 327:../../Drivers/STM32N6xx_HAL_Driver/Src/stm32n6xx_hal_exti.c ****     regaddr = (__IO uint32_t *)(&EXTI->FTSR1 + (EXTI_CONFIG_OFFSET * offset));
 418              		.loc 1 327 5 is_stmt 1 view .LVU161
 419              		.loc 1 327 13 is_stmt 0 view .LVU162
 420 005c 184C     		ldr	r4, .L38+8
 421              	.LVL56:
 328:../../Drivers/STM32N6xx_HAL_Driver/Src/stm32n6xx_hal_exti.c ****     regval = *regaddr;
 422              		.loc 1 328 5 is_stmt 1 view .LVU163
 423              		.loc 1 328 12 is_stmt 0 view .LVU164
 424 005e 0059     		ldr	r0, [r0, r4]
 425              	.LVL57:
 329:../../Drivers/STM32N6xx_HAL_Driver/Src/stm32n6xx_hal_exti.c **** 
 330:../../Drivers/STM32N6xx_HAL_Driver/Src/stm32n6xx_hal_exti.c ****     /* Check if configuration of selected line is enable */
 331:../../Drivers/STM32N6xx_HAL_Driver/Src/stm32n6xx_hal_exti.c ****     if ((regval & maskline) != 0U)
 426              		.loc 1 331 5 is_stmt 1 view .LVU165
 427              		.loc 1 331 8 is_stmt 0 view .LVU166
 428 0060 0242     		tst	r2, r0
 429 0062 03D0     		beq	.L29
 332:../../Drivers/STM32N6xx_HAL_Driver/Src/stm32n6xx_hal_exti.c ****     {
 333:../../Drivers/STM32N6xx_HAL_Driver/Src/stm32n6xx_hal_exti.c ****       pExtiConfig->Trigger |= EXTI_TRIGGER_FALLING;
 430              		.loc 1 333 7 is_stmt 1 view .LVU167
 431              		.loc 1 333 18 is_stmt 0 view .LVU168
 432 0064 8A68     		ldr	r2, [r1, #8]
 433              	.LVL58:
 434              		.loc 1 333 28 view .LVU169
ARM GAS  C:\Users\SMART\AppData\Local\Temp\ccszOMU3.s 			page 15


 435 0066 42F00202 		orr	r2, r2, #2
 436 006a 8A60     		str	r2, [r1, #8]
 437              	.L29:
 334:../../Drivers/STM32N6xx_HAL_Driver/Src/stm32n6xx_hal_exti.c ****     }
 335:../../Drivers/STM32N6xx_HAL_Driver/Src/stm32n6xx_hal_exti.c **** 
 336:../../Drivers/STM32N6xx_HAL_Driver/Src/stm32n6xx_hal_exti.c ****     /* Get Gpio port selection for gpio lines */
 337:../../Drivers/STM32N6xx_HAL_Driver/Src/stm32n6xx_hal_exti.c ****     if ((pExtiConfig->Line & EXTI_GPIO) == EXTI_GPIO)
 438              		.loc 1 337 5 is_stmt 1 view .LVU170
 439              		.loc 1 337 28 is_stmt 0 view .LVU171
 440 006c 03F0C062 		and	r2, r3, #100663296
 441              		.loc 1 337 8 view .LVU172
 442 0070 B2F1C06F 		cmp	r2, #100663296
 443 0074 08D0     		beq	.L37
 338:../../Drivers/STM32N6xx_HAL_Driver/Src/stm32n6xx_hal_exti.c ****     {
 339:../../Drivers/STM32N6xx_HAL_Driver/Src/stm32n6xx_hal_exti.c ****       assert_param(IS_EXTI_GPIO_PIN(linepos));
 340:../../Drivers/STM32N6xx_HAL_Driver/Src/stm32n6xx_hal_exti.c **** 
 341:../../Drivers/STM32N6xx_HAL_Driver/Src/stm32n6xx_hal_exti.c ****       regval = EXTI->EXTICR[(linepos >> 2U) & 0x03UL];
 342:../../Drivers/STM32N6xx_HAL_Driver/Src/stm32n6xx_hal_exti.c ****       pExtiConfig->GPIOSel = (regval >> (EXTI_EXTICR1_EXTI1_Pos * (linepos & 0x03u))) & EXTI_EXTICR
 343:../../Drivers/STM32N6xx_HAL_Driver/Src/stm32n6xx_hal_exti.c ****     }
 344:../../Drivers/STM32N6xx_HAL_Driver/Src/stm32n6xx_hal_exti.c ****     else
 345:../../Drivers/STM32N6xx_HAL_Driver/Src/stm32n6xx_hal_exti.c ****     {
 346:../../Drivers/STM32N6xx_HAL_Driver/Src/stm32n6xx_hal_exti.c ****       pExtiConfig->GPIOSel = 0U;
 444              		.loc 1 346 7 is_stmt 1 view .LVU173
 445              		.loc 1 346 28 is_stmt 0 view .LVU174
 446 0076 0020     		movs	r0, #0
 447              	.LVL59:
 448              		.loc 1 346 28 view .LVU175
 449 0078 C860     		str	r0, [r1, #12]
 450 007a 18E0     		b	.L22
 451              	.LVL60:
 452              	.L23:
 297:../../Drivers/STM32N6xx_HAL_Driver/Src/stm32n6xx_hal_exti.c ****   }
 453              		.loc 1 297 5 is_stmt 1 view .LVU176
 297:../../Drivers/STM32N6xx_HAL_Driver/Src/stm32n6xx_hal_exti.c ****   }
 454              		.loc 1 297 23 is_stmt 0 view .LVU177
 455 007c 0024     		movs	r4, #0
 456              	.LVL61:
 297:../../Drivers/STM32N6xx_HAL_Driver/Src/stm32n6xx_hal_exti.c ****   }
 457              		.loc 1 297 23 view .LVU178
 458 007e 4C60     		str	r4, [r1, #4]
 459 0080 D5E7     		b	.L24
 460              	.LVL62:
 461              	.L27:
 323:../../Drivers/STM32N6xx_HAL_Driver/Src/stm32n6xx_hal_exti.c ****     }
 462              		.loc 1 323 7 is_stmt 1 view .LVU179
 323:../../Drivers/STM32N6xx_HAL_Driver/Src/stm32n6xx_hal_exti.c ****     }
 463              		.loc 1 323 28 is_stmt 0 view .LVU180
 464 0082 0024     		movs	r4, #0
 465              	.LVL63:
 323:../../Drivers/STM32N6xx_HAL_Driver/Src/stm32n6xx_hal_exti.c ****     }
 466              		.loc 1 323 28 view .LVU181
 467 0084 8C60     		str	r4, [r1, #8]
 468 0086 E9E7     		b	.L28
 469              	.LVL64:
 470              	.L37:
 339:../../Drivers/STM32N6xx_HAL_Driver/Src/stm32n6xx_hal_exti.c **** 
 471              		.loc 1 339 7 is_stmt 1 view .LVU182
ARM GAS  C:\Users\SMART\AppData\Local\Temp\ccszOMU3.s 			page 16


 341:../../Drivers/STM32N6xx_HAL_Driver/Src/stm32n6xx_hal_exti.c ****       pExtiConfig->GPIOSel = (regval >> (EXTI_EXTICR1_EXTI1_Pos * (linepos & 0x03u))) & EXTI_EXTICR
 472              		.loc 1 341 7 view .LVU183
 341:../../Drivers/STM32N6xx_HAL_Driver/Src/stm32n6xx_hal_exti.c ****       pExtiConfig->GPIOSel = (regval >> (EXTI_EXTICR1_EXTI1_Pos * (linepos & 0x03u))) & EXTI_EXTICR
 473              		.loc 1 341 45 is_stmt 0 view .LVU184
 474 0088 CEF3810E 		ubfx	lr, lr, #2, #2
 475              	.LVL65:
 341:../../Drivers/STM32N6xx_HAL_Driver/Src/stm32n6xx_hal_exti.c ****       pExtiConfig->GPIOSel = (regval >> (EXTI_EXTICR1_EXTI1_Pos * (linepos & 0x03u))) & EXTI_EXTICR
 476              		.loc 1 341 14 view .LVU185
 477 008c 0EF1180E 		add	lr, lr, #24
 478 0090 0C4A     		ldr	r2, .L38+12
 479 0092 52F82E20 		ldr	r2, [r2, lr, lsl #2]
 480              	.LVL66:
 342:../../Drivers/STM32N6xx_HAL_Driver/Src/stm32n6xx_hal_exti.c ****     }
 481              		.loc 1 342 7 is_stmt 1 view .LVU186
 342:../../Drivers/STM32N6xx_HAL_Driver/Src/stm32n6xx_hal_exti.c ****     }
 482              		.loc 1 342 76 is_stmt 0 view .LVU187
 483 0096 03F00303 		and	r3, r3, #3
 484              	.LVL67:
 342:../../Drivers/STM32N6xx_HAL_Driver/Src/stm32n6xx_hal_exti.c ****     }
 485              		.loc 1 342 65 view .LVU188
 486 009a DB00     		lsls	r3, r3, #3
 342:../../Drivers/STM32N6xx_HAL_Driver/Src/stm32n6xx_hal_exti.c ****     }
 487              		.loc 1 342 38 view .LVU189
 488 009c 22FA03F3 		lsr	r3, r2, r3
 342:../../Drivers/STM32N6xx_HAL_Driver/Src/stm32n6xx_hal_exti.c ****     }
 489              		.loc 1 342 87 view .LVU190
 490 00a0 DBB2     		uxtb	r3, r3
 342:../../Drivers/STM32N6xx_HAL_Driver/Src/stm32n6xx_hal_exti.c ****     }
 491              		.loc 1 342 28 view .LVU191
 492 00a2 CB60     		str	r3, [r1, #12]
 347:../../Drivers/STM32N6xx_HAL_Driver/Src/stm32n6xx_hal_exti.c ****     }
 348:../../Drivers/STM32N6xx_HAL_Driver/Src/stm32n6xx_hal_exti.c ****   }
 349:../../Drivers/STM32N6xx_HAL_Driver/Src/stm32n6xx_hal_exti.c ****   else
 350:../../Drivers/STM32N6xx_HAL_Driver/Src/stm32n6xx_hal_exti.c ****   {
 351:../../Drivers/STM32N6xx_HAL_Driver/Src/stm32n6xx_hal_exti.c ****     pExtiConfig->Trigger = EXTI_TRIGGER_NONE;
 352:../../Drivers/STM32N6xx_HAL_Driver/Src/stm32n6xx_hal_exti.c ****     pExtiConfig->GPIOSel = 0U;
 353:../../Drivers/STM32N6xx_HAL_Driver/Src/stm32n6xx_hal_exti.c ****   }
 354:../../Drivers/STM32N6xx_HAL_Driver/Src/stm32n6xx_hal_exti.c **** 
 355:../../Drivers/STM32N6xx_HAL_Driver/Src/stm32n6xx_hal_exti.c ****   return HAL_OK;
 493              		.loc 1 355 10 view .LVU192
 494 00a4 0020     		movs	r0, #0
 495 00a6 02E0     		b	.L22
 496              	.LVL68:
 497              	.L26:
 351:../../Drivers/STM32N6xx_HAL_Driver/Src/stm32n6xx_hal_exti.c ****     pExtiConfig->GPIOSel = 0U;
 498              		.loc 1 351 5 is_stmt 1 view .LVU193
 351:../../Drivers/STM32N6xx_HAL_Driver/Src/stm32n6xx_hal_exti.c ****     pExtiConfig->GPIOSel = 0U;
 499              		.loc 1 351 26 is_stmt 0 view .LVU194
 500 00a8 0020     		movs	r0, #0
 501              	.LVL69:
 351:../../Drivers/STM32N6xx_HAL_Driver/Src/stm32n6xx_hal_exti.c ****     pExtiConfig->GPIOSel = 0U;
 502              		.loc 1 351 26 view .LVU195
 503 00aa 8860     		str	r0, [r1, #8]
 352:../../Drivers/STM32N6xx_HAL_Driver/Src/stm32n6xx_hal_exti.c ****   }
 504              		.loc 1 352 5 is_stmt 1 view .LVU196
 352:../../Drivers/STM32N6xx_HAL_Driver/Src/stm32n6xx_hal_exti.c ****   }
 505              		.loc 1 352 26 is_stmt 0 view .LVU197
ARM GAS  C:\Users\SMART\AppData\Local\Temp\ccszOMU3.s 			page 17


 506 00ac C860     		str	r0, [r1, #12]
 507              	.LVL70:
 508              	.L22:
 356:../../Drivers/STM32N6xx_HAL_Driver/Src/stm32n6xx_hal_exti.c **** }
 509              		.loc 1 356 1 view .LVU198
 510 00ae 10BD     		pop	{r4, pc}
 511              	.LVL71:
 512              	.L31:
 513              	.LCFI3:
 514              		.cfi_def_cfa_offset 0
 515              		.cfi_restore 4
 516              		.cfi_restore 14
 272:../../Drivers/STM32N6xx_HAL_Driver/Src/stm32n6xx_hal_exti.c ****   }
 517              		.loc 1 272 12 view .LVU199
 518 00b0 0120     		movs	r0, #1
 519              	.LVL72:
 272:../../Drivers/STM32N6xx_HAL_Driver/Src/stm32n6xx_hal_exti.c ****   }
 520              		.loc 1 272 12 view .LVU200
 521 00b2 7047     		bx	lr
 522              	.LVL73:
 523              	.L32:
 272:../../Drivers/STM32N6xx_HAL_Driver/Src/stm32n6xx_hal_exti.c ****   }
 524              		.loc 1 272 12 view .LVU201
 525 00b4 0120     		movs	r0, #1
 526              	.LVL74:
 527              		.loc 1 356 1 view .LVU202
 528 00b6 7047     		bx	lr
 529              	.L39:
 530              		.align	2
 531              	.L38:
 532 00b8 80500256 		.word	1442992256
 533 00bc 84500256 		.word	1442992260
 534 00c0 04500256 		.word	1442992132
 535 00c4 00500256 		.word	1442992128
 536              		.cfi_endproc
 537              	.LFE863:
 539              		.section	.text.HAL_EXTI_ClearConfigLine,"ax",%progbits
 540              		.align	1
 541              		.global	HAL_EXTI_ClearConfigLine
 542              		.syntax unified
 543              		.thumb
 544              		.thumb_func
 546              	HAL_EXTI_ClearConfigLine:
 547              	.LVL75:
 548              	.LFB864:
 357:../../Drivers/STM32N6xx_HAL_Driver/Src/stm32n6xx_hal_exti.c **** 
 358:../../Drivers/STM32N6xx_HAL_Driver/Src/stm32n6xx_hal_exti.c **** 
 359:../../Drivers/STM32N6xx_HAL_Driver/Src/stm32n6xx_hal_exti.c **** /**
 360:../../Drivers/STM32N6xx_HAL_Driver/Src/stm32n6xx_hal_exti.c ****   * @brief  Clear whole configuration of a dedicated Exti line.
 361:../../Drivers/STM32N6xx_HAL_Driver/Src/stm32n6xx_hal_exti.c ****   * @param  hexti Exti handle.
 362:../../Drivers/STM32N6xx_HAL_Driver/Src/stm32n6xx_hal_exti.c ****   * @retval HAL Status.
 363:../../Drivers/STM32N6xx_HAL_Driver/Src/stm32n6xx_hal_exti.c ****   */
 364:../../Drivers/STM32N6xx_HAL_Driver/Src/stm32n6xx_hal_exti.c **** HAL_StatusTypeDef HAL_EXTI_ClearConfigLine(const EXTI_HandleTypeDef *hexti)
 365:../../Drivers/STM32N6xx_HAL_Driver/Src/stm32n6xx_hal_exti.c **** {
 549              		.loc 1 365 1 is_stmt 1 view -0
 550              		.cfi_startproc
 551              		@ args = 0, pretend = 0, frame = 0
ARM GAS  C:\Users\SMART\AppData\Local\Temp\ccszOMU3.s 			page 18


 552              		@ frame_needed = 0, uses_anonymous_args = 0
 366:../../Drivers/STM32N6xx_HAL_Driver/Src/stm32n6xx_hal_exti.c ****   __IO uint32_t *regaddr;
 553              		.loc 1 366 3 view .LVU204
 367:../../Drivers/STM32N6xx_HAL_Driver/Src/stm32n6xx_hal_exti.c ****   uint32_t regval;
 554              		.loc 1 367 3 view .LVU205
 368:../../Drivers/STM32N6xx_HAL_Driver/Src/stm32n6xx_hal_exti.c ****   uint32_t linepos;
 555              		.loc 1 368 3 view .LVU206
 369:../../Drivers/STM32N6xx_HAL_Driver/Src/stm32n6xx_hal_exti.c ****   uint32_t maskline;
 556              		.loc 1 369 3 view .LVU207
 370:../../Drivers/STM32N6xx_HAL_Driver/Src/stm32n6xx_hal_exti.c ****   uint32_t offset;
 557              		.loc 1 370 3 view .LVU208
 371:../../Drivers/STM32N6xx_HAL_Driver/Src/stm32n6xx_hal_exti.c **** 
 372:../../Drivers/STM32N6xx_HAL_Driver/Src/stm32n6xx_hal_exti.c ****   /* Check null pointer */
 373:../../Drivers/STM32N6xx_HAL_Driver/Src/stm32n6xx_hal_exti.c ****   if (hexti == NULL)
 558              		.loc 1 373 3 view .LVU209
 559              		.loc 1 373 6 is_stmt 0 view .LVU210
 560 0000 0028     		cmp	r0, #0
 561 0002 41D0     		beq	.L42
 365:../../Drivers/STM32N6xx_HAL_Driver/Src/stm32n6xx_hal_exti.c ****   __IO uint32_t *regaddr;
 562              		.loc 1 365 1 view .LVU211
 563 0004 70B5     		push	{r4, r5, r6, lr}
 564              	.LCFI4:
 565              		.cfi_def_cfa_offset 16
 566              		.cfi_offset 4, -16
 567              		.cfi_offset 5, -12
 568              		.cfi_offset 6, -8
 569              		.cfi_offset 14, -4
 570 0006 8446     		mov	ip, r0
 374:../../Drivers/STM32N6xx_HAL_Driver/Src/stm32n6xx_hal_exti.c ****   {
 375:../../Drivers/STM32N6xx_HAL_Driver/Src/stm32n6xx_hal_exti.c ****     return HAL_ERROR;
 376:../../Drivers/STM32N6xx_HAL_Driver/Src/stm32n6xx_hal_exti.c ****   }
 377:../../Drivers/STM32N6xx_HAL_Driver/Src/stm32n6xx_hal_exti.c **** 
 378:../../Drivers/STM32N6xx_HAL_Driver/Src/stm32n6xx_hal_exti.c ****   /* Check the parameter */
 379:../../Drivers/STM32N6xx_HAL_Driver/Src/stm32n6xx_hal_exti.c ****   assert_param(IS_EXTI_LINE(hexti->Line));
 571              		.loc 1 379 3 is_stmt 1 view .LVU212
 380:../../Drivers/STM32N6xx_HAL_Driver/Src/stm32n6xx_hal_exti.c **** 
 381:../../Drivers/STM32N6xx_HAL_Driver/Src/stm32n6xx_hal_exti.c ****   /* compute line register offset and line mask */
 382:../../Drivers/STM32N6xx_HAL_Driver/Src/stm32n6xx_hal_exti.c ****   offset = ((hexti->Line & EXTI_REG_MASK) >> EXTI_REG_SHIFT);
 572              		.loc 1 382 3 view .LVU213
 573              		.loc 1 382 19 is_stmt 0 view .LVU214
 574 0008 0468     		ldr	r4, [r0]
 575              		.loc 1 382 10 view .LVU215
 576 000a C4F30141 		ubfx	r1, r4, #16, #2
 577              	.LVL76:
 383:../../Drivers/STM32N6xx_HAL_Driver/Src/stm32n6xx_hal_exti.c ****   linepos = (hexti->Line & EXTI_PIN_MASK);
 578              		.loc 1 383 3 is_stmt 1 view .LVU216
 579              		.loc 1 383 11 is_stmt 0 view .LVU217
 580 000e 04F01F0E 		and	lr, r4, #31
 581              	.LVL77:
 384:../../Drivers/STM32N6xx_HAL_Driver/Src/stm32n6xx_hal_exti.c ****   maskline = (1UL << linepos);
 582              		.loc 1 384 3 is_stmt 1 view .LVU218
 583              		.loc 1 384 12 is_stmt 0 view .LVU219
 584 0012 0123     		movs	r3, #1
 585 0014 03FA0EF3 		lsl	r3, r3, lr
 586              	.LVL78:
 385:../../Drivers/STM32N6xx_HAL_Driver/Src/stm32n6xx_hal_exti.c **** 
 386:../../Drivers/STM32N6xx_HAL_Driver/Src/stm32n6xx_hal_exti.c ****   /* 1] Clear interrupt mode */
ARM GAS  C:\Users\SMART\AppData\Local\Temp\ccszOMU3.s 			page 19


 387:../../Drivers/STM32N6xx_HAL_Driver/Src/stm32n6xx_hal_exti.c ****   regaddr = (__IO uint32_t *)(&EXTI->IMR1 + (EXTI_MODE_OFFSET * offset));
 587              		.loc 1 387 3 is_stmt 1 view .LVU220
 588              		.loc 1 387 13 is_stmt 0 view .LVU221
 589 0018 0A01     		lsls	r2, r1, #4
 590              		.loc 1 387 11 view .LVU222
 591 001a 1D4D     		ldr	r5, .L50
 592              	.LVL79:
 388:../../Drivers/STM32N6xx_HAL_Driver/Src/stm32n6xx_hal_exti.c ****   regval = (*regaddr & ~maskline);
 593              		.loc 1 388 3 is_stmt 1 view .LVU223
 594              		.loc 1 388 13 is_stmt 0 view .LVU224
 595 001c 5059     		ldr	r0, [r2, r5]
 596              	.LVL80:
 597              		.loc 1 388 24 view .LVU225
 598 001e DE43     		mvns	r6, r3
 599              		.loc 1 388 10 view .LVU226
 600 0020 20EA0300 		bic	r0, r0, r3
 601              	.LVL81:
 389:../../Drivers/STM32N6xx_HAL_Driver/Src/stm32n6xx_hal_exti.c ****   *regaddr = regval;
 602              		.loc 1 389 3 is_stmt 1 view .LVU227
 603              		.loc 1 389 12 is_stmt 0 view .LVU228
 604 0024 5051     		str	r0, [r2, r5]
 390:../../Drivers/STM32N6xx_HAL_Driver/Src/stm32n6xx_hal_exti.c **** 
 391:../../Drivers/STM32N6xx_HAL_Driver/Src/stm32n6xx_hal_exti.c ****   /* 2] Clear event mode */
 392:../../Drivers/STM32N6xx_HAL_Driver/Src/stm32n6xx_hal_exti.c ****   regaddr = (__IO uint32_t *)(&EXTI->EMR1 + (EXTI_MODE_OFFSET * offset));
 605              		.loc 1 392 3 is_stmt 1 view .LVU229
 606              		.loc 1 392 11 is_stmt 0 view .LVU230
 607 0026 0435     		adds	r5, r5, #4
 608              	.LVL82:
 393:../../Drivers/STM32N6xx_HAL_Driver/Src/stm32n6xx_hal_exti.c ****   regval = (*regaddr & ~maskline);
 609              		.loc 1 393 3 is_stmt 1 view .LVU231
 610              		.loc 1 393 13 is_stmt 0 view .LVU232
 611 0028 5059     		ldr	r0, [r2, r5]
 612              	.LVL83:
 613              		.loc 1 393 10 view .LVU233
 614 002a 20EA0303 		bic	r3, r0, r3
 615              	.LVL84:
 394:../../Drivers/STM32N6xx_HAL_Driver/Src/stm32n6xx_hal_exti.c ****   *regaddr = regval;
 616              		.loc 1 394 3 is_stmt 1 view .LVU234
 617              		.loc 1 394 12 is_stmt 0 view .LVU235
 618 002e 5351     		str	r3, [r2, r5]
 395:../../Drivers/STM32N6xx_HAL_Driver/Src/stm32n6xx_hal_exti.c **** 
 396:../../Drivers/STM32N6xx_HAL_Driver/Src/stm32n6xx_hal_exti.c ****   /* 3] Clear triggers in case of configurable lines */
 397:../../Drivers/STM32N6xx_HAL_Driver/Src/stm32n6xx_hal_exti.c ****   if ((hexti->Line & EXTI_CONFIG) != 0U)
 619              		.loc 1 397 3 is_stmt 1 view .LVU236
 620              		.loc 1 397 13 is_stmt 0 view .LVU237
 621 0030 DCF80030 		ldr	r3, [ip]
 622              	.LVL85:
 623              		.loc 1 397 6 view .LVU238
 624 0034 13F0007F 		tst	r3, #33554432
 625 0038 28D0     		beq	.L43
 398:../../Drivers/STM32N6xx_HAL_Driver/Src/stm32n6xx_hal_exti.c ****   {
 399:../../Drivers/STM32N6xx_HAL_Driver/Src/stm32n6xx_hal_exti.c ****     regaddr = (__IO uint32_t *)(&EXTI->RTSR1 + (EXTI_CONFIG_OFFSET * offset));
 626              		.loc 1 399 5 is_stmt 1 view .LVU239
 627              		.loc 1 399 15 is_stmt 0 view .LVU240
 628 003a 4901     		lsls	r1, r1, #5
 629              	.LVL86:
 630              		.loc 1 399 13 view .LVU241
ARM GAS  C:\Users\SMART\AppData\Local\Temp\ccszOMU3.s 			page 20


 631 003c 01F1AC43 		add	r3, r1, #1442840576
 632 0040 03F51433 		add	r3, r3, #151552
 633              	.LVL87:
 400:../../Drivers/STM32N6xx_HAL_Driver/Src/stm32n6xx_hal_exti.c ****     regval = (*regaddr & ~maskline);
 634              		.loc 1 400 5 is_stmt 1 view .LVU242
 635              		.loc 1 400 15 is_stmt 0 view .LVU243
 636 0044 1A68     		ldr	r2, [r3]
 637              	.LVL88:
 638              		.loc 1 400 12 view .LVU244
 639 0046 3240     		ands	r2, r2, r6
 640              	.LVL89:
 401:../../Drivers/STM32N6xx_HAL_Driver/Src/stm32n6xx_hal_exti.c ****     *regaddr = regval;
 641              		.loc 1 401 5 is_stmt 1 view .LVU245
 642              		.loc 1 401 14 is_stmt 0 view .LVU246
 643 0048 1A60     		str	r2, [r3]
 402:../../Drivers/STM32N6xx_HAL_Driver/Src/stm32n6xx_hal_exti.c **** 
 403:../../Drivers/STM32N6xx_HAL_Driver/Src/stm32n6xx_hal_exti.c ****     regaddr = (__IO uint32_t *)(&EXTI->FTSR1 + (EXTI_CONFIG_OFFSET * offset));
 644              		.loc 1 403 5 is_stmt 1 view .LVU247
 645              		.loc 1 403 13 is_stmt 0 view .LVU248
 646 004a 124B     		ldr	r3, .L50+4
 647              	.LVL90:
 404:../../Drivers/STM32N6xx_HAL_Driver/Src/stm32n6xx_hal_exti.c ****     regval = (*regaddr & ~maskline);
 648              		.loc 1 404 5 is_stmt 1 view .LVU249
 649              		.loc 1 404 15 is_stmt 0 view .LVU250
 650 004c CA58     		ldr	r2, [r1, r3]
 651              	.LVL91:
 652              		.loc 1 404 12 view .LVU251
 653 004e 1640     		ands	r6, r6, r2
 654              	.LVL92:
 405:../../Drivers/STM32N6xx_HAL_Driver/Src/stm32n6xx_hal_exti.c ****     *regaddr = regval;
 655              		.loc 1 405 5 is_stmt 1 view .LVU252
 656              		.loc 1 405 14 is_stmt 0 view .LVU253
 657 0050 CE50     		str	r6, [r1, r3]
 406:../../Drivers/STM32N6xx_HAL_Driver/Src/stm32n6xx_hal_exti.c **** 
 407:../../Drivers/STM32N6xx_HAL_Driver/Src/stm32n6xx_hal_exti.c ****     /* Get Gpio port selection for gpio lines */
 408:../../Drivers/STM32N6xx_HAL_Driver/Src/stm32n6xx_hal_exti.c ****     if ((hexti->Line & EXTI_GPIO) == EXTI_GPIO)
 658              		.loc 1 408 5 is_stmt 1 view .LVU254
 659              		.loc 1 408 15 is_stmt 0 view .LVU255
 660 0052 DCF80030 		ldr	r3, [ip]
 661              	.LVL93:
 662              		.loc 1 408 22 view .LVU256
 663 0056 03F0C063 		and	r3, r3, #100663296
 664              		.loc 1 408 8 view .LVU257
 665 005a B3F1C06F 		cmp	r3, #100663296
 666 005e 01D0     		beq	.L49
 409:../../Drivers/STM32N6xx_HAL_Driver/Src/stm32n6xx_hal_exti.c ****     {
 410:../../Drivers/STM32N6xx_HAL_Driver/Src/stm32n6xx_hal_exti.c ****       assert_param(IS_EXTI_GPIO_PIN(linepos));
 411:../../Drivers/STM32N6xx_HAL_Driver/Src/stm32n6xx_hal_exti.c **** 
 412:../../Drivers/STM32N6xx_HAL_Driver/Src/stm32n6xx_hal_exti.c ****       regval = EXTI->EXTICR[(linepos >> 2U) & 0x03UL];
 413:../../Drivers/STM32N6xx_HAL_Driver/Src/stm32n6xx_hal_exti.c ****       regval &= ~(EXTI_EXTICR1_EXTI0 << (EXTI_EXTICR1_EXTI1_Pos * (linepos & 0x03U)));
 414:../../Drivers/STM32N6xx_HAL_Driver/Src/stm32n6xx_hal_exti.c ****       EXTI->EXTICR[(linepos >> 2U) & 0x03UL] = regval;
 415:../../Drivers/STM32N6xx_HAL_Driver/Src/stm32n6xx_hal_exti.c ****     }
 416:../../Drivers/STM32N6xx_HAL_Driver/Src/stm32n6xx_hal_exti.c ****   }
 417:../../Drivers/STM32N6xx_HAL_Driver/Src/stm32n6xx_hal_exti.c **** 
 418:../../Drivers/STM32N6xx_HAL_Driver/Src/stm32n6xx_hal_exti.c ****   return HAL_OK;
 667              		.loc 1 418 10 view .LVU258
 668 0060 0020     		movs	r0, #0
ARM GAS  C:\Users\SMART\AppData\Local\Temp\ccszOMU3.s 			page 21


 669 0062 14E0     		b	.L41
 670              	.L49:
 410:../../Drivers/STM32N6xx_HAL_Driver/Src/stm32n6xx_hal_exti.c **** 
 671              		.loc 1 410 7 is_stmt 1 view .LVU259
 412:../../Drivers/STM32N6xx_HAL_Driver/Src/stm32n6xx_hal_exti.c ****       regval &= ~(EXTI_EXTICR1_EXTI0 << (EXTI_EXTICR1_EXTI1_Pos * (linepos & 0x03U)));
 672              		.loc 1 412 7 view .LVU260
 412:../../Drivers/STM32N6xx_HAL_Driver/Src/stm32n6xx_hal_exti.c ****       regval &= ~(EXTI_EXTICR1_EXTI0 << (EXTI_EXTICR1_EXTI1_Pos * (linepos & 0x03U)));
 673              		.loc 1 412 45 is_stmt 0 view .LVU261
 674 0064 CEF3810E 		ubfx	lr, lr, #2, #2
 675              	.LVL94:
 412:../../Drivers/STM32N6xx_HAL_Driver/Src/stm32n6xx_hal_exti.c ****       regval &= ~(EXTI_EXTICR1_EXTI0 << (EXTI_EXTICR1_EXTI1_Pos * (linepos & 0x03U)));
 676              		.loc 1 412 14 view .LVU262
 677 0068 0B49     		ldr	r1, .L50+8
 678              	.LVL95:
 412:../../Drivers/STM32N6xx_HAL_Driver/Src/stm32n6xx_hal_exti.c ****       regval &= ~(EXTI_EXTICR1_EXTI0 << (EXTI_EXTICR1_EXTI1_Pos * (linepos & 0x03U)));
 679              		.loc 1 412 14 view .LVU263
 680 006a 0EF1180E 		add	lr, lr, #24
 681 006e 51F82E30 		ldr	r3, [r1, lr, lsl #2]
 682              	.LVL96:
 413:../../Drivers/STM32N6xx_HAL_Driver/Src/stm32n6xx_hal_exti.c ****       EXTI->EXTICR[(linepos >> 2U) & 0x03UL] = regval;
 683              		.loc 1 413 7 is_stmt 1 view .LVU264
 413:../../Drivers/STM32N6xx_HAL_Driver/Src/stm32n6xx_hal_exti.c ****       EXTI->EXTICR[(linepos >> 2U) & 0x03UL] = regval;
 684              		.loc 1 413 76 is_stmt 0 view .LVU265
 685 0072 04F00304 		and	r4, r4, #3
 686              	.LVL97:
 413:../../Drivers/STM32N6xx_HAL_Driver/Src/stm32n6xx_hal_exti.c ****       EXTI->EXTICR[(linepos >> 2U) & 0x03UL] = regval;
 687              		.loc 1 413 65 view .LVU266
 688 0076 E400     		lsls	r4, r4, #3
 413:../../Drivers/STM32N6xx_HAL_Driver/Src/stm32n6xx_hal_exti.c ****       EXTI->EXTICR[(linepos >> 2U) & 0x03UL] = regval;
 689              		.loc 1 413 38 view .LVU267
 690 0078 FF22     		movs	r2, #255
 691 007a A240     		lsls	r2, r2, r4
 413:../../Drivers/STM32N6xx_HAL_Driver/Src/stm32n6xx_hal_exti.c ****       EXTI->EXTICR[(linepos >> 2U) & 0x03UL] = regval;
 692              		.loc 1 413 14 view .LVU268
 693 007c 23EA0203 		bic	r3, r3, r2
 694              	.LVL98:
 414:../../Drivers/STM32N6xx_HAL_Driver/Src/stm32n6xx_hal_exti.c ****     }
 695              		.loc 1 414 7 is_stmt 1 view .LVU269
 414:../../Drivers/STM32N6xx_HAL_Driver/Src/stm32n6xx_hal_exti.c ****     }
 696              		.loc 1 414 46 is_stmt 0 view .LVU270
 697 0080 41F82E30 		str	r3, [r1, lr, lsl #2]
 698              		.loc 1 418 10 view .LVU271
 699 0084 0020     		movs	r0, #0
 700 0086 02E0     		b	.L41
 701              	.LVL99:
 702              	.L42:
 703              	.LCFI5:
 704              		.cfi_def_cfa_offset 0
 705              		.cfi_restore 4
 706              		.cfi_restore 5
 707              		.cfi_restore 6
 708              		.cfi_restore 14
 375:../../Drivers/STM32N6xx_HAL_Driver/Src/stm32n6xx_hal_exti.c ****   }
 709              		.loc 1 375 12 view .LVU272
 710 0088 0120     		movs	r0, #1
 711              	.LVL100:
 419:../../Drivers/STM32N6xx_HAL_Driver/Src/stm32n6xx_hal_exti.c **** }
ARM GAS  C:\Users\SMART\AppData\Local\Temp\ccszOMU3.s 			page 22


 712              		.loc 1 419 1 view .LVU273
 713 008a 7047     		bx	lr
 714              	.LVL101:
 715              	.L43:
 716              	.LCFI6:
 717              		.cfi_def_cfa_offset 16
 718              		.cfi_offset 4, -16
 719              		.cfi_offset 5, -12
 720              		.cfi_offset 6, -8
 721              		.cfi_offset 14, -4
 418:../../Drivers/STM32N6xx_HAL_Driver/Src/stm32n6xx_hal_exti.c **** }
 722              		.loc 1 418 10 view .LVU274
 723 008c 0020     		movs	r0, #0
 724              	.LVL102:
 725              	.L41:
 726              		.loc 1 419 1 view .LVU275
 727 008e 70BD     		pop	{r4, r5, r6, pc}
 728              	.L51:
 729              		.align	2
 730              	.L50:
 731 0090 80500256 		.word	1442992256
 732 0094 04500256 		.word	1442992132
 733 0098 00500256 		.word	1442992128
 734              		.cfi_endproc
 735              	.LFE864:
 737              		.section	.text.HAL_EXTI_RegisterCallback,"ax",%progbits
 738              		.align	1
 739              		.global	HAL_EXTI_RegisterCallback
 740              		.syntax unified
 741              		.thumb
 742              		.thumb_func
 744              	HAL_EXTI_RegisterCallback:
 745              	.LVL103:
 746              	.LFB865:
 420:../../Drivers/STM32N6xx_HAL_Driver/Src/stm32n6xx_hal_exti.c **** 
 421:../../Drivers/STM32N6xx_HAL_Driver/Src/stm32n6xx_hal_exti.c **** 
 422:../../Drivers/STM32N6xx_HAL_Driver/Src/stm32n6xx_hal_exti.c **** /**
 423:../../Drivers/STM32N6xx_HAL_Driver/Src/stm32n6xx_hal_exti.c ****   * @brief  Register callback for a dedicated Exti line.
 424:../../Drivers/STM32N6xx_HAL_Driver/Src/stm32n6xx_hal_exti.c ****   * @param  hexti Exti handle.
 425:../../Drivers/STM32N6xx_HAL_Driver/Src/stm32n6xx_hal_exti.c ****   * @param  CallbackID User callback identifier.
 426:../../Drivers/STM32N6xx_HAL_Driver/Src/stm32n6xx_hal_exti.c ****   *         This parameter can be one of @arg @ref EXTI_CallbackIDTypeDef values.
 427:../../Drivers/STM32N6xx_HAL_Driver/Src/stm32n6xx_hal_exti.c ****   * @param  pPendingCbfn function pointer to be stored as callback.
 428:../../Drivers/STM32N6xx_HAL_Driver/Src/stm32n6xx_hal_exti.c ****   * @retval HAL Status.
 429:../../Drivers/STM32N6xx_HAL_Driver/Src/stm32n6xx_hal_exti.c ****   */
 430:../../Drivers/STM32N6xx_HAL_Driver/Src/stm32n6xx_hal_exti.c **** HAL_StatusTypeDef HAL_EXTI_RegisterCallback(EXTI_HandleTypeDef *hexti, EXTI_CallbackIDTypeDef Callb
 431:../../Drivers/STM32N6xx_HAL_Driver/Src/stm32n6xx_hal_exti.c ****                                             void (*pPendingCbfn)(void))
 432:../../Drivers/STM32N6xx_HAL_Driver/Src/stm32n6xx_hal_exti.c **** {
 747              		.loc 1 432 1 is_stmt 1 view -0
 748              		.cfi_startproc
 749              		@ args = 0, pretend = 0, frame = 0
 750              		@ frame_needed = 0, uses_anonymous_args = 0
 751              		@ link register save eliminated.
 433:../../Drivers/STM32N6xx_HAL_Driver/Src/stm32n6xx_hal_exti.c ****   HAL_StatusTypeDef status = HAL_OK;
 752              		.loc 1 433 3 view .LVU277
 434:../../Drivers/STM32N6xx_HAL_Driver/Src/stm32n6xx_hal_exti.c **** 
 435:../../Drivers/STM32N6xx_HAL_Driver/Src/stm32n6xx_hal_exti.c ****   switch (CallbackID)
 753              		.loc 1 435 3 view .LVU278
ARM GAS  C:\Users\SMART\AppData\Local\Temp\ccszOMU3.s 			page 23


 754 0000 0129     		cmp	r1, #1
 755 0002 06D0     		beq	.L53
 756 0004 0229     		cmp	r1, #2
 757 0006 07D0     		beq	.L54
 758 0008 49B9     		cbnz	r1, .L56
 436:../../Drivers/STM32N6xx_HAL_Driver/Src/stm32n6xx_hal_exti.c ****   {
 437:../../Drivers/STM32N6xx_HAL_Driver/Src/stm32n6xx_hal_exti.c ****     case  HAL_EXTI_COMMON_CB_ID:
 438:../../Drivers/STM32N6xx_HAL_Driver/Src/stm32n6xx_hal_exti.c ****       hexti->RisingCallback = pPendingCbfn;
 759              		.loc 1 438 7 view .LVU279
 760              		.loc 1 438 29 is_stmt 0 view .LVU280
 761 000a 4260     		str	r2, [r0, #4]
 439:../../Drivers/STM32N6xx_HAL_Driver/Src/stm32n6xx_hal_exti.c ****       hexti->FallingCallback = pPendingCbfn;
 762              		.loc 1 439 7 is_stmt 1 view .LVU281
 763              		.loc 1 439 30 is_stmt 0 view .LVU282
 764 000c 8260     		str	r2, [r0, #8]
 440:../../Drivers/STM32N6xx_HAL_Driver/Src/stm32n6xx_hal_exti.c ****       break;
 765              		.loc 1 440 7 is_stmt 1 view .LVU283
 433:../../Drivers/STM32N6xx_HAL_Driver/Src/stm32n6xx_hal_exti.c **** 
 766              		.loc 1 433 21 is_stmt 0 view .LVU284
 767 000e 0846     		mov	r0, r1
 768              	.LVL104:
 769              		.loc 1 440 7 view .LVU285
 770 0010 7047     		bx	lr
 771              	.LVL105:
 772              	.L53:
 441:../../Drivers/STM32N6xx_HAL_Driver/Src/stm32n6xx_hal_exti.c **** 
 442:../../Drivers/STM32N6xx_HAL_Driver/Src/stm32n6xx_hal_exti.c ****     case  HAL_EXTI_RISING_CB_ID:
 443:../../Drivers/STM32N6xx_HAL_Driver/Src/stm32n6xx_hal_exti.c ****       hexti->RisingCallback = pPendingCbfn;
 773              		.loc 1 443 7 is_stmt 1 view .LVU286
 774              		.loc 1 443 29 is_stmt 0 view .LVU287
 775 0012 4260     		str	r2, [r0, #4]
 444:../../Drivers/STM32N6xx_HAL_Driver/Src/stm32n6xx_hal_exti.c ****       break;
 776              		.loc 1 444 7 is_stmt 1 view .LVU288
 433:../../Drivers/STM32N6xx_HAL_Driver/Src/stm32n6xx_hal_exti.c **** 
 777              		.loc 1 433 21 is_stmt 0 view .LVU289
 778 0014 0020     		movs	r0, #0
 779              	.LVL106:
 780              		.loc 1 444 7 view .LVU290
 781 0016 7047     		bx	lr
 782              	.LVL107:
 783              	.L54:
 445:../../Drivers/STM32N6xx_HAL_Driver/Src/stm32n6xx_hal_exti.c **** 
 446:../../Drivers/STM32N6xx_HAL_Driver/Src/stm32n6xx_hal_exti.c ****     case  HAL_EXTI_FALLING_CB_ID:
 447:../../Drivers/STM32N6xx_HAL_Driver/Src/stm32n6xx_hal_exti.c ****       hexti->FallingCallback = pPendingCbfn;
 784              		.loc 1 447 7 is_stmt 1 view .LVU291
 785              		.loc 1 447 30 is_stmt 0 view .LVU292
 786 0018 8260     		str	r2, [r0, #8]
 448:../../Drivers/STM32N6xx_HAL_Driver/Src/stm32n6xx_hal_exti.c ****       break;
 787              		.loc 1 448 7 is_stmt 1 view .LVU293
 433:../../Drivers/STM32N6xx_HAL_Driver/Src/stm32n6xx_hal_exti.c **** 
 788              		.loc 1 433 21 is_stmt 0 view .LVU294
 789 001a 0020     		movs	r0, #0
 790              	.LVL108:
 791              		.loc 1 448 7 view .LVU295
 792 001c 7047     		bx	lr
 793              	.LVL109:
 794              	.L56:
ARM GAS  C:\Users\SMART\AppData\Local\Temp\ccszOMU3.s 			page 24


 435:../../Drivers/STM32N6xx_HAL_Driver/Src/stm32n6xx_hal_exti.c ****   {
 795              		.loc 1 435 3 view .LVU296
 796 001e 0120     		movs	r0, #1
 797              	.LVL110:
 449:../../Drivers/STM32N6xx_HAL_Driver/Src/stm32n6xx_hal_exti.c **** 
 450:../../Drivers/STM32N6xx_HAL_Driver/Src/stm32n6xx_hal_exti.c ****     default:
 451:../../Drivers/STM32N6xx_HAL_Driver/Src/stm32n6xx_hal_exti.c ****       status = HAL_ERROR;
 452:../../Drivers/STM32N6xx_HAL_Driver/Src/stm32n6xx_hal_exti.c ****       break;
 453:../../Drivers/STM32N6xx_HAL_Driver/Src/stm32n6xx_hal_exti.c ****   }
 454:../../Drivers/STM32N6xx_HAL_Driver/Src/stm32n6xx_hal_exti.c **** 
 455:../../Drivers/STM32N6xx_HAL_Driver/Src/stm32n6xx_hal_exti.c ****   return status;
 798              		.loc 1 455 3 is_stmt 1 view .LVU297
 456:../../Drivers/STM32N6xx_HAL_Driver/Src/stm32n6xx_hal_exti.c **** }
 799              		.loc 1 456 1 is_stmt 0 view .LVU298
 800 0020 7047     		bx	lr
 801              		.cfi_endproc
 802              	.LFE865:
 804              		.section	.text.HAL_EXTI_GetHandle,"ax",%progbits
 805              		.align	1
 806              		.global	HAL_EXTI_GetHandle
 807              		.syntax unified
 808              		.thumb
 809              		.thumb_func
 811              	HAL_EXTI_GetHandle:
 812              	.LVL111:
 813              	.LFB866:
 457:../../Drivers/STM32N6xx_HAL_Driver/Src/stm32n6xx_hal_exti.c **** 
 458:../../Drivers/STM32N6xx_HAL_Driver/Src/stm32n6xx_hal_exti.c **** 
 459:../../Drivers/STM32N6xx_HAL_Driver/Src/stm32n6xx_hal_exti.c **** /**
 460:../../Drivers/STM32N6xx_HAL_Driver/Src/stm32n6xx_hal_exti.c ****   * @brief  Store line number as handle private field.
 461:../../Drivers/STM32N6xx_HAL_Driver/Src/stm32n6xx_hal_exti.c ****   * @param  hexti Exti handle.
 462:../../Drivers/STM32N6xx_HAL_Driver/Src/stm32n6xx_hal_exti.c ****   * @param  ExtiLine Exti line number.
 463:../../Drivers/STM32N6xx_HAL_Driver/Src/stm32n6xx_hal_exti.c ****   *         This parameter can be from 0 to @ref EXTI_LINE_NB.
 464:../../Drivers/STM32N6xx_HAL_Driver/Src/stm32n6xx_hal_exti.c ****   * @retval HAL Status.
 465:../../Drivers/STM32N6xx_HAL_Driver/Src/stm32n6xx_hal_exti.c ****   */
 466:../../Drivers/STM32N6xx_HAL_Driver/Src/stm32n6xx_hal_exti.c **** HAL_StatusTypeDef HAL_EXTI_GetHandle(EXTI_HandleTypeDef *hexti, uint32_t ExtiLine)
 467:../../Drivers/STM32N6xx_HAL_Driver/Src/stm32n6xx_hal_exti.c **** {
 814              		.loc 1 467 1 is_stmt 1 view -0
 815              		.cfi_startproc
 816              		@ args = 0, pretend = 0, frame = 0
 817              		@ frame_needed = 0, uses_anonymous_args = 0
 818              		@ link register save eliminated.
 468:../../Drivers/STM32N6xx_HAL_Driver/Src/stm32n6xx_hal_exti.c ****   /* Check the parameters */
 469:../../Drivers/STM32N6xx_HAL_Driver/Src/stm32n6xx_hal_exti.c ****   assert_param(IS_EXTI_LINE(ExtiLine));
 819              		.loc 1 469 3 view .LVU300
 470:../../Drivers/STM32N6xx_HAL_Driver/Src/stm32n6xx_hal_exti.c **** 
 471:../../Drivers/STM32N6xx_HAL_Driver/Src/stm32n6xx_hal_exti.c ****   /* Check null pointer */
 472:../../Drivers/STM32N6xx_HAL_Driver/Src/stm32n6xx_hal_exti.c ****   if (hexti == NULL)
 820              		.loc 1 472 3 view .LVU301
 821              		.loc 1 472 6 is_stmt 0 view .LVU302
 822 0000 10B1     		cbz	r0, .L59
 473:../../Drivers/STM32N6xx_HAL_Driver/Src/stm32n6xx_hal_exti.c ****   {
 474:../../Drivers/STM32N6xx_HAL_Driver/Src/stm32n6xx_hal_exti.c ****     return HAL_ERROR;
 475:../../Drivers/STM32N6xx_HAL_Driver/Src/stm32n6xx_hal_exti.c ****   }
 476:../../Drivers/STM32N6xx_HAL_Driver/Src/stm32n6xx_hal_exti.c ****   else
 477:../../Drivers/STM32N6xx_HAL_Driver/Src/stm32n6xx_hal_exti.c ****   {
 478:../../Drivers/STM32N6xx_HAL_Driver/Src/stm32n6xx_hal_exti.c ****     /* Store line number as handle private field */
ARM GAS  C:\Users\SMART\AppData\Local\Temp\ccszOMU3.s 			page 25


 479:../../Drivers/STM32N6xx_HAL_Driver/Src/stm32n6xx_hal_exti.c ****     hexti->Line = ExtiLine;
 823              		.loc 1 479 5 is_stmt 1 view .LVU303
 824              		.loc 1 479 17 is_stmt 0 view .LVU304
 825 0002 0160     		str	r1, [r0]
 480:../../Drivers/STM32N6xx_HAL_Driver/Src/stm32n6xx_hal_exti.c **** 
 481:../../Drivers/STM32N6xx_HAL_Driver/Src/stm32n6xx_hal_exti.c ****     return HAL_OK;
 826              		.loc 1 481 5 is_stmt 1 view .LVU305
 827              		.loc 1 481 12 is_stmt 0 view .LVU306
 828 0004 0020     		movs	r0, #0
 829              	.LVL112:
 830              		.loc 1 481 12 view .LVU307
 831 0006 7047     		bx	lr
 832              	.LVL113:
 833              	.L59:
 474:../../Drivers/STM32N6xx_HAL_Driver/Src/stm32n6xx_hal_exti.c ****   }
 834              		.loc 1 474 12 view .LVU308
 835 0008 0120     		movs	r0, #1
 836              	.LVL114:
 482:../../Drivers/STM32N6xx_HAL_Driver/Src/stm32n6xx_hal_exti.c ****   }
 483:../../Drivers/STM32N6xx_HAL_Driver/Src/stm32n6xx_hal_exti.c **** }
 837              		.loc 1 483 1 view .LVU309
 838 000a 7047     		bx	lr
 839              		.cfi_endproc
 840              	.LFE866:
 842              		.section	.text.HAL_EXTI_IRQHandler,"ax",%progbits
 843              		.align	1
 844              		.global	HAL_EXTI_IRQHandler
 845              		.syntax unified
 846              		.thumb
 847              		.thumb_func
 849              	HAL_EXTI_IRQHandler:
 850              	.LVL115:
 851              	.LFB867:
 484:../../Drivers/STM32N6xx_HAL_Driver/Src/stm32n6xx_hal_exti.c **** 
 485:../../Drivers/STM32N6xx_HAL_Driver/Src/stm32n6xx_hal_exti.c **** 
 486:../../Drivers/STM32N6xx_HAL_Driver/Src/stm32n6xx_hal_exti.c **** /**
 487:../../Drivers/STM32N6xx_HAL_Driver/Src/stm32n6xx_hal_exti.c ****   * @}
 488:../../Drivers/STM32N6xx_HAL_Driver/Src/stm32n6xx_hal_exti.c ****   */
 489:../../Drivers/STM32N6xx_HAL_Driver/Src/stm32n6xx_hal_exti.c **** 
 490:../../Drivers/STM32N6xx_HAL_Driver/Src/stm32n6xx_hal_exti.c **** /** @addtogroup EXTI_Exported_Functions_Group2
 491:../../Drivers/STM32N6xx_HAL_Driver/Src/stm32n6xx_hal_exti.c ****   *  @brief EXTI IO functions.
 492:../../Drivers/STM32N6xx_HAL_Driver/Src/stm32n6xx_hal_exti.c ****   *
 493:../../Drivers/STM32N6xx_HAL_Driver/Src/stm32n6xx_hal_exti.c **** @verbatim
 494:../../Drivers/STM32N6xx_HAL_Driver/Src/stm32n6xx_hal_exti.c ****  ===============================================================================
 495:../../Drivers/STM32N6xx_HAL_Driver/Src/stm32n6xx_hal_exti.c ****                        ##### IO operation functions #####
 496:../../Drivers/STM32N6xx_HAL_Driver/Src/stm32n6xx_hal_exti.c ****  ===============================================================================
 497:../../Drivers/STM32N6xx_HAL_Driver/Src/stm32n6xx_hal_exti.c **** 
 498:../../Drivers/STM32N6xx_HAL_Driver/Src/stm32n6xx_hal_exti.c **** @endverbatim
 499:../../Drivers/STM32N6xx_HAL_Driver/Src/stm32n6xx_hal_exti.c ****   * @{
 500:../../Drivers/STM32N6xx_HAL_Driver/Src/stm32n6xx_hal_exti.c ****   */
 501:../../Drivers/STM32N6xx_HAL_Driver/Src/stm32n6xx_hal_exti.c **** 
 502:../../Drivers/STM32N6xx_HAL_Driver/Src/stm32n6xx_hal_exti.c **** /**
 503:../../Drivers/STM32N6xx_HAL_Driver/Src/stm32n6xx_hal_exti.c ****   * @brief  Handle EXTI interrupt request.
 504:../../Drivers/STM32N6xx_HAL_Driver/Src/stm32n6xx_hal_exti.c ****   * @param  hexti Exti handle.
 505:../../Drivers/STM32N6xx_HAL_Driver/Src/stm32n6xx_hal_exti.c ****   * @retval none.
 506:../../Drivers/STM32N6xx_HAL_Driver/Src/stm32n6xx_hal_exti.c ****   */
 507:../../Drivers/STM32N6xx_HAL_Driver/Src/stm32n6xx_hal_exti.c **** void HAL_EXTI_IRQHandler(const EXTI_HandleTypeDef *hexti)
ARM GAS  C:\Users\SMART\AppData\Local\Temp\ccszOMU3.s 			page 26


 508:../../Drivers/STM32N6xx_HAL_Driver/Src/stm32n6xx_hal_exti.c **** {
 852              		.loc 1 508 1 is_stmt 1 view -0
 853              		.cfi_startproc
 854              		@ args = 0, pretend = 0, frame = 0
 855              		@ frame_needed = 0, uses_anonymous_args = 0
 856              		.loc 1 508 1 is_stmt 0 view .LVU311
 857 0000 70B5     		push	{r4, r5, r6, lr}
 858              	.LCFI7:
 859              		.cfi_def_cfa_offset 16
 860              		.cfi_offset 4, -16
 861              		.cfi_offset 5, -12
 862              		.cfi_offset 6, -8
 863              		.cfi_offset 14, -4
 864 0002 0646     		mov	r6, r0
 509:../../Drivers/STM32N6xx_HAL_Driver/Src/stm32n6xx_hal_exti.c ****   __IO uint32_t *regaddr;
 865              		.loc 1 509 3 is_stmt 1 view .LVU312
 510:../../Drivers/STM32N6xx_HAL_Driver/Src/stm32n6xx_hal_exti.c ****   uint32_t regval;
 866              		.loc 1 510 3 view .LVU313
 511:../../Drivers/STM32N6xx_HAL_Driver/Src/stm32n6xx_hal_exti.c ****   uint32_t maskline;
 867              		.loc 1 511 3 view .LVU314
 512:../../Drivers/STM32N6xx_HAL_Driver/Src/stm32n6xx_hal_exti.c ****   uint32_t offset;
 868              		.loc 1 512 3 view .LVU315
 513:../../Drivers/STM32N6xx_HAL_Driver/Src/stm32n6xx_hal_exti.c **** 
 514:../../Drivers/STM32N6xx_HAL_Driver/Src/stm32n6xx_hal_exti.c ****   /* Compute line register offset and line mask */
 515:../../Drivers/STM32N6xx_HAL_Driver/Src/stm32n6xx_hal_exti.c ****   offset = ((hexti->Line & EXTI_REG_MASK) >> EXTI_REG_SHIFT);
 869              		.loc 1 515 3 view .LVU316
 870              		.loc 1 515 19 is_stmt 0 view .LVU317
 871 0004 0368     		ldr	r3, [r0]
 872              		.loc 1 515 10 view .LVU318
 873 0006 C3F30144 		ubfx	r4, r3, #16, #2
 874              	.LVL116:
 516:../../Drivers/STM32N6xx_HAL_Driver/Src/stm32n6xx_hal_exti.c ****   maskline = (1UL << (hexti->Line & EXTI_PIN_MASK));
 875              		.loc 1 516 3 is_stmt 1 view .LVU319
 876              		.loc 1 516 35 is_stmt 0 view .LVU320
 877 000a 03F01F03 		and	r3, r3, #31
 878              		.loc 1 516 12 view .LVU321
 879 000e 0125     		movs	r5, #1
 880 0010 9D40     		lsls	r5, r5, r3
 881              	.LVL117:
 517:../../Drivers/STM32N6xx_HAL_Driver/Src/stm32n6xx_hal_exti.c **** 
 518:../../Drivers/STM32N6xx_HAL_Driver/Src/stm32n6xx_hal_exti.c ****   /* Get rising edge pending bit  */
 519:../../Drivers/STM32N6xx_HAL_Driver/Src/stm32n6xx_hal_exti.c ****   regaddr = (__IO uint32_t *)(&EXTI->RPR1 + (EXTI_CONFIG_OFFSET * offset));
 882              		.loc 1 519 3 is_stmt 1 view .LVU322
 883              		.loc 1 519 13 is_stmt 0 view .LVU323
 884 0012 6401     		lsls	r4, r4, #5
 885              	.LVL118:
 886              		.loc 1 519 11 view .LVU324
 887 0014 084B     		ldr	r3, .L64
 888              	.LVL119:
 520:../../Drivers/STM32N6xx_HAL_Driver/Src/stm32n6xx_hal_exti.c ****   regval = (*regaddr & maskline);
 889              		.loc 1 520 3 is_stmt 1 view .LVU325
 890              		.loc 1 520 13 is_stmt 0 view .LVU326
 891 0016 E258     		ldr	r2, [r4, r3]
 892              	.LVL120:
 521:../../Drivers/STM32N6xx_HAL_Driver/Src/stm32n6xx_hal_exti.c **** 
 522:../../Drivers/STM32N6xx_HAL_Driver/Src/stm32n6xx_hal_exti.c ****   if (regval != 0U)
 893              		.loc 1 522 3 is_stmt 1 view .LVU327
ARM GAS  C:\Users\SMART\AppData\Local\Temp\ccszOMU3.s 			page 27


 894              		.loc 1 522 6 is_stmt 0 view .LVU328
 895 0018 2A42     		tst	r2, r5
 896 001a 03D0     		beq	.L61
 523:../../Drivers/STM32N6xx_HAL_Driver/Src/stm32n6xx_hal_exti.c ****   {
 524:../../Drivers/STM32N6xx_HAL_Driver/Src/stm32n6xx_hal_exti.c ****     /* Clear pending bit */
 525:../../Drivers/STM32N6xx_HAL_Driver/Src/stm32n6xx_hal_exti.c ****     *regaddr = maskline;
 897              		.loc 1 525 5 is_stmt 1 view .LVU329
 898              		.loc 1 525 14 is_stmt 0 view .LVU330
 899 001c E550     		str	r5, [r4, r3]
 900              	.LVL121:
 526:../../Drivers/STM32N6xx_HAL_Driver/Src/stm32n6xx_hal_exti.c **** 
 527:../../Drivers/STM32N6xx_HAL_Driver/Src/stm32n6xx_hal_exti.c ****     /* Call rising callback */
 528:../../Drivers/STM32N6xx_HAL_Driver/Src/stm32n6xx_hal_exti.c ****     if (hexti->RisingCallback != NULL)
 901              		.loc 1 528 5 is_stmt 1 view .LVU331
 902              		.loc 1 528 14 is_stmt 0 view .LVU332
 903 001e 4368     		ldr	r3, [r0, #4]
 904              	.LVL122:
 905              		.loc 1 528 8 view .LVU333
 906 0020 03B1     		cbz	r3, .L61
 529:../../Drivers/STM32N6xx_HAL_Driver/Src/stm32n6xx_hal_exti.c ****     {
 530:../../Drivers/STM32N6xx_HAL_Driver/Src/stm32n6xx_hal_exti.c ****       hexti->RisingCallback();
 907              		.loc 1 530 7 is_stmt 1 view .LVU334
 908 0022 9847     		blx	r3
 909              	.LVL123:
 910              	.L61:
 531:../../Drivers/STM32N6xx_HAL_Driver/Src/stm32n6xx_hal_exti.c ****     }
 532:../../Drivers/STM32N6xx_HAL_Driver/Src/stm32n6xx_hal_exti.c ****   }
 533:../../Drivers/STM32N6xx_HAL_Driver/Src/stm32n6xx_hal_exti.c **** 
 534:../../Drivers/STM32N6xx_HAL_Driver/Src/stm32n6xx_hal_exti.c ****   /* Get falling edge pending bit  */
 535:../../Drivers/STM32N6xx_HAL_Driver/Src/stm32n6xx_hal_exti.c ****   regaddr = (__IO uint32_t *)(&EXTI->FPR1 + (EXTI_CONFIG_OFFSET * offset));
 911              		.loc 1 535 3 view .LVU335
 912              		.loc 1 535 11 is_stmt 0 view .LVU336
 913 0024 054B     		ldr	r3, .L64+4
 914              	.LVL124:
 536:../../Drivers/STM32N6xx_HAL_Driver/Src/stm32n6xx_hal_exti.c ****   regval = (*regaddr & maskline);
 915              		.loc 1 536 3 is_stmt 1 view .LVU337
 916              		.loc 1 536 13 is_stmt 0 view .LVU338
 917 0026 E258     		ldr	r2, [r4, r3]
 918              	.LVL125:
 537:../../Drivers/STM32N6xx_HAL_Driver/Src/stm32n6xx_hal_exti.c **** 
 538:../../Drivers/STM32N6xx_HAL_Driver/Src/stm32n6xx_hal_exti.c ****   if (regval != 0U)
 919              		.loc 1 538 3 is_stmt 1 view .LVU339
 920              		.loc 1 538 6 is_stmt 0 view .LVU340
 921 0028 2A42     		tst	r2, r5
 922 002a 03D0     		beq	.L60
 539:../../Drivers/STM32N6xx_HAL_Driver/Src/stm32n6xx_hal_exti.c ****   {
 540:../../Drivers/STM32N6xx_HAL_Driver/Src/stm32n6xx_hal_exti.c ****     /* Clear pending bit */
 541:../../Drivers/STM32N6xx_HAL_Driver/Src/stm32n6xx_hal_exti.c ****     *regaddr = maskline;
 923              		.loc 1 541 5 is_stmt 1 view .LVU341
 924              		.loc 1 541 14 is_stmt 0 view .LVU342
 925 002c E550     		str	r5, [r4, r3]
 542:../../Drivers/STM32N6xx_HAL_Driver/Src/stm32n6xx_hal_exti.c **** 
 543:../../Drivers/STM32N6xx_HAL_Driver/Src/stm32n6xx_hal_exti.c ****     /* Call falling callback */
 544:../../Drivers/STM32N6xx_HAL_Driver/Src/stm32n6xx_hal_exti.c ****     if (hexti->FallingCallback != NULL)
 926              		.loc 1 544 5 is_stmt 1 view .LVU343
 927              		.loc 1 544 14 is_stmt 0 view .LVU344
 928 002e B368     		ldr	r3, [r6, #8]
ARM GAS  C:\Users\SMART\AppData\Local\Temp\ccszOMU3.s 			page 28


 929              	.LVL126:
 930              		.loc 1 544 8 view .LVU345
 931 0030 03B1     		cbz	r3, .L60
 545:../../Drivers/STM32N6xx_HAL_Driver/Src/stm32n6xx_hal_exti.c ****     {
 546:../../Drivers/STM32N6xx_HAL_Driver/Src/stm32n6xx_hal_exti.c ****       hexti->FallingCallback();
 932              		.loc 1 546 7 is_stmt 1 view .LVU346
 933 0032 9847     		blx	r3
 934              	.LVL127:
 935              	.L60:
 547:../../Drivers/STM32N6xx_HAL_Driver/Src/stm32n6xx_hal_exti.c ****     }
 548:../../Drivers/STM32N6xx_HAL_Driver/Src/stm32n6xx_hal_exti.c ****   }
 549:../../Drivers/STM32N6xx_HAL_Driver/Src/stm32n6xx_hal_exti.c **** }
 936              		.loc 1 549 1 is_stmt 0 view .LVU347
 937 0034 70BD     		pop	{r4, r5, r6, pc}
 938              	.LVL128:
 939              	.L65:
 940              		.loc 1 549 1 view .LVU348
 941 0036 00BF     		.align	2
 942              	.L64:
 943 0038 0C500256 		.word	1442992140
 944 003c 10500256 		.word	1442992144
 945              		.cfi_endproc
 946              	.LFE867:
 948              		.section	.text.HAL_EXTI_GetPending,"ax",%progbits
 949              		.align	1
 950              		.global	HAL_EXTI_GetPending
 951              		.syntax unified
 952              		.thumb
 953              		.thumb_func
 955              	HAL_EXTI_GetPending:
 956              	.LVL129:
 957              	.LFB868:
 550:../../Drivers/STM32N6xx_HAL_Driver/Src/stm32n6xx_hal_exti.c **** 
 551:../../Drivers/STM32N6xx_HAL_Driver/Src/stm32n6xx_hal_exti.c **** 
 552:../../Drivers/STM32N6xx_HAL_Driver/Src/stm32n6xx_hal_exti.c **** /**
 553:../../Drivers/STM32N6xx_HAL_Driver/Src/stm32n6xx_hal_exti.c ****   * @brief  Get interrupt pending bit of a dedicated line.
 554:../../Drivers/STM32N6xx_HAL_Driver/Src/stm32n6xx_hal_exti.c ****   * @param  hexti Exti handle.
 555:../../Drivers/STM32N6xx_HAL_Driver/Src/stm32n6xx_hal_exti.c ****   * @param  Edge Specify which pending edge as to be checked.
 556:../../Drivers/STM32N6xx_HAL_Driver/Src/stm32n6xx_hal_exti.c ****   *         This parameter can be one of the following values:
 557:../../Drivers/STM32N6xx_HAL_Driver/Src/stm32n6xx_hal_exti.c ****   *           @arg @ref EXTI_TRIGGER_RISING
 558:../../Drivers/STM32N6xx_HAL_Driver/Src/stm32n6xx_hal_exti.c ****   *           @arg @ref EXTI_TRIGGER_FALLING
 559:../../Drivers/STM32N6xx_HAL_Driver/Src/stm32n6xx_hal_exti.c ****   * @retval 1 if interrupt is pending else 0.
 560:../../Drivers/STM32N6xx_HAL_Driver/Src/stm32n6xx_hal_exti.c ****   */
 561:../../Drivers/STM32N6xx_HAL_Driver/Src/stm32n6xx_hal_exti.c **** uint32_t HAL_EXTI_GetPending(const EXTI_HandleTypeDef *hexti, uint32_t Edge)
 562:../../Drivers/STM32N6xx_HAL_Driver/Src/stm32n6xx_hal_exti.c **** {
 958              		.loc 1 562 1 is_stmt 1 view -0
 959              		.cfi_startproc
 960              		@ args = 0, pretend = 0, frame = 0
 961              		@ frame_needed = 0, uses_anonymous_args = 0
 962              		@ link register save eliminated.
 563:../../Drivers/STM32N6xx_HAL_Driver/Src/stm32n6xx_hal_exti.c ****   const __IO uint32_t *regaddr;
 963              		.loc 1 563 3 view .LVU350
 564:../../Drivers/STM32N6xx_HAL_Driver/Src/stm32n6xx_hal_exti.c ****   uint32_t regval;
 964              		.loc 1 564 3 view .LVU351
 565:../../Drivers/STM32N6xx_HAL_Driver/Src/stm32n6xx_hal_exti.c ****   uint32_t linepos;
 965              		.loc 1 565 3 view .LVU352
 566:../../Drivers/STM32N6xx_HAL_Driver/Src/stm32n6xx_hal_exti.c ****   uint32_t maskline;
ARM GAS  C:\Users\SMART\AppData\Local\Temp\ccszOMU3.s 			page 29


 966              		.loc 1 566 3 view .LVU353
 567:../../Drivers/STM32N6xx_HAL_Driver/Src/stm32n6xx_hal_exti.c ****   uint32_t offset;
 967              		.loc 1 567 3 view .LVU354
 568:../../Drivers/STM32N6xx_HAL_Driver/Src/stm32n6xx_hal_exti.c **** 
 569:../../Drivers/STM32N6xx_HAL_Driver/Src/stm32n6xx_hal_exti.c ****   /* Check the parameters */
 570:../../Drivers/STM32N6xx_HAL_Driver/Src/stm32n6xx_hal_exti.c ****   assert_param(IS_EXTI_LINE(hexti->Line));
 968              		.loc 1 570 3 view .LVU355
 571:../../Drivers/STM32N6xx_HAL_Driver/Src/stm32n6xx_hal_exti.c ****   assert_param(IS_EXTI_CONFIG_LINE(hexti->Line));
 969              		.loc 1 571 3 view .LVU356
 572:../../Drivers/STM32N6xx_HAL_Driver/Src/stm32n6xx_hal_exti.c ****   assert_param(IS_EXTI_PENDING_EDGE(Edge));
 970              		.loc 1 572 3 view .LVU357
 573:../../Drivers/STM32N6xx_HAL_Driver/Src/stm32n6xx_hal_exti.c **** 
 574:../../Drivers/STM32N6xx_HAL_Driver/Src/stm32n6xx_hal_exti.c ****   /* compute line register offset and line mask */
 575:../../Drivers/STM32N6xx_HAL_Driver/Src/stm32n6xx_hal_exti.c ****   offset = ((hexti->Line & EXTI_REG_MASK) >> EXTI_REG_SHIFT);
 971              		.loc 1 575 3 view .LVU358
 972              		.loc 1 575 19 is_stmt 0 view .LVU359
 973 0000 0368     		ldr	r3, [r0]
 974              		.loc 1 575 10 view .LVU360
 975 0002 C3F30140 		ubfx	r0, r3, #16, #2
 976              	.LVL130:
 576:../../Drivers/STM32N6xx_HAL_Driver/Src/stm32n6xx_hal_exti.c ****   linepos = (hexti->Line & EXTI_PIN_MASK);
 977              		.loc 1 576 3 is_stmt 1 view .LVU361
 978              		.loc 1 576 11 is_stmt 0 view .LVU362
 979 0006 03F01F03 		and	r3, r3, #31
 980              	.LVL131:
 577:../../Drivers/STM32N6xx_HAL_Driver/Src/stm32n6xx_hal_exti.c ****   maskline = (1UL << linepos);
 981              		.loc 1 577 3 is_stmt 1 view .LVU363
 982              		.loc 1 577 12 is_stmt 0 view .LVU364
 983 000a 0122     		movs	r2, #1
 984 000c 9A40     		lsls	r2, r2, r3
 985              	.LVL132:
 578:../../Drivers/STM32N6xx_HAL_Driver/Src/stm32n6xx_hal_exti.c **** 
 579:../../Drivers/STM32N6xx_HAL_Driver/Src/stm32n6xx_hal_exti.c ****   if (Edge != EXTI_TRIGGER_RISING)
 986              		.loc 1 579 3 is_stmt 1 view .LVU365
 987              		.loc 1 579 6 is_stmt 0 view .LVU366
 988 000e 0129     		cmp	r1, #1
 989 0010 06D0     		beq	.L67
 580:../../Drivers/STM32N6xx_HAL_Driver/Src/stm32n6xx_hal_exti.c ****   {
 581:../../Drivers/STM32N6xx_HAL_Driver/Src/stm32n6xx_hal_exti.c ****     /* Get falling edge pending bit */
 582:../../Drivers/STM32N6xx_HAL_Driver/Src/stm32n6xx_hal_exti.c ****     regaddr = (__IO uint32_t *)(&EXTI->FPR1 + (EXTI_CONFIG_OFFSET * offset));
 990              		.loc 1 582 5 is_stmt 1 view .LVU367
 991              		.loc 1 582 13 is_stmt 0 view .LVU368
 992 0012 0549     		ldr	r1, .L69
 993              	.LVL133:
 994              		.loc 1 582 13 view .LVU369
 995 0014 01EB4010 		add	r0, r1, r0, lsl #5
 996              	.LVL134:
 997              	.L68:
 583:../../Drivers/STM32N6xx_HAL_Driver/Src/stm32n6xx_hal_exti.c ****   }
 584:../../Drivers/STM32N6xx_HAL_Driver/Src/stm32n6xx_hal_exti.c ****   else
 585:../../Drivers/STM32N6xx_HAL_Driver/Src/stm32n6xx_hal_exti.c ****   {
 586:../../Drivers/STM32N6xx_HAL_Driver/Src/stm32n6xx_hal_exti.c ****     /* Get rising edge pending bit */
 587:../../Drivers/STM32N6xx_HAL_Driver/Src/stm32n6xx_hal_exti.c ****     regaddr = (__IO uint32_t *)(&EXTI->RPR1 + (EXTI_CONFIG_OFFSET * offset));
 588:../../Drivers/STM32N6xx_HAL_Driver/Src/stm32n6xx_hal_exti.c ****   }
 589:../../Drivers/STM32N6xx_HAL_Driver/Src/stm32n6xx_hal_exti.c **** 
 590:../../Drivers/STM32N6xx_HAL_Driver/Src/stm32n6xx_hal_exti.c ****   /* return 1 if bit is set else 0 */
 591:../../Drivers/STM32N6xx_HAL_Driver/Src/stm32n6xx_hal_exti.c ****   regval = ((*regaddr & maskline) >> linepos);
ARM GAS  C:\Users\SMART\AppData\Local\Temp\ccszOMU3.s 			page 30


 998              		.loc 1 591 3 is_stmt 1 view .LVU370
 999              		.loc 1 591 14 is_stmt 0 view .LVU371
 1000 0018 0068     		ldr	r0, [r0]
 1001              	.LVL135:
 1002              		.loc 1 591 23 view .LVU372
 1003 001a 1040     		ands	r0, r0, r2
 1004              	.LVL136:
 592:../../Drivers/STM32N6xx_HAL_Driver/Src/stm32n6xx_hal_exti.c ****   return regval;
 1005              		.loc 1 592 3 is_stmt 1 view .LVU373
 593:../../Drivers/STM32N6xx_HAL_Driver/Src/stm32n6xx_hal_exti.c **** }
 1006              		.loc 1 593 1 is_stmt 0 view .LVU374
 1007 001c D840     		lsrs	r0, r0, r3
 1008              	.LVL137:
 1009              		.loc 1 593 1 view .LVU375
 1010 001e 7047     		bx	lr
 1011              	.LVL138:
 1012              	.L67:
 587:../../Drivers/STM32N6xx_HAL_Driver/Src/stm32n6xx_hal_exti.c ****   }
 1013              		.loc 1 587 5 is_stmt 1 view .LVU376
 587:../../Drivers/STM32N6xx_HAL_Driver/Src/stm32n6xx_hal_exti.c ****   }
 1014              		.loc 1 587 13 is_stmt 0 view .LVU377
 1015 0020 0249     		ldr	r1, .L69+4
 1016              	.LVL139:
 587:../../Drivers/STM32N6xx_HAL_Driver/Src/stm32n6xx_hal_exti.c ****   }
 1017              		.loc 1 587 13 view .LVU378
 1018 0022 01EB4010 		add	r0, r1, r0, lsl #5
 1019              	.LVL140:
 587:../../Drivers/STM32N6xx_HAL_Driver/Src/stm32n6xx_hal_exti.c ****   }
 1020              		.loc 1 587 13 view .LVU379
 1021 0026 F7E7     		b	.L68
 1022              	.L70:
 1023              		.align	2
 1024              	.L69:
 1025 0028 10500256 		.word	1442992144
 1026 002c 0C500256 		.word	1442992140
 1027              		.cfi_endproc
 1028              	.LFE868:
 1030              		.section	.text.HAL_EXTI_ClearPending,"ax",%progbits
 1031              		.align	1
 1032              		.global	HAL_EXTI_ClearPending
 1033              		.syntax unified
 1034              		.thumb
 1035              		.thumb_func
 1037              	HAL_EXTI_ClearPending:
 1038              	.LVL141:
 1039              	.LFB869:
 594:../../Drivers/STM32N6xx_HAL_Driver/Src/stm32n6xx_hal_exti.c **** 
 595:../../Drivers/STM32N6xx_HAL_Driver/Src/stm32n6xx_hal_exti.c **** 
 596:../../Drivers/STM32N6xx_HAL_Driver/Src/stm32n6xx_hal_exti.c **** /**
 597:../../Drivers/STM32N6xx_HAL_Driver/Src/stm32n6xx_hal_exti.c ****   * @brief  Clear interrupt pending bit of a dedicated line.
 598:../../Drivers/STM32N6xx_HAL_Driver/Src/stm32n6xx_hal_exti.c ****   * @param  hexti Exti handle.
 599:../../Drivers/STM32N6xx_HAL_Driver/Src/stm32n6xx_hal_exti.c ****   * @param  Edge Specify which pending edge as to be clear.
 600:../../Drivers/STM32N6xx_HAL_Driver/Src/stm32n6xx_hal_exti.c ****   *         This parameter can be one of the following values:
 601:../../Drivers/STM32N6xx_HAL_Driver/Src/stm32n6xx_hal_exti.c ****   *           @arg @ref EXTI_TRIGGER_RISING
 602:../../Drivers/STM32N6xx_HAL_Driver/Src/stm32n6xx_hal_exti.c ****   *           @arg @ref EXTI_TRIGGER_FALLING
 603:../../Drivers/STM32N6xx_HAL_Driver/Src/stm32n6xx_hal_exti.c ****   * @retval None.
 604:../../Drivers/STM32N6xx_HAL_Driver/Src/stm32n6xx_hal_exti.c ****   */
ARM GAS  C:\Users\SMART\AppData\Local\Temp\ccszOMU3.s 			page 31


 605:../../Drivers/STM32N6xx_HAL_Driver/Src/stm32n6xx_hal_exti.c **** void HAL_EXTI_ClearPending(const EXTI_HandleTypeDef *hexti, uint32_t Edge)
 606:../../Drivers/STM32N6xx_HAL_Driver/Src/stm32n6xx_hal_exti.c **** {
 1040              		.loc 1 606 1 is_stmt 1 view -0
 1041              		.cfi_startproc
 1042              		@ args = 0, pretend = 0, frame = 0
 1043              		@ frame_needed = 0, uses_anonymous_args = 0
 1044              		@ link register save eliminated.
 607:../../Drivers/STM32N6xx_HAL_Driver/Src/stm32n6xx_hal_exti.c ****   __IO uint32_t *regaddr;
 1045              		.loc 1 607 3 view .LVU381
 608:../../Drivers/STM32N6xx_HAL_Driver/Src/stm32n6xx_hal_exti.c ****   uint32_t maskline;
 1046              		.loc 1 608 3 view .LVU382
 609:../../Drivers/STM32N6xx_HAL_Driver/Src/stm32n6xx_hal_exti.c ****   uint32_t offset;
 1047              		.loc 1 609 3 view .LVU383
 610:../../Drivers/STM32N6xx_HAL_Driver/Src/stm32n6xx_hal_exti.c **** 
 611:../../Drivers/STM32N6xx_HAL_Driver/Src/stm32n6xx_hal_exti.c ****   /* Check the parameters */
 612:../../Drivers/STM32N6xx_HAL_Driver/Src/stm32n6xx_hal_exti.c ****   assert_param(IS_EXTI_LINE(hexti->Line));
 1048              		.loc 1 612 3 view .LVU384
 613:../../Drivers/STM32N6xx_HAL_Driver/Src/stm32n6xx_hal_exti.c ****   assert_param(IS_EXTI_CONFIG_LINE(hexti->Line));
 1049              		.loc 1 613 3 view .LVU385
 614:../../Drivers/STM32N6xx_HAL_Driver/Src/stm32n6xx_hal_exti.c ****   assert_param(IS_EXTI_PENDING_EDGE(Edge));
 1050              		.loc 1 614 3 view .LVU386
 615:../../Drivers/STM32N6xx_HAL_Driver/Src/stm32n6xx_hal_exti.c **** 
 616:../../Drivers/STM32N6xx_HAL_Driver/Src/stm32n6xx_hal_exti.c ****   /* compute line register offset and line mask */
 617:../../Drivers/STM32N6xx_HAL_Driver/Src/stm32n6xx_hal_exti.c ****   offset = ((hexti->Line & EXTI_REG_MASK) >> EXTI_REG_SHIFT);
 1051              		.loc 1 617 3 view .LVU387
 1052              		.loc 1 617 19 is_stmt 0 view .LVU388
 1053 0000 0368     		ldr	r3, [r0]
 1054              		.loc 1 617 10 view .LVU389
 1055 0002 C3F30142 		ubfx	r2, r3, #16, #2
 1056              	.LVL142:
 618:../../Drivers/STM32N6xx_HAL_Driver/Src/stm32n6xx_hal_exti.c ****   maskline = (1UL << (hexti->Line & EXTI_PIN_MASK));
 1057              		.loc 1 618 3 is_stmt 1 view .LVU390
 1058              		.loc 1 618 35 is_stmt 0 view .LVU391
 1059 0006 03F01F03 		and	r3, r3, #31
 1060              		.loc 1 618 12 view .LVU392
 1061 000a 0120     		movs	r0, #1
 1062              	.LVL143:
 1063              		.loc 1 618 12 view .LVU393
 1064 000c 00FA03F3 		lsl	r3, r0, r3
 1065              	.LVL144:
 619:../../Drivers/STM32N6xx_HAL_Driver/Src/stm32n6xx_hal_exti.c **** 
 620:../../Drivers/STM32N6xx_HAL_Driver/Src/stm32n6xx_hal_exti.c ****   if (Edge != EXTI_TRIGGER_RISING)
 1066              		.loc 1 620 3 is_stmt 1 view .LVU394
 1067              		.loc 1 620 6 is_stmt 0 view .LVU395
 1068 0010 8142     		cmp	r1, r0
 1069 0012 04D0     		beq	.L72
 621:../../Drivers/STM32N6xx_HAL_Driver/Src/stm32n6xx_hal_exti.c ****   {
 622:../../Drivers/STM32N6xx_HAL_Driver/Src/stm32n6xx_hal_exti.c ****     /* Get falling edge pending register address */
 623:../../Drivers/STM32N6xx_HAL_Driver/Src/stm32n6xx_hal_exti.c ****     regaddr = (__IO uint32_t *)(&EXTI->FPR1 + (EXTI_CONFIG_OFFSET * offset));
 1070              		.loc 1 623 5 is_stmt 1 view .LVU396
 1071              		.loc 1 623 13 is_stmt 0 view .LVU397
 1072 0014 0449     		ldr	r1, .L74
 1073              	.LVL145:
 1074              		.loc 1 623 13 view .LVU398
 1075 0016 01EB4212 		add	r2, r1, r2, lsl #5
 1076              	.LVL146:
 1077              	.L73:
ARM GAS  C:\Users\SMART\AppData\Local\Temp\ccszOMU3.s 			page 32


 624:../../Drivers/STM32N6xx_HAL_Driver/Src/stm32n6xx_hal_exti.c ****   }
 625:../../Drivers/STM32N6xx_HAL_Driver/Src/stm32n6xx_hal_exti.c ****   else
 626:../../Drivers/STM32N6xx_HAL_Driver/Src/stm32n6xx_hal_exti.c ****   {
 627:../../Drivers/STM32N6xx_HAL_Driver/Src/stm32n6xx_hal_exti.c ****     /* Get rising edge pending register address */
 628:../../Drivers/STM32N6xx_HAL_Driver/Src/stm32n6xx_hal_exti.c ****     regaddr = (__IO uint32_t *)(&EXTI->RPR1 + (EXTI_CONFIG_OFFSET * offset));
 629:../../Drivers/STM32N6xx_HAL_Driver/Src/stm32n6xx_hal_exti.c ****   }
 630:../../Drivers/STM32N6xx_HAL_Driver/Src/stm32n6xx_hal_exti.c **** 
 631:../../Drivers/STM32N6xx_HAL_Driver/Src/stm32n6xx_hal_exti.c ****   /* Clear Pending bit */
 632:../../Drivers/STM32N6xx_HAL_Driver/Src/stm32n6xx_hal_exti.c ****   *regaddr =  maskline;
 1078              		.loc 1 632 3 is_stmt 1 view .LVU399
 1079              		.loc 1 632 12 is_stmt 0 view .LVU400
 1080 001a 1360     		str	r3, [r2]
 1081              	.LVL147:
 633:../../Drivers/STM32N6xx_HAL_Driver/Src/stm32n6xx_hal_exti.c **** }
 1082              		.loc 1 633 1 view .LVU401
 1083 001c 7047     		bx	lr
 1084              	.LVL148:
 1085              	.L72:
 628:../../Drivers/STM32N6xx_HAL_Driver/Src/stm32n6xx_hal_exti.c ****   }
 1086              		.loc 1 628 5 is_stmt 1 view .LVU402
 628:../../Drivers/STM32N6xx_HAL_Driver/Src/stm32n6xx_hal_exti.c ****   }
 1087              		.loc 1 628 13 is_stmt 0 view .LVU403
 1088 001e 0349     		ldr	r1, .L74+4
 1089              	.LVL149:
 628:../../Drivers/STM32N6xx_HAL_Driver/Src/stm32n6xx_hal_exti.c ****   }
 1090              		.loc 1 628 13 view .LVU404
 1091 0020 01EB4212 		add	r2, r1, r2, lsl #5
 1092              	.LVL150:
 628:../../Drivers/STM32N6xx_HAL_Driver/Src/stm32n6xx_hal_exti.c ****   }
 1093              		.loc 1 628 13 view .LVU405
 1094 0024 F9E7     		b	.L73
 1095              	.L75:
 1096 0026 00BF     		.align	2
 1097              	.L74:
 1098 0028 10500256 		.word	1442992144
 1099 002c 0C500256 		.word	1442992140
 1100              		.cfi_endproc
 1101              	.LFE869:
 1103              		.section	.text.HAL_EXTI_GenerateSWI,"ax",%progbits
 1104              		.align	1
 1105              		.global	HAL_EXTI_GenerateSWI
 1106              		.syntax unified
 1107              		.thumb
 1108              		.thumb_func
 1110              	HAL_EXTI_GenerateSWI:
 1111              	.LVL151:
 1112              	.LFB870:
 634:../../Drivers/STM32N6xx_HAL_Driver/Src/stm32n6xx_hal_exti.c **** 
 635:../../Drivers/STM32N6xx_HAL_Driver/Src/stm32n6xx_hal_exti.c **** 
 636:../../Drivers/STM32N6xx_HAL_Driver/Src/stm32n6xx_hal_exti.c **** /**
 637:../../Drivers/STM32N6xx_HAL_Driver/Src/stm32n6xx_hal_exti.c ****   * @brief  Generate a software interrupt for a dedicated line.
 638:../../Drivers/STM32N6xx_HAL_Driver/Src/stm32n6xx_hal_exti.c ****   * @param  hexti Exti handle.
 639:../../Drivers/STM32N6xx_HAL_Driver/Src/stm32n6xx_hal_exti.c ****   * @retval None.
 640:../../Drivers/STM32N6xx_HAL_Driver/Src/stm32n6xx_hal_exti.c ****   */
 641:../../Drivers/STM32N6xx_HAL_Driver/Src/stm32n6xx_hal_exti.c **** void HAL_EXTI_GenerateSWI(const EXTI_HandleTypeDef *hexti)
 642:../../Drivers/STM32N6xx_HAL_Driver/Src/stm32n6xx_hal_exti.c **** {
 1113              		.loc 1 642 1 is_stmt 1 view -0
ARM GAS  C:\Users\SMART\AppData\Local\Temp\ccszOMU3.s 			page 33


 1114              		.cfi_startproc
 1115              		@ args = 0, pretend = 0, frame = 0
 1116              		@ frame_needed = 0, uses_anonymous_args = 0
 1117              		@ link register save eliminated.
 643:../../Drivers/STM32N6xx_HAL_Driver/Src/stm32n6xx_hal_exti.c ****   __IO uint32_t *regaddr;
 1118              		.loc 1 643 3 view .LVU407
 644:../../Drivers/STM32N6xx_HAL_Driver/Src/stm32n6xx_hal_exti.c ****   uint32_t maskline;
 1119              		.loc 1 644 3 view .LVU408
 645:../../Drivers/STM32N6xx_HAL_Driver/Src/stm32n6xx_hal_exti.c ****   uint32_t offset;
 1120              		.loc 1 645 3 view .LVU409
 646:../../Drivers/STM32N6xx_HAL_Driver/Src/stm32n6xx_hal_exti.c **** 
 647:../../Drivers/STM32N6xx_HAL_Driver/Src/stm32n6xx_hal_exti.c ****   /* Check the parameters */
 648:../../Drivers/STM32N6xx_HAL_Driver/Src/stm32n6xx_hal_exti.c ****   assert_param(IS_EXTI_LINE(hexti->Line));
 1121              		.loc 1 648 3 view .LVU410
 649:../../Drivers/STM32N6xx_HAL_Driver/Src/stm32n6xx_hal_exti.c ****   assert_param(IS_EXTI_CONFIG_LINE(hexti->Line));
 1122              		.loc 1 649 3 view .LVU411
 650:../../Drivers/STM32N6xx_HAL_Driver/Src/stm32n6xx_hal_exti.c **** 
 651:../../Drivers/STM32N6xx_HAL_Driver/Src/stm32n6xx_hal_exti.c ****   /* compute line register offset and line mask */
 652:../../Drivers/STM32N6xx_HAL_Driver/Src/stm32n6xx_hal_exti.c ****   offset = ((hexti->Line & EXTI_REG_MASK) >> EXTI_REG_SHIFT);
 1123              		.loc 1 652 3 view .LVU412
 1124              		.loc 1 652 19 is_stmt 0 view .LVU413
 1125 0000 0368     		ldr	r3, [r0]
 1126              		.loc 1 652 10 view .LVU414
 1127 0002 C3F30142 		ubfx	r2, r3, #16, #2
 1128              	.LVL152:
 653:../../Drivers/STM32N6xx_HAL_Driver/Src/stm32n6xx_hal_exti.c ****   maskline = (1UL << (hexti->Line & EXTI_PIN_MASK));
 1129              		.loc 1 653 3 is_stmt 1 view .LVU415
 1130              		.loc 1 653 35 is_stmt 0 view .LVU416
 1131 0006 03F01F03 		and	r3, r3, #31
 1132              		.loc 1 653 12 view .LVU417
 1133 000a 0121     		movs	r1, #1
 1134 000c 9940     		lsls	r1, r1, r3
 1135              	.LVL153:
 654:../../Drivers/STM32N6xx_HAL_Driver/Src/stm32n6xx_hal_exti.c **** 
 655:../../Drivers/STM32N6xx_HAL_Driver/Src/stm32n6xx_hal_exti.c ****   regaddr = (__IO uint32_t *)(&EXTI->SWIER1 + (EXTI_CONFIG_OFFSET * offset));
 1136              		.loc 1 655 3 is_stmt 1 view .LVU418
 1137              		.loc 1 655 13 is_stmt 0 view .LVU419
 1138 000e 5301     		lsls	r3, r2, #5
 1139              		.loc 1 655 11 view .LVU420
 1140 0010 014A     		ldr	r2, .L77
 1141              	.LVL154:
 656:../../Drivers/STM32N6xx_HAL_Driver/Src/stm32n6xx_hal_exti.c ****   *regaddr = maskline;
 1142              		.loc 1 656 3 is_stmt 1 view .LVU421
 1143              		.loc 1 656 12 is_stmt 0 view .LVU422
 1144 0012 9950     		str	r1, [r3, r2]
 1145              	.LVL155:
 657:../../Drivers/STM32N6xx_HAL_Driver/Src/stm32n6xx_hal_exti.c **** }
 1146              		.loc 1 657 1 view .LVU423
 1147 0014 7047     		bx	lr
 1148              	.L78:
 1149 0016 00BF     		.align	2
 1150              	.L77:
 1151 0018 08500256 		.word	1442992136
 1152              		.cfi_endproc
 1153              	.LFE870:
 1155              		.section	.text.HAL_EXTI_ConfigLineAttributes,"ax",%progbits
 1156              		.align	1
ARM GAS  C:\Users\SMART\AppData\Local\Temp\ccszOMU3.s 			page 34


 1157              		.global	HAL_EXTI_ConfigLineAttributes
 1158              		.syntax unified
 1159              		.thumb
 1160              		.thumb_func
 1162              	HAL_EXTI_ConfigLineAttributes:
 1163              	.LVL156:
 1164              	.LFB871:
 658:../../Drivers/STM32N6xx_HAL_Driver/Src/stm32n6xx_hal_exti.c **** 
 659:../../Drivers/STM32N6xx_HAL_Driver/Src/stm32n6xx_hal_exti.c **** /**
 660:../../Drivers/STM32N6xx_HAL_Driver/Src/stm32n6xx_hal_exti.c ****   * @}
 661:../../Drivers/STM32N6xx_HAL_Driver/Src/stm32n6xx_hal_exti.c ****   */
 662:../../Drivers/STM32N6xx_HAL_Driver/Src/stm32n6xx_hal_exti.c **** 
 663:../../Drivers/STM32N6xx_HAL_Driver/Src/stm32n6xx_hal_exti.c **** /** @defgroup EXTI_Exported_Functions_Group3 EXTI line attributes management functions
 664:../../Drivers/STM32N6xx_HAL_Driver/Src/stm32n6xx_hal_exti.c ****   *  @brief EXTI attributes management functions.
 665:../../Drivers/STM32N6xx_HAL_Driver/Src/stm32n6xx_hal_exti.c ****   *
 666:../../Drivers/STM32N6xx_HAL_Driver/Src/stm32n6xx_hal_exti.c **** @verbatim
 667:../../Drivers/STM32N6xx_HAL_Driver/Src/stm32n6xx_hal_exti.c ****  ===============================================================================
 668:../../Drivers/STM32N6xx_HAL_Driver/Src/stm32n6xx_hal_exti.c ****                        ##### EXTI attributes functions #####
 669:../../Drivers/STM32N6xx_HAL_Driver/Src/stm32n6xx_hal_exti.c ****  ===============================================================================
 670:../../Drivers/STM32N6xx_HAL_Driver/Src/stm32n6xx_hal_exti.c **** 
 671:../../Drivers/STM32N6xx_HAL_Driver/Src/stm32n6xx_hal_exti.c **** @endverbatim
 672:../../Drivers/STM32N6xx_HAL_Driver/Src/stm32n6xx_hal_exti.c ****   * @{
 673:../../Drivers/STM32N6xx_HAL_Driver/Src/stm32n6xx_hal_exti.c ****   */
 674:../../Drivers/STM32N6xx_HAL_Driver/Src/stm32n6xx_hal_exti.c **** 
 675:../../Drivers/STM32N6xx_HAL_Driver/Src/stm32n6xx_hal_exti.c **** /**
 676:../../Drivers/STM32N6xx_HAL_Driver/Src/stm32n6xx_hal_exti.c ****   * @brief  Configure the EXTI line attribute(s).
 677:../../Drivers/STM32N6xx_HAL_Driver/Src/stm32n6xx_hal_exti.c ****   * @note   Available attributes are to secure EXTI line and set EXTI line as privileged.
 678:../../Drivers/STM32N6xx_HAL_Driver/Src/stm32n6xx_hal_exti.c ****   *         Default state is not secure and unprivileged access allowed.
 679:../../Drivers/STM32N6xx_HAL_Driver/Src/stm32n6xx_hal_exti.c ****   * @note   Set an EXTI line to secure is only available in secure and privilege
 680:../../Drivers/STM32N6xx_HAL_Driver/Src/stm32n6xx_hal_exti.c ****   *         Set an EXTI line to privilege is only available in privilege
 681:../../Drivers/STM32N6xx_HAL_Driver/Src/stm32n6xx_hal_exti.c ****   * @note   Security and privilege attributes can be set independently.
 682:../../Drivers/STM32N6xx_HAL_Driver/Src/stm32n6xx_hal_exti.c ****   * @param  ExtiLine Exti line number.
 683:../../Drivers/STM32N6xx_HAL_Driver/Src/stm32n6xx_hal_exti.c ****   *         This parameter can be from 0 to @ref EXTI_LINE_NB.
 684:../../Drivers/STM32N6xx_HAL_Driver/Src/stm32n6xx_hal_exti.c ****   * @param  LineAttributes can be one or a combination of the following values:
 685:../../Drivers/STM32N6xx_HAL_Driver/Src/stm32n6xx_hal_exti.c ****   *            @arg @ref EXTI_LINE_PRIV         Privileged-only access
 686:../../Drivers/STM32N6xx_HAL_Driver/Src/stm32n6xx_hal_exti.c ****   *            @arg @ref EXTI_LINE_NPRIV        Privileged/Non-privileged access
 687:../../Drivers/STM32N6xx_HAL_Driver/Src/stm32n6xx_hal_exti.c ****   *            @arg @ref EXTI_LINE_SEC          Secure-only access
 688:../../Drivers/STM32N6xx_HAL_Driver/Src/stm32n6xx_hal_exti.c ****   *            @arg @ref EXTI_LINE_NSEC         Secure/Non-secure access
 689:../../Drivers/STM32N6xx_HAL_Driver/Src/stm32n6xx_hal_exti.c ****   * @retval None
 690:../../Drivers/STM32N6xx_HAL_Driver/Src/stm32n6xx_hal_exti.c ****   */
 691:../../Drivers/STM32N6xx_HAL_Driver/Src/stm32n6xx_hal_exti.c **** void HAL_EXTI_ConfigLineAttributes(uint32_t ExtiLine, uint32_t LineAttributes)
 692:../../Drivers/STM32N6xx_HAL_Driver/Src/stm32n6xx_hal_exti.c **** {
 1165              		.loc 1 692 1 is_stmt 1 view -0
 1166              		.cfi_startproc
 1167              		@ args = 0, pretend = 0, frame = 0
 1168              		@ frame_needed = 0, uses_anonymous_args = 0
 1169              		@ link register save eliminated.
 1170              		.loc 1 692 1 is_stmt 0 view .LVU425
 1171 0000 10B4     		push	{r4}
 1172              	.LCFI8:
 1173              		.cfi_def_cfa_offset 4
 1174              		.cfi_offset 4, -4
 693:../../Drivers/STM32N6xx_HAL_Driver/Src/stm32n6xx_hal_exti.c ****   __IO uint32_t *regaddr;
 1175              		.loc 1 693 3 is_stmt 1 view .LVU426
 694:../../Drivers/STM32N6xx_HAL_Driver/Src/stm32n6xx_hal_exti.c ****   uint32_t regval;
 1176              		.loc 1 694 3 view .LVU427
 695:../../Drivers/STM32N6xx_HAL_Driver/Src/stm32n6xx_hal_exti.c ****   uint32_t linepos;
ARM GAS  C:\Users\SMART\AppData\Local\Temp\ccszOMU3.s 			page 35


 1177              		.loc 1 695 3 view .LVU428
 696:../../Drivers/STM32N6xx_HAL_Driver/Src/stm32n6xx_hal_exti.c ****   uint32_t maskline;
 1178              		.loc 1 696 3 view .LVU429
 697:../../Drivers/STM32N6xx_HAL_Driver/Src/stm32n6xx_hal_exti.c ****   uint32_t offset;
 1179              		.loc 1 697 3 view .LVU430
 698:../../Drivers/STM32N6xx_HAL_Driver/Src/stm32n6xx_hal_exti.c **** 
 699:../../Drivers/STM32N6xx_HAL_Driver/Src/stm32n6xx_hal_exti.c ****   /* Check the parameters */
 700:../../Drivers/STM32N6xx_HAL_Driver/Src/stm32n6xx_hal_exti.c ****   assert_param(IS_EXTI_LINE(ExtiLine));
 1180              		.loc 1 700 3 view .LVU431
 701:../../Drivers/STM32N6xx_HAL_Driver/Src/stm32n6xx_hal_exti.c ****   assert_param(IS_EXTI_LINE_ATTRIBUTES(LineAttributes));
 1181              		.loc 1 701 3 view .LVU432
 702:../../Drivers/STM32N6xx_HAL_Driver/Src/stm32n6xx_hal_exti.c **** 
 703:../../Drivers/STM32N6xx_HAL_Driver/Src/stm32n6xx_hal_exti.c ****   /* compute line register offset and line mask */
 704:../../Drivers/STM32N6xx_HAL_Driver/Src/stm32n6xx_hal_exti.c ****   offset = ((ExtiLine & EXTI_REG_MASK) >> EXTI_REG_SHIFT);
 1182              		.loc 1 704 3 view .LVU433
 1183              		.loc 1 704 10 is_stmt 0 view .LVU434
 1184 0002 C0F30143 		ubfx	r3, r0, #16, #2
 1185              	.LVL157:
 705:../../Drivers/STM32N6xx_HAL_Driver/Src/stm32n6xx_hal_exti.c ****   linepos = (ExtiLine & EXTI_PIN_MASK);
 1186              		.loc 1 705 3 is_stmt 1 view .LVU435
 1187              		.loc 1 705 11 is_stmt 0 view .LVU436
 1188 0006 00F01F00 		and	r0, r0, #31
 1189              	.LVL158:
 706:../../Drivers/STM32N6xx_HAL_Driver/Src/stm32n6xx_hal_exti.c ****   maskline = (1UL << linepos);
 1190              		.loc 1 706 3 is_stmt 1 view .LVU437
 1191              		.loc 1 706 12 is_stmt 0 view .LVU438
 1192 000a 0122     		movs	r2, #1
 1193 000c 8240     		lsls	r2, r2, r0
 1194              	.LVL159:
 707:../../Drivers/STM32N6xx_HAL_Driver/Src/stm32n6xx_hal_exti.c **** 
 708:../../Drivers/STM32N6xx_HAL_Driver/Src/stm32n6xx_hal_exti.c ****   /* Configure privilege or non-privilege attributes */
 709:../../Drivers/STM32N6xx_HAL_Driver/Src/stm32n6xx_hal_exti.c ****   regaddr = (__IO uint32_t *)(&EXTI->PRIVCFGR1 + (EXTI_PRIVCFGR_OFFSET * offset));
 1195              		.loc 1 709 3 is_stmt 1 view .LVU439
 1196              		.loc 1 709 13 is_stmt 0 view .LVU440
 1197 000e 5B01     		lsls	r3, r3, #5
 1198              	.LVL160:
 1199              		.loc 1 709 11 view .LVU441
 1200 0010 104C     		ldr	r4, .L87
 1201              	.LVL161:
 710:../../Drivers/STM32N6xx_HAL_Driver/Src/stm32n6xx_hal_exti.c ****   regval = *regaddr;
 1202              		.loc 1 710 3 is_stmt 1 view .LVU442
 1203              		.loc 1 710 10 is_stmt 0 view .LVU443
 1204 0012 1859     		ldr	r0, [r3, r4]
 1205              	.LVL162:
 711:../../Drivers/STM32N6xx_HAL_Driver/Src/stm32n6xx_hal_exti.c **** 
 712:../../Drivers/STM32N6xx_HAL_Driver/Src/stm32n6xx_hal_exti.c ****   /* Mask or set line */
 713:../../Drivers/STM32N6xx_HAL_Driver/Src/stm32n6xx_hal_exti.c ****   if ((LineAttributes & EXTI_LINE_PRIV) == EXTI_LINE_PRIV)
 1206              		.loc 1 713 3 is_stmt 1 view .LVU444
 1207              		.loc 1 713 6 is_stmt 0 view .LVU445
 1208 0014 40F2022C 		movw	ip, #514
 1209 0018 3CEA010C 		bics	ip, ip, r1
 1210 001c 05D0     		beq	.L85
 714:../../Drivers/STM32N6xx_HAL_Driver/Src/stm32n6xx_hal_exti.c ****   {
 715:../../Drivers/STM32N6xx_HAL_Driver/Src/stm32n6xx_hal_exti.c ****     regval |= maskline;
 716:../../Drivers/STM32N6xx_HAL_Driver/Src/stm32n6xx_hal_exti.c ****   }
 717:../../Drivers/STM32N6xx_HAL_Driver/Src/stm32n6xx_hal_exti.c ****   else if ((LineAttributes & EXTI_LINE_NPRIV) == EXTI_LINE_NPRIV)
 1211              		.loc 1 717 8 is_stmt 1 view .LVU446
ARM GAS  C:\Users\SMART\AppData\Local\Temp\ccszOMU3.s 			page 36


 1212              		.loc 1 717 11 is_stmt 0 view .LVU447
 1213 001e 11F4007F 		tst	r1, #512
 1214 0022 03D0     		beq	.L81
 718:../../Drivers/STM32N6xx_HAL_Driver/Src/stm32n6xx_hal_exti.c ****   {
 719:../../Drivers/STM32N6xx_HAL_Driver/Src/stm32n6xx_hal_exti.c ****     regval &= ~maskline;
 1215              		.loc 1 719 5 is_stmt 1 view .LVU448
 1216              		.loc 1 719 12 is_stmt 0 view .LVU449
 1217 0024 20EA0200 		bic	r0, r0, r2
 1218              	.LVL163:
 1219              		.loc 1 719 12 view .LVU450
 1220 0028 00E0     		b	.L81
 1221              	.L85:
 715:../../Drivers/STM32N6xx_HAL_Driver/Src/stm32n6xx_hal_exti.c ****   }
 1222              		.loc 1 715 5 is_stmt 1 view .LVU451
 715:../../Drivers/STM32N6xx_HAL_Driver/Src/stm32n6xx_hal_exti.c ****   }
 1223              		.loc 1 715 12 is_stmt 0 view .LVU452
 1224 002a 1043     		orrs	r0, r0, r2
 1225              	.LVL164:
 1226              	.L81:
 720:../../Drivers/STM32N6xx_HAL_Driver/Src/stm32n6xx_hal_exti.c ****   }
 721:../../Drivers/STM32N6xx_HAL_Driver/Src/stm32n6xx_hal_exti.c ****   else
 722:../../Drivers/STM32N6xx_HAL_Driver/Src/stm32n6xx_hal_exti.c ****   {
 723:../../Drivers/STM32N6xx_HAL_Driver/Src/stm32n6xx_hal_exti.c ****     /* do nothing */
 724:../../Drivers/STM32N6xx_HAL_Driver/Src/stm32n6xx_hal_exti.c ****   }
 1227              		.loc 1 724 3 is_stmt 1 view .LVU453
 725:../../Drivers/STM32N6xx_HAL_Driver/Src/stm32n6xx_hal_exti.c **** 
 726:../../Drivers/STM32N6xx_HAL_Driver/Src/stm32n6xx_hal_exti.c ****   /* Store privilege or non-privilege attribute */
 727:../../Drivers/STM32N6xx_HAL_Driver/Src/stm32n6xx_hal_exti.c ****   *regaddr = regval;
 1228              		.loc 1 727 3 view .LVU454
 1229              		.loc 1 727 12 is_stmt 0 view .LVU455
 1230 002c 1851     		str	r0, [r3, r4]
 728:../../Drivers/STM32N6xx_HAL_Driver/Src/stm32n6xx_hal_exti.c **** 
 729:../../Drivers/STM32N6xx_HAL_Driver/Src/stm32n6xx_hal_exti.c **** #if defined CPU_IN_SECURE_STATE
 730:../../Drivers/STM32N6xx_HAL_Driver/Src/stm32n6xx_hal_exti.c ****   /* Configure secure or non-secure attributes */
 731:../../Drivers/STM32N6xx_HAL_Driver/Src/stm32n6xx_hal_exti.c ****   regaddr = (__IO uint32_t *)(&EXTI->SECCFGR1 + (EXTI_SECCFGR_OFFSET * offset));
 1231              		.loc 1 731 3 is_stmt 1 view .LVU456
 1232              		.loc 1 731 11 is_stmt 0 view .LVU457
 1233 002e 0A4C     		ldr	r4, .L87+4
 1234              	.LVL165:
 732:../../Drivers/STM32N6xx_HAL_Driver/Src/stm32n6xx_hal_exti.c ****   regval = *regaddr;
 1235              		.loc 1 732 3 is_stmt 1 view .LVU458
 1236              		.loc 1 732 10 is_stmt 0 view .LVU459
 1237 0030 1859     		ldr	r0, [r3, r4]
 1238              	.LVL166:
 733:../../Drivers/STM32N6xx_HAL_Driver/Src/stm32n6xx_hal_exti.c **** 
 734:../../Drivers/STM32N6xx_HAL_Driver/Src/stm32n6xx_hal_exti.c ****   /* Mask or set line */
 735:../../Drivers/STM32N6xx_HAL_Driver/Src/stm32n6xx_hal_exti.c ****   if ((LineAttributes & EXTI_LINE_SEC) == EXTI_LINE_SEC)
 1239              		.loc 1 735 3 is_stmt 1 view .LVU460
 1240              		.loc 1 735 6 is_stmt 0 view .LVU461
 1241 0032 40F2011C 		movw	ip, #257
 1242 0036 3CEA010C 		bics	ip, ip, r1
 1243 003a 05D0     		beq	.L86
 736:../../Drivers/STM32N6xx_HAL_Driver/Src/stm32n6xx_hal_exti.c ****   {
 737:../../Drivers/STM32N6xx_HAL_Driver/Src/stm32n6xx_hal_exti.c ****     regval |= maskline;
 738:../../Drivers/STM32N6xx_HAL_Driver/Src/stm32n6xx_hal_exti.c ****   }
 739:../../Drivers/STM32N6xx_HAL_Driver/Src/stm32n6xx_hal_exti.c ****   else if ((LineAttributes & EXTI_LINE_NSEC) == EXTI_LINE_NSEC)
 1244              		.loc 1 739 8 is_stmt 1 view .LVU462
ARM GAS  C:\Users\SMART\AppData\Local\Temp\ccszOMU3.s 			page 37


 1245              		.loc 1 739 11 is_stmt 0 view .LVU463
 1246 003c 11F4807F 		tst	r1, #256
 1247 0040 03D0     		beq	.L83
 740:../../Drivers/STM32N6xx_HAL_Driver/Src/stm32n6xx_hal_exti.c ****   {
 741:../../Drivers/STM32N6xx_HAL_Driver/Src/stm32n6xx_hal_exti.c ****     regval &= ~maskline;
 1248              		.loc 1 741 5 is_stmt 1 view .LVU464
 1249              		.loc 1 741 12 is_stmt 0 view .LVU465
 1250 0042 20EA0200 		bic	r0, r0, r2
 1251              	.LVL167:
 1252              		.loc 1 741 12 view .LVU466
 1253 0046 00E0     		b	.L83
 1254              	.L86:
 737:../../Drivers/STM32N6xx_HAL_Driver/Src/stm32n6xx_hal_exti.c ****   }
 1255              		.loc 1 737 5 is_stmt 1 view .LVU467
 737:../../Drivers/STM32N6xx_HAL_Driver/Src/stm32n6xx_hal_exti.c ****   }
 1256              		.loc 1 737 12 is_stmt 0 view .LVU468
 1257 0048 1043     		orrs	r0, r0, r2
 1258              	.LVL168:
 1259              	.L83:
 742:../../Drivers/STM32N6xx_HAL_Driver/Src/stm32n6xx_hal_exti.c ****   }
 743:../../Drivers/STM32N6xx_HAL_Driver/Src/stm32n6xx_hal_exti.c ****   else
 744:../../Drivers/STM32N6xx_HAL_Driver/Src/stm32n6xx_hal_exti.c ****   {
 745:../../Drivers/STM32N6xx_HAL_Driver/Src/stm32n6xx_hal_exti.c ****     /* do nothing */
 746:../../Drivers/STM32N6xx_HAL_Driver/Src/stm32n6xx_hal_exti.c ****   }
 1260              		.loc 1 746 3 is_stmt 1 view .LVU469
 747:../../Drivers/STM32N6xx_HAL_Driver/Src/stm32n6xx_hal_exti.c **** 
 748:../../Drivers/STM32N6xx_HAL_Driver/Src/stm32n6xx_hal_exti.c ****   /* Store secure or non-secure attribute */
 749:../../Drivers/STM32N6xx_HAL_Driver/Src/stm32n6xx_hal_exti.c ****   *regaddr = regval;
 1261              		.loc 1 749 3 view .LVU470
 1262              		.loc 1 749 12 is_stmt 0 view .LVU471
 1263 004a 1851     		str	r0, [r3, r4]
 750:../../Drivers/STM32N6xx_HAL_Driver/Src/stm32n6xx_hal_exti.c **** #endif /* CPU_IN_SECURE_STATE */
 751:../../Drivers/STM32N6xx_HAL_Driver/Src/stm32n6xx_hal_exti.c **** 
 752:../../Drivers/STM32N6xx_HAL_Driver/Src/stm32n6xx_hal_exti.c **** }
 1264              		.loc 1 752 1 view .LVU472
 1265 004c 5DF8044B 		ldr	r4, [sp], #4
 1266              	.LCFI9:
 1267              		.cfi_restore 4
 1268              		.cfi_def_cfa_offset 0
 1269              	.LVL169:
 1270              		.loc 1 752 1 view .LVU473
 1271 0050 7047     		bx	lr
 1272              	.L88:
 1273 0052 00BF     		.align	2
 1274              	.L87:
 1275 0054 18500256 		.word	1442992152
 1276 0058 14500256 		.word	1442992148
 1277              		.cfi_endproc
 1278              	.LFE871:
 1280              		.section	.text.HAL_EXTI_GetConfigLineAttributes,"ax",%progbits
 1281              		.align	1
 1282              		.global	HAL_EXTI_GetConfigLineAttributes
 1283              		.syntax unified
 1284              		.thumb
 1285              		.thumb_func
 1287              	HAL_EXTI_GetConfigLineAttributes:
 1288              	.LVL170:
ARM GAS  C:\Users\SMART\AppData\Local\Temp\ccszOMU3.s 			page 38


 1289              	.LFB872:
 753:../../Drivers/STM32N6xx_HAL_Driver/Src/stm32n6xx_hal_exti.c **** 
 754:../../Drivers/STM32N6xx_HAL_Driver/Src/stm32n6xx_hal_exti.c **** /**
 755:../../Drivers/STM32N6xx_HAL_Driver/Src/stm32n6xx_hal_exti.c ****   * @brief  Get the EXTI line attribute(s).
 756:../../Drivers/STM32N6xx_HAL_Driver/Src/stm32n6xx_hal_exti.c ****   * @param  ExtiLine Exti line number.
 757:../../Drivers/STM32N6xx_HAL_Driver/Src/stm32n6xx_hal_exti.c ****   *         This parameter can be from 0 to @ref EXTI_LINE_NB.
 758:../../Drivers/STM32N6xx_HAL_Driver/Src/stm32n6xx_hal_exti.c ****   * @param  pLineAttributes: pointer to return line attributes.
 759:../../Drivers/STM32N6xx_HAL_Driver/Src/stm32n6xx_hal_exti.c ****   * @retval HAL Status.
 760:../../Drivers/STM32N6xx_HAL_Driver/Src/stm32n6xx_hal_exti.c ****   */
 761:../../Drivers/STM32N6xx_HAL_Driver/Src/stm32n6xx_hal_exti.c **** HAL_StatusTypeDef HAL_EXTI_GetConfigLineAttributes(uint32_t ExtiLine, uint32_t *pLineAttributes)
 762:../../Drivers/STM32N6xx_HAL_Driver/Src/stm32n6xx_hal_exti.c **** {
 1290              		.loc 1 762 1 is_stmt 1 view -0
 1291              		.cfi_startproc
 1292              		@ args = 0, pretend = 0, frame = 0
 1293              		@ frame_needed = 0, uses_anonymous_args = 0
 1294              		@ link register save eliminated.
 763:../../Drivers/STM32N6xx_HAL_Driver/Src/stm32n6xx_hal_exti.c ****   const __IO uint32_t *regaddr;
 1295              		.loc 1 763 3 view .LVU475
 764:../../Drivers/STM32N6xx_HAL_Driver/Src/stm32n6xx_hal_exti.c ****   uint32_t linepos;
 1296              		.loc 1 764 3 view .LVU476
 765:../../Drivers/STM32N6xx_HAL_Driver/Src/stm32n6xx_hal_exti.c ****   uint32_t maskline;
 1297              		.loc 1 765 3 view .LVU477
 766:../../Drivers/STM32N6xx_HAL_Driver/Src/stm32n6xx_hal_exti.c ****   uint32_t offset;
 1298              		.loc 1 766 3 view .LVU478
 767:../../Drivers/STM32N6xx_HAL_Driver/Src/stm32n6xx_hal_exti.c ****   uint32_t attributes;
 1299              		.loc 1 767 3 view .LVU479
 768:../../Drivers/STM32N6xx_HAL_Driver/Src/stm32n6xx_hal_exti.c **** 
 769:../../Drivers/STM32N6xx_HAL_Driver/Src/stm32n6xx_hal_exti.c ****   /* Check null pointer */
 770:../../Drivers/STM32N6xx_HAL_Driver/Src/stm32n6xx_hal_exti.c ****   if (pLineAttributes == NULL)
 1300              		.loc 1 770 3 view .LVU480
 1301              		.loc 1 770 6 is_stmt 0 view .LVU481
 1302 0000 8C46     		mov	ip, r1
 1303 0002 F1B1     		cbz	r1, .L94
 771:../../Drivers/STM32N6xx_HAL_Driver/Src/stm32n6xx_hal_exti.c ****   {
 772:../../Drivers/STM32N6xx_HAL_Driver/Src/stm32n6xx_hal_exti.c ****     return HAL_ERROR;
 773:../../Drivers/STM32N6xx_HAL_Driver/Src/stm32n6xx_hal_exti.c ****   }
 774:../../Drivers/STM32N6xx_HAL_Driver/Src/stm32n6xx_hal_exti.c **** 
 775:../../Drivers/STM32N6xx_HAL_Driver/Src/stm32n6xx_hal_exti.c ****   /* Check the parameters */
 776:../../Drivers/STM32N6xx_HAL_Driver/Src/stm32n6xx_hal_exti.c ****   assert_param(IS_EXTI_LINE(ExtiLine));
 1304              		.loc 1 776 3 is_stmt 1 view .LVU482
 777:../../Drivers/STM32N6xx_HAL_Driver/Src/stm32n6xx_hal_exti.c **** 
 778:../../Drivers/STM32N6xx_HAL_Driver/Src/stm32n6xx_hal_exti.c ****   /* Compute line register offset and line mask */
 779:../../Drivers/STM32N6xx_HAL_Driver/Src/stm32n6xx_hal_exti.c ****   offset = ((ExtiLine & EXTI_REG_MASK) >> EXTI_REG_SHIFT);
 1305              		.loc 1 779 3 view .LVU483
 1306              		.loc 1 779 10 is_stmt 0 view .LVU484
 1307 0004 C0F30142 		ubfx	r2, r0, #16, #2
 1308              	.LVL171:
 780:../../Drivers/STM32N6xx_HAL_Driver/Src/stm32n6xx_hal_exti.c ****   linepos = (ExtiLine & EXTI_PIN_MASK);
 1309              		.loc 1 780 3 is_stmt 1 view .LVU485
 1310              		.loc 1 780 11 is_stmt 0 view .LVU486
 1311 0008 00F01F00 		and	r0, r0, #31
 1312              	.LVL172:
 781:../../Drivers/STM32N6xx_HAL_Driver/Src/stm32n6xx_hal_exti.c ****   maskline = (1UL << linepos);
 1313              		.loc 1 781 3 is_stmt 1 view .LVU487
 1314              		.loc 1 781 12 is_stmt 0 view .LVU488
 1315 000c 0123     		movs	r3, #1
 1316 000e 8340     		lsls	r3, r3, r0
ARM GAS  C:\Users\SMART\AppData\Local\Temp\ccszOMU3.s 			page 39


 1317              	.LVL173:
 782:../../Drivers/STM32N6xx_HAL_Driver/Src/stm32n6xx_hal_exti.c **** 
 783:../../Drivers/STM32N6xx_HAL_Driver/Src/stm32n6xx_hal_exti.c ****   /* Get privilege or non-privilege attribute */
 784:../../Drivers/STM32N6xx_HAL_Driver/Src/stm32n6xx_hal_exti.c ****   regaddr = (__IO uint32_t *)(&EXTI->PRIVCFGR1 + (EXTI_PRIVCFGR_OFFSET * offset));
 1318              		.loc 1 784 3 is_stmt 1 view .LVU489
 1319              		.loc 1 784 13 is_stmt 0 view .LVU490
 1320 0010 5201     		lsls	r2, r2, #5
 1321              	.LVL174:
 1322              		.loc 1 784 11 view .LVU491
 1323 0012 0D49     		ldr	r1, .L96
 1324              	.LVL175:
 785:../../Drivers/STM32N6xx_HAL_Driver/Src/stm32n6xx_hal_exti.c **** 
 786:../../Drivers/STM32N6xx_HAL_Driver/Src/stm32n6xx_hal_exti.c ****   if ((*regaddr & maskline) != 0U)
 1325              		.loc 1 786 3 is_stmt 1 view .LVU492
 1326              		.loc 1 786 8 is_stmt 0 view .LVU493
 1327 0014 5158     		ldr	r1, [r2, r1]
 1328              	.LVL176:
 1329              		.loc 1 786 6 view .LVU494
 1330 0016 1942     		tst	r1, r3
 1331 0018 0DD0     		beq	.L95
 787:../../Drivers/STM32N6xx_HAL_Driver/Src/stm32n6xx_hal_exti.c ****   {
 788:../../Drivers/STM32N6xx_HAL_Driver/Src/stm32n6xx_hal_exti.c ****     attributes = EXTI_LINE_PRIV;
 1332              		.loc 1 788 16 view .LVU495
 1333 001a 40F20221 		movw	r1, #514
 1334              	.L91:
 1335              	.LVL177:
 789:../../Drivers/STM32N6xx_HAL_Driver/Src/stm32n6xx_hal_exti.c ****   }
 790:../../Drivers/STM32N6xx_HAL_Driver/Src/stm32n6xx_hal_exti.c ****   else
 791:../../Drivers/STM32N6xx_HAL_Driver/Src/stm32n6xx_hal_exti.c ****   {
 792:../../Drivers/STM32N6xx_HAL_Driver/Src/stm32n6xx_hal_exti.c ****     attributes = EXTI_LINE_NPRIV;
 793:../../Drivers/STM32N6xx_HAL_Driver/Src/stm32n6xx_hal_exti.c ****   }
 794:../../Drivers/STM32N6xx_HAL_Driver/Src/stm32n6xx_hal_exti.c **** 
 795:../../Drivers/STM32N6xx_HAL_Driver/Src/stm32n6xx_hal_exti.c ****   /* Get secure or non-secure attribute */
 796:../../Drivers/STM32N6xx_HAL_Driver/Src/stm32n6xx_hal_exti.c ****   regaddr = (__IO uint32_t *)(&EXTI->SECCFGR1 + (EXTI_SECCFGR_OFFSET * offset));
 1336              		.loc 1 796 3 is_stmt 1 view .LVU496
 1337              		.loc 1 796 11 is_stmt 0 view .LVU497
 1338 001e 0B48     		ldr	r0, .L96+4
 1339              	.LVL178:
 797:../../Drivers/STM32N6xx_HAL_Driver/Src/stm32n6xx_hal_exti.c **** 
 798:../../Drivers/STM32N6xx_HAL_Driver/Src/stm32n6xx_hal_exti.c ****   if ((*regaddr & maskline) != 0U)
 1340              		.loc 1 798 3 is_stmt 1 view .LVU498
 1341              		.loc 1 798 8 is_stmt 0 view .LVU499
 1342 0020 1258     		ldr	r2, [r2, r0]
 1343              	.LVL179:
 1344              		.loc 1 798 6 view .LVU500
 1345 0022 1A42     		tst	r2, r3
 1346 0024 0AD0     		beq	.L92
 799:../../Drivers/STM32N6xx_HAL_Driver/Src/stm32n6xx_hal_exti.c ****   {
 800:../../Drivers/STM32N6xx_HAL_Driver/Src/stm32n6xx_hal_exti.c ****     attributes |= EXTI_LINE_SEC;
 1347              		.loc 1 800 5 is_stmt 1 view .LVU501
 1348              		.loc 1 800 16 is_stmt 0 view .LVU502
 1349 0026 41F48071 		orr	r1, r1, #256
 1350              	.LVL180:
 1351              		.loc 1 800 16 view .LVU503
 1352 002a 41F00101 		orr	r1, r1, #1
 1353              	.LVL181:
 1354              	.L93:
ARM GAS  C:\Users\SMART\AppData\Local\Temp\ccszOMU3.s 			page 40


 801:../../Drivers/STM32N6xx_HAL_Driver/Src/stm32n6xx_hal_exti.c ****   }
 802:../../Drivers/STM32N6xx_HAL_Driver/Src/stm32n6xx_hal_exti.c ****   else
 803:../../Drivers/STM32N6xx_HAL_Driver/Src/stm32n6xx_hal_exti.c ****   {
 804:../../Drivers/STM32N6xx_HAL_Driver/Src/stm32n6xx_hal_exti.c ****     attributes |= EXTI_LINE_NSEC;
 805:../../Drivers/STM32N6xx_HAL_Driver/Src/stm32n6xx_hal_exti.c ****   }
 806:../../Drivers/STM32N6xx_HAL_Driver/Src/stm32n6xx_hal_exti.c **** 
 807:../../Drivers/STM32N6xx_HAL_Driver/Src/stm32n6xx_hal_exti.c ****   /* return value */
 808:../../Drivers/STM32N6xx_HAL_Driver/Src/stm32n6xx_hal_exti.c ****   *pLineAttributes = attributes;
 1355              		.loc 1 808 3 is_stmt 1 view .LVU504
 1356              		.loc 1 808 20 is_stmt 0 view .LVU505
 1357 002e CCF80010 		str	r1, [ip]
 809:../../Drivers/STM32N6xx_HAL_Driver/Src/stm32n6xx_hal_exti.c **** 
 810:../../Drivers/STM32N6xx_HAL_Driver/Src/stm32n6xx_hal_exti.c ****   return HAL_OK;
 1358              		.loc 1 810 3 is_stmt 1 view .LVU506
 1359              		.loc 1 810 10 is_stmt 0 view .LVU507
 1360 0032 0020     		movs	r0, #0
 1361              	.LVL182:
 1362              		.loc 1 810 10 view .LVU508
 1363 0034 7047     		bx	lr
 1364              	.LVL183:
 1365              	.L95:
 792:../../Drivers/STM32N6xx_HAL_Driver/Src/stm32n6xx_hal_exti.c ****   }
 1366              		.loc 1 792 16 view .LVU509
 1367 0036 4FF40071 		mov	r1, #512
 1368 003a F0E7     		b	.L91
 1369              	.LVL184:
 1370              	.L92:
 804:../../Drivers/STM32N6xx_HAL_Driver/Src/stm32n6xx_hal_exti.c ****   }
 1371              		.loc 1 804 5 is_stmt 1 view .LVU510
 804:../../Drivers/STM32N6xx_HAL_Driver/Src/stm32n6xx_hal_exti.c ****   }
 1372              		.loc 1 804 16 is_stmt 0 view .LVU511
 1373 003c 41F48071 		orr	r1, r1, #256
 1374              	.LVL185:
 804:../../Drivers/STM32N6xx_HAL_Driver/Src/stm32n6xx_hal_exti.c ****   }
 1375              		.loc 1 804 16 view .LVU512
 1376 0040 F5E7     		b	.L93
 1377              	.LVL186:
 1378              	.L94:
 772:../../Drivers/STM32N6xx_HAL_Driver/Src/stm32n6xx_hal_exti.c ****   }
 1379              		.loc 1 772 12 view .LVU513
 1380 0042 0120     		movs	r0, #1
 1381              	.LVL187:
 811:../../Drivers/STM32N6xx_HAL_Driver/Src/stm32n6xx_hal_exti.c **** }
 1382              		.loc 1 811 1 view .LVU514
 1383 0044 7047     		bx	lr
 1384              	.L97:
 1385 0046 00BF     		.align	2
 1386              	.L96:
 1387 0048 18500256 		.word	1442992152
 1388 004c 14500256 		.word	1442992148
 1389              		.cfi_endproc
 1390              	.LFE872:
 1392              		.section	.text.HAL_EXTI_LockAttributes,"ax",%progbits
 1393              		.align	1
 1394              		.global	HAL_EXTI_LockAttributes
 1395              		.syntax unified
 1396              		.thumb
ARM GAS  C:\Users\SMART\AppData\Local\Temp\ccszOMU3.s 			page 41


 1397              		.thumb_func
 1399              	HAL_EXTI_LockAttributes:
 1400              	.LFB873:
 812:../../Drivers/STM32N6xx_HAL_Driver/Src/stm32n6xx_hal_exti.c **** 
 813:../../Drivers/STM32N6xx_HAL_Driver/Src/stm32n6xx_hal_exti.c **** #if defined(CPU_IN_SECURE_STATE)
 814:../../Drivers/STM32N6xx_HAL_Driver/Src/stm32n6xx_hal_exti.c **** /**
 815:../../Drivers/STM32N6xx_HAL_Driver/Src/stm32n6xx_hal_exti.c ****   * @brief  Lock the secure and privilege configuration registers.
 816:../../Drivers/STM32N6xx_HAL_Driver/Src/stm32n6xx_hal_exti.c ****   * @retval None
 817:../../Drivers/STM32N6xx_HAL_Driver/Src/stm32n6xx_hal_exti.c ****   */
 818:../../Drivers/STM32N6xx_HAL_Driver/Src/stm32n6xx_hal_exti.c **** void HAL_EXTI_LockAttributes(void)
 819:../../Drivers/STM32N6xx_HAL_Driver/Src/stm32n6xx_hal_exti.c **** {
 1401              		.loc 1 819 1 is_stmt 1 view -0
 1402              		.cfi_startproc
 1403              		@ args = 0, pretend = 0, frame = 0
 1404              		@ frame_needed = 0, uses_anonymous_args = 0
 1405              		@ link register save eliminated.
 820:../../Drivers/STM32N6xx_HAL_Driver/Src/stm32n6xx_hal_exti.c ****   SET_BIT(EXTI->LOCKR, EXTI_LOCKR_LOCK);
 1406              		.loc 1 820 3 view .LVU516
 1407 0000 024A     		ldr	r2, .L99
 1408 0002 136F     		ldr	r3, [r2, #112]
 1409 0004 43F00103 		orr	r3, r3, #1
 1410 0008 1367     		str	r3, [r2, #112]
 821:../../Drivers/STM32N6xx_HAL_Driver/Src/stm32n6xx_hal_exti.c **** }
 1411              		.loc 1 821 1 is_stmt 0 view .LVU517
 1412 000a 7047     		bx	lr
 1413              	.L100:
 1414              		.align	2
 1415              	.L99:
 1416 000c 00500256 		.word	1442992128
 1417              		.cfi_endproc
 1418              	.LFE873:
 1420              		.section	.text.HAL_EXTI_GetLockAttributes,"ax",%progbits
 1421              		.align	1
 1422              		.global	HAL_EXTI_GetLockAttributes
 1423              		.syntax unified
 1424              		.thumb
 1425              		.thumb_func
 1427              	HAL_EXTI_GetLockAttributes:
 1428              	.LFB874:
 822:../../Drivers/STM32N6xx_HAL_Driver/Src/stm32n6xx_hal_exti.c **** 
 823:../../Drivers/STM32N6xx_HAL_Driver/Src/stm32n6xx_hal_exti.c **** /**
 824:../../Drivers/STM32N6xx_HAL_Driver/Src/stm32n6xx_hal_exti.c ****   * @brief  Return the secure and privilege configuration registers LOCK status
 825:../../Drivers/STM32N6xx_HAL_Driver/Src/stm32n6xx_hal_exti.c ****   * @retval 1 if the secure and privilege configuration registers have been locked else 0.
 826:../../Drivers/STM32N6xx_HAL_Driver/Src/stm32n6xx_hal_exti.c ****   */
 827:../../Drivers/STM32N6xx_HAL_Driver/Src/stm32n6xx_hal_exti.c **** uint32_t HAL_EXTI_GetLockAttributes(void)
 828:../../Drivers/STM32N6xx_HAL_Driver/Src/stm32n6xx_hal_exti.c **** {
 1429              		.loc 1 828 1 is_stmt 1 view -0
 1430              		.cfi_startproc
 1431              		@ args = 0, pretend = 0, frame = 0
 1432              		@ frame_needed = 0, uses_anonymous_args = 0
 1433              		@ link register save eliminated.
 829:../../Drivers/STM32N6xx_HAL_Driver/Src/stm32n6xx_hal_exti.c ****   return READ_BIT(EXTI->LOCKR, EXTI_LOCKR_LOCK);
 1434              		.loc 1 829 3 view .LVU519
 1435              		.loc 1 829 10 is_stmt 0 view .LVU520
 1436 0000 024B     		ldr	r3, .L102
 1437 0002 186F     		ldr	r0, [r3, #112]
 830:../../Drivers/STM32N6xx_HAL_Driver/Src/stm32n6xx_hal_exti.c **** }
ARM GAS  C:\Users\SMART\AppData\Local\Temp\ccszOMU3.s 			page 42


 1438              		.loc 1 830 1 view .LVU521
 1439 0004 00F00100 		and	r0, r0, #1
 1440 0008 7047     		bx	lr
 1441              	.L103:
 1442 000a 00BF     		.align	2
 1443              	.L102:
 1444 000c 00500256 		.word	1442992128
 1445              		.cfi_endproc
 1446              	.LFE874:
 1448              		.text
 1449              	.Letext0:
 1450              		.file 2 "C:\\ST\\STM32CubeIDE_2.0.0\\STM32CubeIDE\\plugins\\com.st.stm32cube.ide.mcu.externaltools
 1451              		.file 3 "C:\\ST\\STM32CubeIDE_2.0.0\\STM32CubeIDE\\plugins\\com.st.stm32cube.ide.mcu.externaltools
 1452              		.file 4 "../../Drivers/CMSIS/Device/ST/STM32N6xx/Include/stm32n657xx.h"
 1453              		.file 5 "../../Drivers/STM32N6xx_HAL_Driver/Inc/stm32n6xx_hal_def.h"
 1454              		.file 6 "../../Drivers/STM32N6xx_HAL_Driver/Inc/stm32n6xx_hal_exti.h"
ARM GAS  C:\Users\SMART\AppData\Local\Temp\ccszOMU3.s 			page 43

