ARM GAS  C:\Users\SMART\AppData\Local\Temp\ccwDMaLv.s 			page 1


   1              		.arch armv8.1-m.main
   2              		.fpu fpv5-d16
   3              		.arch_extension dsp
   4              		.arch_extension fp
   5              		.arch_extension fp.dp
   6              		.arch_extension mve
   7              		.arch_extension mve.fp
   8              		.eabi_attribute 5, "cortex-m55"
   9              		.eabi_attribute 28, 1
  10              		.eabi_attribute 20, 1
  11              		.eabi_attribute 21, 1
  12              		.eabi_attribute 23, 3
  13              		.eabi_attribute 24, 1
  14              		.eabi_attribute 25, 1
  15              		.eabi_attribute 26, 1
  16              		.eabi_attribute 30, 1
  17              		.eabi_attribute 34, 1
  18              		.eabi_attribute 38, 1
  19              		.eabi_attribute 18, 4
  20              		.file	"stm32n6xx_hal.c"
  21              		.text
  22              	.Ltext0:
  23              		.cfi_sections	.debug_frame
  24              		.file 1 "../../Drivers/STM32N6xx_HAL_Driver/Src/stm32n6xx_hal.c"
  25              		.section	.text.HAL_MspInit,"ax",%progbits
  26              		.align	1
  27              		.weak	HAL_MspInit
  28              		.syntax unified
  29              		.thumb
  30              		.thumb_func
  32              	HAL_MspInit:
  33              	.LFB864:
   1:../../Drivers/STM32N6xx_HAL_Driver/Src/stm32n6xx_hal.c **** /**
   2:../../Drivers/STM32N6xx_HAL_Driver/Src/stm32n6xx_hal.c ****   ******************************************************************************
   3:../../Drivers/STM32N6xx_HAL_Driver/Src/stm32n6xx_hal.c ****   * @file    stm32n6xx_hal.c
   4:../../Drivers/STM32N6xx_HAL_Driver/Src/stm32n6xx_hal.c ****   * @author  MCD Application Team
   5:../../Drivers/STM32N6xx_HAL_Driver/Src/stm32n6xx_hal.c ****   * @brief   HAL module driver.
   6:../../Drivers/STM32N6xx_HAL_Driver/Src/stm32n6xx_hal.c ****   *          This is the common part of the HAL initialization
   7:../../Drivers/STM32N6xx_HAL_Driver/Src/stm32n6xx_hal.c ****   *
   8:../../Drivers/STM32N6xx_HAL_Driver/Src/stm32n6xx_hal.c ****   ******************************************************************************
   9:../../Drivers/STM32N6xx_HAL_Driver/Src/stm32n6xx_hal.c ****   * @attention
  10:../../Drivers/STM32N6xx_HAL_Driver/Src/stm32n6xx_hal.c ****   *
  11:../../Drivers/STM32N6xx_HAL_Driver/Src/stm32n6xx_hal.c ****   * Copyright (c) 2023 STMicroelectronics.
  12:../../Drivers/STM32N6xx_HAL_Driver/Src/stm32n6xx_hal.c ****   * All rights reserved.
  13:../../Drivers/STM32N6xx_HAL_Driver/Src/stm32n6xx_hal.c ****   *
  14:../../Drivers/STM32N6xx_HAL_Driver/Src/stm32n6xx_hal.c ****   * This software is licensed under terms that can be found in the LICENSE file
  15:../../Drivers/STM32N6xx_HAL_Driver/Src/stm32n6xx_hal.c ****   * in the root directory of this software component.
  16:../../Drivers/STM32N6xx_HAL_Driver/Src/stm32n6xx_hal.c ****   * If no LICENSE file comes with this software, it is provided AS-IS.
  17:../../Drivers/STM32N6xx_HAL_Driver/Src/stm32n6xx_hal.c ****   *
  18:../../Drivers/STM32N6xx_HAL_Driver/Src/stm32n6xx_hal.c ****   ******************************************************************************
  19:../../Drivers/STM32N6xx_HAL_Driver/Src/stm32n6xx_hal.c ****   @verbatim
  20:../../Drivers/STM32N6xx_HAL_Driver/Src/stm32n6xx_hal.c ****   ==============================================================================
  21:../../Drivers/STM32N6xx_HAL_Driver/Src/stm32n6xx_hal.c ****                      ##### How to use this driver #####
  22:../../Drivers/STM32N6xx_HAL_Driver/Src/stm32n6xx_hal.c ****   ==============================================================================
  23:../../Drivers/STM32N6xx_HAL_Driver/Src/stm32n6xx_hal.c ****     [..]
  24:../../Drivers/STM32N6xx_HAL_Driver/Src/stm32n6xx_hal.c ****     The common HAL driver contains a set of generic and common APIs that can be
  25:../../Drivers/STM32N6xx_HAL_Driver/Src/stm32n6xx_hal.c ****     used by the PPP peripheral drivers and the user to start using the HAL.
ARM GAS  C:\Users\SMART\AppData\Local\Temp\ccwDMaLv.s 			page 2


  26:../../Drivers/STM32N6xx_HAL_Driver/Src/stm32n6xx_hal.c ****     [..]
  27:../../Drivers/STM32N6xx_HAL_Driver/Src/stm32n6xx_hal.c ****     The HAL contains two APIs' categories:
  28:../../Drivers/STM32N6xx_HAL_Driver/Src/stm32n6xx_hal.c ****          (+) Common HAL APIs
  29:../../Drivers/STM32N6xx_HAL_Driver/Src/stm32n6xx_hal.c ****          (+) Services HAL APIs
  30:../../Drivers/STM32N6xx_HAL_Driver/Src/stm32n6xx_hal.c ****     [..]
  31:../../Drivers/STM32N6xx_HAL_Driver/Src/stm32n6xx_hal.c ****     All the SYSCFG functions have the same privilege and security attributes.
  32:../../Drivers/STM32N6xx_HAL_Driver/Src/stm32n6xx_hal.c ****          (+) Functions can operate in non-privileged code should
  33:../../Drivers/STM32N6xx_HAL_Driver/Src/stm32n6xx_hal.c ****              privileged and unprivileged data access are granted to the
  34:../../Drivers/STM32N6xx_HAL_Driver/Src/stm32n6xx_hal.c ****              peripheral (see HAL_RIF_RISC_SetSlaveSecureAttributes)
  35:../../Drivers/STM32N6xx_HAL_Driver/Src/stm32n6xx_hal.c **** 
  36:../../Drivers/STM32N6xx_HAL_Driver/Src/stm32n6xx_hal.c ****          (+) Functions  can operate in non-secure code should
  37:../../Drivers/STM32N6xx_HAL_Driver/Src/stm32n6xx_hal.c ****              secure and non-secure data access are granted to the peripheral
  38:../../Drivers/STM32N6xx_HAL_Driver/Src/stm32n6xx_hal.c ****              (see HAL_RIF_RISC_SetSlaveSecureAttributes).
  39:../../Drivers/STM32N6xx_HAL_Driver/Src/stm32n6xx_hal.c **** 
  40:../../Drivers/STM32N6xx_HAL_Driver/Src/stm32n6xx_hal.c ****   @endverbatim
  41:../../Drivers/STM32N6xx_HAL_Driver/Src/stm32n6xx_hal.c ****   ******************************************************************************
  42:../../Drivers/STM32N6xx_HAL_Driver/Src/stm32n6xx_hal.c ****   */
  43:../../Drivers/STM32N6xx_HAL_Driver/Src/stm32n6xx_hal.c **** 
  44:../../Drivers/STM32N6xx_HAL_Driver/Src/stm32n6xx_hal.c **** /* Includes ------------------------------------------------------------------*/
  45:../../Drivers/STM32N6xx_HAL_Driver/Src/stm32n6xx_hal.c **** #include "stm32n6xx_hal.h"
  46:../../Drivers/STM32N6xx_HAL_Driver/Src/stm32n6xx_hal.c **** 
  47:../../Drivers/STM32N6xx_HAL_Driver/Src/stm32n6xx_hal.c **** /** @addtogroup STM32N6xx_HAL_Driver
  48:../../Drivers/STM32N6xx_HAL_Driver/Src/stm32n6xx_hal.c ****   * @{
  49:../../Drivers/STM32N6xx_HAL_Driver/Src/stm32n6xx_hal.c ****   */
  50:../../Drivers/STM32N6xx_HAL_Driver/Src/stm32n6xx_hal.c **** 
  51:../../Drivers/STM32N6xx_HAL_Driver/Src/stm32n6xx_hal.c **** /** @defgroup HAL HAL
  52:../../Drivers/STM32N6xx_HAL_Driver/Src/stm32n6xx_hal.c ****   * @brief HAL module driver
  53:../../Drivers/STM32N6xx_HAL_Driver/Src/stm32n6xx_hal.c ****   * @{
  54:../../Drivers/STM32N6xx_HAL_Driver/Src/stm32n6xx_hal.c ****   */
  55:../../Drivers/STM32N6xx_HAL_Driver/Src/stm32n6xx_hal.c **** 
  56:../../Drivers/STM32N6xx_HAL_Driver/Src/stm32n6xx_hal.c **** #ifdef HAL_MODULE_ENABLED
  57:../../Drivers/STM32N6xx_HAL_Driver/Src/stm32n6xx_hal.c **** 
  58:../../Drivers/STM32N6xx_HAL_Driver/Src/stm32n6xx_hal.c **** /* Private typedef -----------------------------------------------------------*/
  59:../../Drivers/STM32N6xx_HAL_Driver/Src/stm32n6xx_hal.c **** /* Private define ------------------------------------------------------------*/
  60:../../Drivers/STM32N6xx_HAL_Driver/Src/stm32n6xx_hal.c **** #define HAL_TIMEOUT_SYSCFG_ABORT        5U    /* 5 ms */
  61:../../Drivers/STM32N6xx_HAL_Driver/Src/stm32n6xx_hal.c **** 
  62:../../Drivers/STM32N6xx_HAL_Driver/Src/stm32n6xx_hal.c **** /* Private macros ------------------------------------------------------------*/
  63:../../Drivers/STM32N6xx_HAL_Driver/Src/stm32n6xx_hal.c **** /* Private variables ---------------------------------------------------------*/
  64:../../Drivers/STM32N6xx_HAL_Driver/Src/stm32n6xx_hal.c **** /* Exported variables --------------------------------------------------------*/
  65:../../Drivers/STM32N6xx_HAL_Driver/Src/stm32n6xx_hal.c **** 
  66:../../Drivers/STM32N6xx_HAL_Driver/Src/stm32n6xx_hal.c **** /** @defgroup HAL_Exported_Variables HAL Exported Variables
  67:../../Drivers/STM32N6xx_HAL_Driver/Src/stm32n6xx_hal.c ****   * @{
  68:../../Drivers/STM32N6xx_HAL_Driver/Src/stm32n6xx_hal.c ****   */
  69:../../Drivers/STM32N6xx_HAL_Driver/Src/stm32n6xx_hal.c **** __IO uint32_t uwTick;
  70:../../Drivers/STM32N6xx_HAL_Driver/Src/stm32n6xx_hal.c **** uint32_t uwTickPrio   = (1UL << __NVIC_PRIO_BITS); /* Invalid PRIO */
  71:../../Drivers/STM32N6xx_HAL_Driver/Src/stm32n6xx_hal.c **** HAL_TickFreqTypeDef uwTickFreq = HAL_TICK_FREQ_DEFAULT;  /* 1KHz */
  72:../../Drivers/STM32N6xx_HAL_Driver/Src/stm32n6xx_hal.c **** /**
  73:../../Drivers/STM32N6xx_HAL_Driver/Src/stm32n6xx_hal.c ****   * @}
  74:../../Drivers/STM32N6xx_HAL_Driver/Src/stm32n6xx_hal.c ****   */
  75:../../Drivers/STM32N6xx_HAL_Driver/Src/stm32n6xx_hal.c **** 
  76:../../Drivers/STM32N6xx_HAL_Driver/Src/stm32n6xx_hal.c **** /* Private function prototypes -----------------------------------------------*/
  77:../../Drivers/STM32N6xx_HAL_Driver/Src/stm32n6xx_hal.c **** /* Exported functions --------------------------------------------------------*/
  78:../../Drivers/STM32N6xx_HAL_Driver/Src/stm32n6xx_hal.c **** 
  79:../../Drivers/STM32N6xx_HAL_Driver/Src/stm32n6xx_hal.c **** /** @defgroup HAL_Exported_Functions HAL Exported Functions
  80:../../Drivers/STM32N6xx_HAL_Driver/Src/stm32n6xx_hal.c ****   * @{
  81:../../Drivers/STM32N6xx_HAL_Driver/Src/stm32n6xx_hal.c ****   */
  82:../../Drivers/STM32N6xx_HAL_Driver/Src/stm32n6xx_hal.c **** 
ARM GAS  C:\Users\SMART\AppData\Local\Temp\ccwDMaLv.s 			page 3


  83:../../Drivers/STM32N6xx_HAL_Driver/Src/stm32n6xx_hal.c **** /** @defgroup HAL_Exported_Functions_Group1 Initialization and de-initialization Functions
  84:../../Drivers/STM32N6xx_HAL_Driver/Src/stm32n6xx_hal.c ****   * @brief    Initialization and de-initialization functions
  85:../../Drivers/STM32N6xx_HAL_Driver/Src/stm32n6xx_hal.c ****   *
  86:../../Drivers/STM32N6xx_HAL_Driver/Src/stm32n6xx_hal.c **** @verbatim
  87:../../Drivers/STM32N6xx_HAL_Driver/Src/stm32n6xx_hal.c ****  ===============================================================================
  88:../../Drivers/STM32N6xx_HAL_Driver/Src/stm32n6xx_hal.c ****               ##### Initialization and de-initialization functions #####
  89:../../Drivers/STM32N6xx_HAL_Driver/Src/stm32n6xx_hal.c ****  ===============================================================================
  90:../../Drivers/STM32N6xx_HAL_Driver/Src/stm32n6xx_hal.c ****     [..]  This section provides functions allowing to:
  91:../../Drivers/STM32N6xx_HAL_Driver/Src/stm32n6xx_hal.c ****       (+) Initializes the NVIC allocation and initial clock configuration.
  92:../../Drivers/STM32N6xx_HAL_Driver/Src/stm32n6xx_hal.c ****           It initializes the systick also when timeout is needed
  93:../../Drivers/STM32N6xx_HAL_Driver/Src/stm32n6xx_hal.c ****           and the backup domain when enabled.
  94:../../Drivers/STM32N6xx_HAL_Driver/Src/stm32n6xx_hal.c ****       (+) De-Initializes common part of the HAL.
  95:../../Drivers/STM32N6xx_HAL_Driver/Src/stm32n6xx_hal.c ****       (+) Configure The time base source to have 1ms time base with a dedicated
  96:../../Drivers/STM32N6xx_HAL_Driver/Src/stm32n6xx_hal.c ****           Tick interrupt priority.
  97:../../Drivers/STM32N6xx_HAL_Driver/Src/stm32n6xx_hal.c ****         (++) SysTick timer is used by default as source of time base, but user
  98:../../Drivers/STM32N6xx_HAL_Driver/Src/stm32n6xx_hal.c ****              can eventually implement his proper time base source (a general purpose
  99:../../Drivers/STM32N6xx_HAL_Driver/Src/stm32n6xx_hal.c ****              timer for example or other time source), keeping in mind that Time base
 100:../../Drivers/STM32N6xx_HAL_Driver/Src/stm32n6xx_hal.c ****              duration should be kept 1ms since PPP_TIMEOUT_VALUEs are defined and
 101:../../Drivers/STM32N6xx_HAL_Driver/Src/stm32n6xx_hal.c ****              handled in milliseconds basis.
 102:../../Drivers/STM32N6xx_HAL_Driver/Src/stm32n6xx_hal.c ****         (++) Time base configuration function (HAL_InitTick ()) is called automatically
 103:../../Drivers/STM32N6xx_HAL_Driver/Src/stm32n6xx_hal.c ****              at the beginning of the program after reset by HAL_Init() or at any time
 104:../../Drivers/STM32N6xx_HAL_Driver/Src/stm32n6xx_hal.c ****              when clock is configured, by HAL_RCC_ClockConfig().
 105:../../Drivers/STM32N6xx_HAL_Driver/Src/stm32n6xx_hal.c ****         (++) Source of time base is configured  to generate interrupts at regular
 106:../../Drivers/STM32N6xx_HAL_Driver/Src/stm32n6xx_hal.c ****              time intervals. Care must be taken if HAL_Delay() is called from a
 107:../../Drivers/STM32N6xx_HAL_Driver/Src/stm32n6xx_hal.c ****              peripheral ISR process, the Tick interrupt line must have higher priority
 108:../../Drivers/STM32N6xx_HAL_Driver/Src/stm32n6xx_hal.c ****             (numerically lower) than the peripheral interrupt. Otherwise the caller
 109:../../Drivers/STM32N6xx_HAL_Driver/Src/stm32n6xx_hal.c ****             ISR process will be blocked.
 110:../../Drivers/STM32N6xx_HAL_Driver/Src/stm32n6xx_hal.c ****        (++) functions affecting time base configurations are declared as __weak
 111:../../Drivers/STM32N6xx_HAL_Driver/Src/stm32n6xx_hal.c ****              to make  override possible  in case of other  implementations in user file.
 112:../../Drivers/STM32N6xx_HAL_Driver/Src/stm32n6xx_hal.c **** @endverbatim
 113:../../Drivers/STM32N6xx_HAL_Driver/Src/stm32n6xx_hal.c ****   * @{
 114:../../Drivers/STM32N6xx_HAL_Driver/Src/stm32n6xx_hal.c ****   */
 115:../../Drivers/STM32N6xx_HAL_Driver/Src/stm32n6xx_hal.c **** 
 116:../../Drivers/STM32N6xx_HAL_Driver/Src/stm32n6xx_hal.c **** /**
 117:../../Drivers/STM32N6xx_HAL_Driver/Src/stm32n6xx_hal.c ****   * @brief  Configure the time base source, NVIC and any required global low
 118:../../Drivers/STM32N6xx_HAL_Driver/Src/stm32n6xx_hal.c ****   *         level hardware by calling the HAL_MspInit() callback function to be optionally defined
 119:../../Drivers/STM32N6xx_HAL_Driver/Src/stm32n6xx_hal.c ****   *         in user file stm32n6xx_hal_msp.c.
 120:../../Drivers/STM32N6xx_HAL_Driver/Src/stm32n6xx_hal.c ****   *
 121:../../Drivers/STM32N6xx_HAL_Driver/Src/stm32n6xx_hal.c ****   * @note   HAL_Init() function is called at the beginning of program after reset and before
 122:../../Drivers/STM32N6xx_HAL_Driver/Src/stm32n6xx_hal.c ****   *         the clock configuration.
 123:../../Drivers/STM32N6xx_HAL_Driver/Src/stm32n6xx_hal.c ****   *
 124:../../Drivers/STM32N6xx_HAL_Driver/Src/stm32n6xx_hal.c ****   * @note   In the default implementation the System Timer (Systick) is used as source of time base
 125:../../Drivers/STM32N6xx_HAL_Driver/Src/stm32n6xx_hal.c ****   *         The Systick configuration is based on HSI clock, as HSI is the clock
 126:../../Drivers/STM32N6xx_HAL_Driver/Src/stm32n6xx_hal.c ****   *         used after a system Reset and the NVIC configuration is set to Priority group 4.
 127:../../Drivers/STM32N6xx_HAL_Driver/Src/stm32n6xx_hal.c ****   *         Once done, time base tick starts incrementing: the tick variable counter is incremented
 128:../../Drivers/STM32N6xx_HAL_Driver/Src/stm32n6xx_hal.c ****   *         each 1ms in the SysTick_Handler() interrupt handler.
 129:../../Drivers/STM32N6xx_HAL_Driver/Src/stm32n6xx_hal.c ****   *
 130:../../Drivers/STM32N6xx_HAL_Driver/Src/stm32n6xx_hal.c ****   * @retval HAL status
 131:../../Drivers/STM32N6xx_HAL_Driver/Src/stm32n6xx_hal.c ****   */
 132:../../Drivers/STM32N6xx_HAL_Driver/Src/stm32n6xx_hal.c **** HAL_StatusTypeDef HAL_Init(void)
 133:../../Drivers/STM32N6xx_HAL_Driver/Src/stm32n6xx_hal.c **** {
 134:../../Drivers/STM32N6xx_HAL_Driver/Src/stm32n6xx_hal.c ****   /* Set Interrupt Group Priority */
 135:../../Drivers/STM32N6xx_HAL_Driver/Src/stm32n6xx_hal.c ****   HAL_NVIC_SetPriorityGrouping(NVIC_PRIORITYGROUP_4);
 136:../../Drivers/STM32N6xx_HAL_Driver/Src/stm32n6xx_hal.c **** 
 137:../../Drivers/STM32N6xx_HAL_Driver/Src/stm32n6xx_hal.c ****   /* Ensure time base clock coherency in SystemCoreClock global variable */
 138:../../Drivers/STM32N6xx_HAL_Driver/Src/stm32n6xx_hal.c ****   SystemCoreClockUpdate();
 139:../../Drivers/STM32N6xx_HAL_Driver/Src/stm32n6xx_hal.c **** 
ARM GAS  C:\Users\SMART\AppData\Local\Temp\ccwDMaLv.s 			page 4


 140:../../Drivers/STM32N6xx_HAL_Driver/Src/stm32n6xx_hal.c ****   /* Initialize 1ms tick time base (default SysTick based on HSI clock after Reset) */
 141:../../Drivers/STM32N6xx_HAL_Driver/Src/stm32n6xx_hal.c ****   if (HAL_InitTick(TICK_INT_PRIORITY) != HAL_OK)
 142:../../Drivers/STM32N6xx_HAL_Driver/Src/stm32n6xx_hal.c ****   {
 143:../../Drivers/STM32N6xx_HAL_Driver/Src/stm32n6xx_hal.c ****     return HAL_ERROR;
 144:../../Drivers/STM32N6xx_HAL_Driver/Src/stm32n6xx_hal.c ****   }
 145:../../Drivers/STM32N6xx_HAL_Driver/Src/stm32n6xx_hal.c **** 
 146:../../Drivers/STM32N6xx_HAL_Driver/Src/stm32n6xx_hal.c ****   /* Init the low level hardware */
 147:../../Drivers/STM32N6xx_HAL_Driver/Src/stm32n6xx_hal.c ****   HAL_MspInit();
 148:../../Drivers/STM32N6xx_HAL_Driver/Src/stm32n6xx_hal.c **** 
 149:../../Drivers/STM32N6xx_HAL_Driver/Src/stm32n6xx_hal.c ****   /* Return function status */
 150:../../Drivers/STM32N6xx_HAL_Driver/Src/stm32n6xx_hal.c ****   return HAL_OK;
 151:../../Drivers/STM32N6xx_HAL_Driver/Src/stm32n6xx_hal.c **** }
 152:../../Drivers/STM32N6xx_HAL_Driver/Src/stm32n6xx_hal.c **** 
 153:../../Drivers/STM32N6xx_HAL_Driver/Src/stm32n6xx_hal.c **** /**
 154:../../Drivers/STM32N6xx_HAL_Driver/Src/stm32n6xx_hal.c ****   * @brief  This function de-initializes all peripherals and low level hardware resources.
 155:../../Drivers/STM32N6xx_HAL_Driver/Src/stm32n6xx_hal.c ****   * @note   This function should only be called from code running in internal RAM
 156:../../Drivers/STM32N6xx_HAL_Driver/Src/stm32n6xx_hal.c ****   *         since it resets the external peripheral memory interfaces.
 157:../../Drivers/STM32N6xx_HAL_Driver/Src/stm32n6xx_hal.c ****   * @note   This function is optional.
 158:../../Drivers/STM32N6xx_HAL_Driver/Src/stm32n6xx_hal.c ****   * @retval HAL status
 159:../../Drivers/STM32N6xx_HAL_Driver/Src/stm32n6xx_hal.c ****   */
 160:../../Drivers/STM32N6xx_HAL_Driver/Src/stm32n6xx_hal.c **** HAL_StatusTypeDef HAL_DeInit(void)
 161:../../Drivers/STM32N6xx_HAL_Driver/Src/stm32n6xx_hal.c **** {
 162:../../Drivers/STM32N6xx_HAL_Driver/Src/stm32n6xx_hal.c ****   /* Reset of all peripherals */
 163:../../Drivers/STM32N6xx_HAL_Driver/Src/stm32n6xx_hal.c ****   __HAL_RCC_APB1_FORCE_RESET();
 164:../../Drivers/STM32N6xx_HAL_Driver/Src/stm32n6xx_hal.c ****   __HAL_RCC_APB1_RELEASE_RESET();
 165:../../Drivers/STM32N6xx_HAL_Driver/Src/stm32n6xx_hal.c **** 
 166:../../Drivers/STM32N6xx_HAL_Driver/Src/stm32n6xx_hal.c ****   __HAL_RCC_APB2_FORCE_RESET();
 167:../../Drivers/STM32N6xx_HAL_Driver/Src/stm32n6xx_hal.c ****   __HAL_RCC_APB2_RELEASE_RESET();
 168:../../Drivers/STM32N6xx_HAL_Driver/Src/stm32n6xx_hal.c **** 
 169:../../Drivers/STM32N6xx_HAL_Driver/Src/stm32n6xx_hal.c ****   __HAL_RCC_APB4_FORCE_RESET();
 170:../../Drivers/STM32N6xx_HAL_Driver/Src/stm32n6xx_hal.c ****   __HAL_RCC_APB4_RELEASE_RESET();
 171:../../Drivers/STM32N6xx_HAL_Driver/Src/stm32n6xx_hal.c **** 
 172:../../Drivers/STM32N6xx_HAL_Driver/Src/stm32n6xx_hal.c ****   __HAL_RCC_APB5_FORCE_RESET();
 173:../../Drivers/STM32N6xx_HAL_Driver/Src/stm32n6xx_hal.c ****   __HAL_RCC_APB5_RELEASE_RESET();
 174:../../Drivers/STM32N6xx_HAL_Driver/Src/stm32n6xx_hal.c **** 
 175:../../Drivers/STM32N6xx_HAL_Driver/Src/stm32n6xx_hal.c ****   __HAL_RCC_AHB1_FORCE_RESET();
 176:../../Drivers/STM32N6xx_HAL_Driver/Src/stm32n6xx_hal.c ****   __HAL_RCC_AHB1_RELEASE_RESET();
 177:../../Drivers/STM32N6xx_HAL_Driver/Src/stm32n6xx_hal.c **** 
 178:../../Drivers/STM32N6xx_HAL_Driver/Src/stm32n6xx_hal.c ****   __HAL_RCC_AHB2_FORCE_RESET();
 179:../../Drivers/STM32N6xx_HAL_Driver/Src/stm32n6xx_hal.c ****   __HAL_RCC_AHB2_RELEASE_RESET();
 180:../../Drivers/STM32N6xx_HAL_Driver/Src/stm32n6xx_hal.c **** 
 181:../../Drivers/STM32N6xx_HAL_Driver/Src/stm32n6xx_hal.c ****   __HAL_RCC_AHB3_FORCE_RESET();
 182:../../Drivers/STM32N6xx_HAL_Driver/Src/stm32n6xx_hal.c ****   __HAL_RCC_AHB3_RELEASE_RESET();
 183:../../Drivers/STM32N6xx_HAL_Driver/Src/stm32n6xx_hal.c **** 
 184:../../Drivers/STM32N6xx_HAL_Driver/Src/stm32n6xx_hal.c ****   __HAL_RCC_AHB4_FORCE_RESET();
 185:../../Drivers/STM32N6xx_HAL_Driver/Src/stm32n6xx_hal.c ****   __HAL_RCC_AHB4_RELEASE_RESET();
 186:../../Drivers/STM32N6xx_HAL_Driver/Src/stm32n6xx_hal.c **** 
 187:../../Drivers/STM32N6xx_HAL_Driver/Src/stm32n6xx_hal.c ****   __HAL_RCC_AHB5_FORCE_RESET();
 188:../../Drivers/STM32N6xx_HAL_Driver/Src/stm32n6xx_hal.c ****   __HAL_RCC_AHB5_RELEASE_RESET();
 189:../../Drivers/STM32N6xx_HAL_Driver/Src/stm32n6xx_hal.c **** 
 190:../../Drivers/STM32N6xx_HAL_Driver/Src/stm32n6xx_hal.c ****   /* De-Init the low level hardware */
 191:../../Drivers/STM32N6xx_HAL_Driver/Src/stm32n6xx_hal.c ****   HAL_MspDeInit();
 192:../../Drivers/STM32N6xx_HAL_Driver/Src/stm32n6xx_hal.c **** 
 193:../../Drivers/STM32N6xx_HAL_Driver/Src/stm32n6xx_hal.c ****   /* Return function status */
 194:../../Drivers/STM32N6xx_HAL_Driver/Src/stm32n6xx_hal.c ****   return HAL_OK;
 195:../../Drivers/STM32N6xx_HAL_Driver/Src/stm32n6xx_hal.c **** }
 196:../../Drivers/STM32N6xx_HAL_Driver/Src/stm32n6xx_hal.c **** 
ARM GAS  C:\Users\SMART\AppData\Local\Temp\ccwDMaLv.s 			page 5


 197:../../Drivers/STM32N6xx_HAL_Driver/Src/stm32n6xx_hal.c **** /**
 198:../../Drivers/STM32N6xx_HAL_Driver/Src/stm32n6xx_hal.c ****   * @brief  Initializes the MSP.
 199:../../Drivers/STM32N6xx_HAL_Driver/Src/stm32n6xx_hal.c ****   * @retval None
 200:../../Drivers/STM32N6xx_HAL_Driver/Src/stm32n6xx_hal.c ****   */
 201:../../Drivers/STM32N6xx_HAL_Driver/Src/stm32n6xx_hal.c **** __weak void HAL_MspInit(void)
 202:../../Drivers/STM32N6xx_HAL_Driver/Src/stm32n6xx_hal.c **** {
  34              		.loc 1 202 1 view -0
  35              		.cfi_startproc
  36              		@ args = 0, pretend = 0, frame = 0
  37              		@ frame_needed = 0, uses_anonymous_args = 0
  38              		@ link register save eliminated.
 203:../../Drivers/STM32N6xx_HAL_Driver/Src/stm32n6xx_hal.c ****   /* NOTE : This function Should not be modified, when the callback is needed,
 204:../../Drivers/STM32N6xx_HAL_Driver/Src/stm32n6xx_hal.c ****             the HAL_MspInit could be implemented in the user file
 205:../../Drivers/STM32N6xx_HAL_Driver/Src/stm32n6xx_hal.c ****    */
 206:../../Drivers/STM32N6xx_HAL_Driver/Src/stm32n6xx_hal.c **** }
  39              		.loc 1 206 1 view .LVU1
  40 0000 7047     		bx	lr
  41              		.cfi_endproc
  42              	.LFE864:
  44              		.section	.text.HAL_MspDeInit,"ax",%progbits
  45              		.align	1
  46              		.weak	HAL_MspDeInit
  47              		.syntax unified
  48              		.thumb
  49              		.thumb_func
  51              	HAL_MspDeInit:
  52              	.LFB865:
 207:../../Drivers/STM32N6xx_HAL_Driver/Src/stm32n6xx_hal.c **** 
 208:../../Drivers/STM32N6xx_HAL_Driver/Src/stm32n6xx_hal.c **** /**
 209:../../Drivers/STM32N6xx_HAL_Driver/Src/stm32n6xx_hal.c ****   * @brief  DeInitializes the MSP.
 210:../../Drivers/STM32N6xx_HAL_Driver/Src/stm32n6xx_hal.c ****   * @retval None
 211:../../Drivers/STM32N6xx_HAL_Driver/Src/stm32n6xx_hal.c ****   */
 212:../../Drivers/STM32N6xx_HAL_Driver/Src/stm32n6xx_hal.c **** __weak void HAL_MspDeInit(void)
 213:../../Drivers/STM32N6xx_HAL_Driver/Src/stm32n6xx_hal.c **** {
  53              		.loc 1 213 1 view -0
  54              		.cfi_startproc
  55              		@ args = 0, pretend = 0, frame = 0
  56              		@ frame_needed = 0, uses_anonymous_args = 0
  57              		@ link register save eliminated.
 214:../../Drivers/STM32N6xx_HAL_Driver/Src/stm32n6xx_hal.c ****   /* NOTE : This function Should not be modified, when the callback is needed,
 215:../../Drivers/STM32N6xx_HAL_Driver/Src/stm32n6xx_hal.c ****             the HAL_MspDeInit could be implemented in the user file
 216:../../Drivers/STM32N6xx_HAL_Driver/Src/stm32n6xx_hal.c ****    */
 217:../../Drivers/STM32N6xx_HAL_Driver/Src/stm32n6xx_hal.c **** }
  58              		.loc 1 217 1 view .LVU3
  59 0000 7047     		bx	lr
  60              		.cfi_endproc
  61              	.LFE865:
  63              		.section	.text.HAL_DeInit,"ax",%progbits
  64              		.align	1
  65              		.global	HAL_DeInit
  66              		.syntax unified
  67              		.thumb
  68              		.thumb_func
  70              	HAL_DeInit:
  71              	.LFB863:
 161:../../Drivers/STM32N6xx_HAL_Driver/Src/stm32n6xx_hal.c ****   /* Reset of all peripherals */
  72              		.loc 1 161 1 view -0
ARM GAS  C:\Users\SMART\AppData\Local\Temp\ccwDMaLv.s 			page 6


  73              		.cfi_startproc
  74              		@ args = 0, pretend = 0, frame = 0
  75              		@ frame_needed = 0, uses_anonymous_args = 0
  76 0000 10B5     		push	{r4, lr}
  77              	.LCFI0:
  78              		.cfi_def_cfa_offset 8
  79              		.cfi_offset 4, -8
  80              		.cfi_offset 14, -4
 163:../../Drivers/STM32N6xx_HAL_Driver/Src/stm32n6xx_hal.c ****   __HAL_RCC_APB1_RELEASE_RESET();
  81              		.loc 1 163 3 view .LVU5
 163:../../Drivers/STM32N6xx_HAL_Driver/Src/stm32n6xx_hal.c ****   __HAL_RCC_APB1_RELEASE_RESET();
  82              		.loc 1 163 3 view .LVU6
  83 0002 1F4B     		ldr	r3, .L5
  84 0004 1F4A     		ldr	r2, .L5+4
  85 0006 C3F8242A 		str	r2, [r3, #2596]
 163:../../Drivers/STM32N6xx_HAL_Driver/Src/stm32n6xx_hal.c ****   __HAL_RCC_APB1_RELEASE_RESET();
  86              		.loc 1 163 3 view .LVU7
  87 000a 1F4A     		ldr	r2, .L5+8
  88 000c C3F8282A 		str	r2, [r3, #2600]
 163:../../Drivers/STM32N6xx_HAL_Driver/Src/stm32n6xx_hal.c ****   __HAL_RCC_APB1_RELEASE_RESET();
  89              		.loc 1 163 3 view .LVU8
 164:../../Drivers/STM32N6xx_HAL_Driver/Src/stm32n6xx_hal.c **** 
  90              		.loc 1 164 3 view .LVU9
 164:../../Drivers/STM32N6xx_HAL_Driver/Src/stm32n6xx_hal.c **** 
  91              		.loc 1 164 3 view .LVU10
  92 0010 0024     		movs	r4, #0
  93 0012 C3F8244A 		str	r4, [r3, #2596]
 164:../../Drivers/STM32N6xx_HAL_Driver/Src/stm32n6xx_hal.c **** 
  94              		.loc 1 164 3 view .LVU11
  95 0016 C3F8284A 		str	r4, [r3, #2600]
 164:../../Drivers/STM32N6xx_HAL_Driver/Src/stm32n6xx_hal.c **** 
  96              		.loc 1 164 3 view .LVU12
 166:../../Drivers/STM32N6xx_HAL_Driver/Src/stm32n6xx_hal.c ****   __HAL_RCC_APB2_RELEASE_RESET();
  97              		.loc 1 166 3 view .LVU13
  98 001a 1C4A     		ldr	r2, .L5+12
  99 001c C3F82C2A 		str	r2, [r3, #2604]
 167:../../Drivers/STM32N6xx_HAL_Driver/Src/stm32n6xx_hal.c **** 
 100              		.loc 1 167 3 view .LVU14
 101 0020 C3F82C4A 		str	r4, [r3, #2604]
 169:../../Drivers/STM32N6xx_HAL_Driver/Src/stm32n6xx_hal.c ****   __HAL_RCC_APB4_RELEASE_RESET();
 102              		.loc 1 169 3 view .LVU15
 169:../../Drivers/STM32N6xx_HAL_Driver/Src/stm32n6xx_hal.c ****   __HAL_RCC_APB4_RELEASE_RESET();
 103              		.loc 1 169 3 view .LVU16
 104 0024 1A4A     		ldr	r2, .L5+16
 105 0026 C3F8342A 		str	r2, [r3, #2612]
 169:../../Drivers/STM32N6xx_HAL_Driver/Src/stm32n6xx_hal.c ****   __HAL_RCC_APB4_RELEASE_RESET();
 106              		.loc 1 169 3 view .LVU17
 107 002a 0522     		movs	r2, #5
 108 002c C3F8382A 		str	r2, [r3, #2616]
 169:../../Drivers/STM32N6xx_HAL_Driver/Src/stm32n6xx_hal.c ****   __HAL_RCC_APB4_RELEASE_RESET();
 109              		.loc 1 169 3 view .LVU18
 170:../../Drivers/STM32N6xx_HAL_Driver/Src/stm32n6xx_hal.c **** 
 110              		.loc 1 170 3 view .LVU19
 170:../../Drivers/STM32N6xx_HAL_Driver/Src/stm32n6xx_hal.c **** 
 111              		.loc 1 170 3 view .LVU20
 112 0030 C3F8344A 		str	r4, [r3, #2612]
 170:../../Drivers/STM32N6xx_HAL_Driver/Src/stm32n6xx_hal.c **** 
ARM GAS  C:\Users\SMART\AppData\Local\Temp\ccwDMaLv.s 			page 7


 113              		.loc 1 170 3 view .LVU21
 114 0034 C3F8384A 		str	r4, [r3, #2616]
 170:../../Drivers/STM32N6xx_HAL_Driver/Src/stm32n6xx_hal.c **** 
 115              		.loc 1 170 3 view .LVU22
 172:../../Drivers/STM32N6xx_HAL_Driver/Src/stm32n6xx_hal.c ****   __HAL_RCC_APB5_RELEASE_RESET();
 116              		.loc 1 172 3 view .LVU23
 117 0038 7622     		movs	r2, #118
 118 003a C3F83C2A 		str	r2, [r3, #2620]
 173:../../Drivers/STM32N6xx_HAL_Driver/Src/stm32n6xx_hal.c **** 
 119              		.loc 1 173 3 view .LVU24
 120 003e C3F83C4A 		str	r4, [r3, #2620]
 175:../../Drivers/STM32N6xx_HAL_Driver/Src/stm32n6xx_hal.c ****   __HAL_RCC_AHB1_RELEASE_RESET();
 121              		.loc 1 175 3 view .LVU25
 122 0042 3022     		movs	r2, #48
 123 0044 C3F8102A 		str	r2, [r3, #2576]
 175:../../Drivers/STM32N6xx_HAL_Driver/Src/stm32n6xx_hal.c ****   __HAL_RCC_AHB1_RELEASE_RESET();
 124              		.loc 1 175 31 view .LVU26
 176:../../Drivers/STM32N6xx_HAL_Driver/Src/stm32n6xx_hal.c **** 
 125              		.loc 1 176 3 view .LVU27
 126 0048 C3F8104A 		str	r4, [r3, #2576]
 178:../../Drivers/STM32N6xx_HAL_Driver/Src/stm32n6xx_hal.c ****   __HAL_RCC_AHB2_RELEASE_RESET();
 127              		.loc 1 178 3 view .LVU28
 128 004c 4FF44432 		mov	r2, #200704
 129 0050 C3F8142A 		str	r2, [r3, #2580]
 178:../../Drivers/STM32N6xx_HAL_Driver/Src/stm32n6xx_hal.c ****   __HAL_RCC_AHB2_RELEASE_RESET();
 130              		.loc 1 178 31 view .LVU29
 179:../../Drivers/STM32N6xx_HAL_Driver/Src/stm32n6xx_hal.c **** 
 131              		.loc 1 179 3 view .LVU30
 132 0054 C3F8144A 		str	r4, [r3, #2580]
 181:../../Drivers/STM32N6xx_HAL_Driver/Src/stm32n6xx_hal.c ****   __HAL_RCC_AHB3_RELEASE_RESET();
 133              		.loc 1 181 3 view .LVU31
 134 0058 40F21752 		movw	r2, #1303
 135 005c C3F8182A 		str	r2, [r3, #2584]
 181:../../Drivers/STM32N6xx_HAL_Driver/Src/stm32n6xx_hal.c ****   __HAL_RCC_AHB3_RELEASE_RESET();
 136              		.loc 1 181 31 view .LVU32
 182:../../Drivers/STM32N6xx_HAL_Driver/Src/stm32n6xx_hal.c **** 
 137              		.loc 1 182 3 view .LVU33
 138 0060 C3F8184A 		str	r4, [r3, #2584]
 184:../../Drivers/STM32N6xx_HAL_Driver/Src/stm32n6xx_hal.c ****   __HAL_RCC_AHB4_RELEASE_RESET();
 139              		.loc 1 184 3 view .LVU34
 140 0064 0B4A     		ldr	r2, .L5+20
 141 0066 C3F81C2A 		str	r2, [r3, #2588]
 184:../../Drivers/STM32N6xx_HAL_Driver/Src/stm32n6xx_hal.c ****   __HAL_RCC_AHB4_RELEASE_RESET();
 142              		.loc 1 184 31 view .LVU35
 185:../../Drivers/STM32N6xx_HAL_Driver/Src/stm32n6xx_hal.c **** 
 143              		.loc 1 185 3 view .LVU36
 144 006a C3F81C4A 		str	r4, [r3, #2588]
 187:../../Drivers/STM32N6xx_HAL_Driver/Src/stm32n6xx_hal.c ****   __HAL_RCC_AHB5_RELEASE_RESET();
 145              		.loc 1 187 3 view .LVU37
 146 006e 0A4A     		ldr	r2, .L5+24
 147 0070 C3F8202A 		str	r2, [r3, #2592]
 188:../../Drivers/STM32N6xx_HAL_Driver/Src/stm32n6xx_hal.c **** 
 148              		.loc 1 188 3 view .LVU38
 149 0074 C3F8204A 		str	r4, [r3, #2592]
 191:../../Drivers/STM32N6xx_HAL_Driver/Src/stm32n6xx_hal.c **** 
 150              		.loc 1 191 3 view .LVU39
 151 0078 FFF7FEFF 		bl	HAL_MspDeInit
ARM GAS  C:\Users\SMART\AppData\Local\Temp\ccwDMaLv.s 			page 8


 152              	.LVL0:
 194:../../Drivers/STM32N6xx_HAL_Driver/Src/stm32n6xx_hal.c **** }
 153              		.loc 1 194 3 view .LVU40
 195:../../Drivers/STM32N6xx_HAL_Driver/Src/stm32n6xx_hal.c **** 
 154              		.loc 1 195 1 is_stmt 0 view .LVU41
 155 007c 2046     		mov	r0, r4
 156 007e 10BD     		pop	{r4, pc}
 157              	.L6:
 158              		.align	2
 159              	.L5:
 160 0080 00800256 		.word	1443004416
 161 0084 FFF3FFC3 		.word	-1006636033
 162 0088 20010400 		.word	262432
 163 008c F3B07F00 		.word	8368371
 164 0090 AC9E0100 		.word	106156
 165 0094 FFE00D00 		.word	909567
 166 0098 FB319AFF 		.word	-6671877
 167              		.cfi_endproc
 168              	.LFE863:
 170              		.section	.text.HAL_InitTick,"ax",%progbits
 171              		.align	1
 172              		.weak	HAL_InitTick
 173              		.syntax unified
 174              		.thumb
 175              		.thumb_func
 177              	HAL_InitTick:
 178              	.LVL1:
 179              	.LFB866:
 218:../../Drivers/STM32N6xx_HAL_Driver/Src/stm32n6xx_hal.c **** 
 219:../../Drivers/STM32N6xx_HAL_Driver/Src/stm32n6xx_hal.c **** /**
 220:../../Drivers/STM32N6xx_HAL_Driver/Src/stm32n6xx_hal.c ****   * @brief This function configures the source of the time base.
 221:../../Drivers/STM32N6xx_HAL_Driver/Src/stm32n6xx_hal.c ****   *        The time source is configured to have 1ms time base with a dedicated
 222:../../Drivers/STM32N6xx_HAL_Driver/Src/stm32n6xx_hal.c ****   *        Tick interrupt priority.
 223:../../Drivers/STM32N6xx_HAL_Driver/Src/stm32n6xx_hal.c ****   * @note This function is called  automatically at the beginning of program after
 224:../../Drivers/STM32N6xx_HAL_Driver/Src/stm32n6xx_hal.c ****   *       reset by HAL_Init() or at any time when clock is reconfigured  by HAL_RCC_ClockConfig().
 225:../../Drivers/STM32N6xx_HAL_Driver/Src/stm32n6xx_hal.c ****   * @note In the default implementation, SysTick timer is the source of time base.
 226:../../Drivers/STM32N6xx_HAL_Driver/Src/stm32n6xx_hal.c ****   *       It is used to generate interrupts at regular time intervals.
 227:../../Drivers/STM32N6xx_HAL_Driver/Src/stm32n6xx_hal.c ****   *       Care must be taken if HAL_Delay() is called from a peripheral ISR process,
 228:../../Drivers/STM32N6xx_HAL_Driver/Src/stm32n6xx_hal.c ****   *       The SysTick interrupt must have higher priority (numerically lower)
 229:../../Drivers/STM32N6xx_HAL_Driver/Src/stm32n6xx_hal.c ****   *       than the peripheral interrupt. Otherwise the caller ISR process will be blocked.
 230:../../Drivers/STM32N6xx_HAL_Driver/Src/stm32n6xx_hal.c ****   *       The function is declared as __weak  to be overwritten  in case of other
 231:../../Drivers/STM32N6xx_HAL_Driver/Src/stm32n6xx_hal.c ****   *       implementation  in user file.
 232:../../Drivers/STM32N6xx_HAL_Driver/Src/stm32n6xx_hal.c ****   * @param TickPriority: Tick interrupt priority.
 233:../../Drivers/STM32N6xx_HAL_Driver/Src/stm32n6xx_hal.c ****   * @retval HAL status
 234:../../Drivers/STM32N6xx_HAL_Driver/Src/stm32n6xx_hal.c ****   */
 235:../../Drivers/STM32N6xx_HAL_Driver/Src/stm32n6xx_hal.c **** __weak HAL_StatusTypeDef HAL_InitTick(uint32_t TickPriority)
 236:../../Drivers/STM32N6xx_HAL_Driver/Src/stm32n6xx_hal.c **** {
 180              		.loc 1 236 1 is_stmt 1 view -0
 181              		.cfi_startproc
 182              		@ args = 0, pretend = 0, frame = 0
 183              		@ frame_needed = 0, uses_anonymous_args = 0
 237:../../Drivers/STM32N6xx_HAL_Driver/Src/stm32n6xx_hal.c ****   /* Check uwTickFreq for MisraC 2012 (even if uwTickFreq is a enum type that don't take the value 
 238:../../Drivers/STM32N6xx_HAL_Driver/Src/stm32n6xx_hal.c ****   if ((uint32_t)uwTickFreq == 0UL)
 184              		.loc 1 238 3 view .LVU43
 185              		.loc 1 238 28 is_stmt 0 view .LVU44
 186 0000 104B     		ldr	r3, .L18
 187 0002 1B78     		ldrb	r3, [r3]	@ zero_extendqisi2
ARM GAS  C:\Users\SMART\AppData\Local\Temp\ccwDMaLv.s 			page 9


 188              		.loc 1 238 6 view .LVU45
 189 0004 0BB9     		cbnz	r3, .L16
 239:../../Drivers/STM32N6xx_HAL_Driver/Src/stm32n6xx_hal.c ****   {
 240:../../Drivers/STM32N6xx_HAL_Driver/Src/stm32n6xx_hal.c ****     return HAL_ERROR;
 190              		.loc 1 240 12 view .LVU46
 191 0006 0120     		movs	r0, #1
 192              	.LVL2:
 241:../../Drivers/STM32N6xx_HAL_Driver/Src/stm32n6xx_hal.c ****   }
 242:../../Drivers/STM32N6xx_HAL_Driver/Src/stm32n6xx_hal.c **** 
 243:../../Drivers/STM32N6xx_HAL_Driver/Src/stm32n6xx_hal.c ****   /* Configure the SysTick to have interrupt in 1ms time basis*/
 244:../../Drivers/STM32N6xx_HAL_Driver/Src/stm32n6xx_hal.c ****   if (HAL_SYSTICK_Config(SystemCoreClock / (1000UL / (uint32_t)uwTickFreq)) > 0U)
 245:../../Drivers/STM32N6xx_HAL_Driver/Src/stm32n6xx_hal.c ****   {
 246:../../Drivers/STM32N6xx_HAL_Driver/Src/stm32n6xx_hal.c ****     return HAL_ERROR;
 247:../../Drivers/STM32N6xx_HAL_Driver/Src/stm32n6xx_hal.c ****   }
 248:../../Drivers/STM32N6xx_HAL_Driver/Src/stm32n6xx_hal.c **** 
 249:../../Drivers/STM32N6xx_HAL_Driver/Src/stm32n6xx_hal.c ****   /* Configure the SysTick IRQ priority */
 250:../../Drivers/STM32N6xx_HAL_Driver/Src/stm32n6xx_hal.c ****   if (TickPriority < (1UL << __NVIC_PRIO_BITS))
 251:../../Drivers/STM32N6xx_HAL_Driver/Src/stm32n6xx_hal.c ****   {
 252:../../Drivers/STM32N6xx_HAL_Driver/Src/stm32n6xx_hal.c ****     HAL_NVIC_SetPriority(SysTick_IRQn, TickPriority, 0U);
 253:../../Drivers/STM32N6xx_HAL_Driver/Src/stm32n6xx_hal.c ****     uwTickPrio = TickPriority;
 254:../../Drivers/STM32N6xx_HAL_Driver/Src/stm32n6xx_hal.c ****   }
 255:../../Drivers/STM32N6xx_HAL_Driver/Src/stm32n6xx_hal.c ****   else
 256:../../Drivers/STM32N6xx_HAL_Driver/Src/stm32n6xx_hal.c ****   {
 257:../../Drivers/STM32N6xx_HAL_Driver/Src/stm32n6xx_hal.c ****     return HAL_ERROR;
 258:../../Drivers/STM32N6xx_HAL_Driver/Src/stm32n6xx_hal.c ****   }
 259:../../Drivers/STM32N6xx_HAL_Driver/Src/stm32n6xx_hal.c **** 
 260:../../Drivers/STM32N6xx_HAL_Driver/Src/stm32n6xx_hal.c ****   /* Return function status */
 261:../../Drivers/STM32N6xx_HAL_Driver/Src/stm32n6xx_hal.c ****   return HAL_OK;
 262:../../Drivers/STM32N6xx_HAL_Driver/Src/stm32n6xx_hal.c **** }
 193              		.loc 1 262 1 view .LVU47
 194 0008 7047     		bx	lr
 195              	.LVL3:
 196              	.L16:
 236:../../Drivers/STM32N6xx_HAL_Driver/Src/stm32n6xx_hal.c ****   /* Check uwTickFreq for MisraC 2012 (even if uwTickFreq is a enum type that don't take the value 
 197              		.loc 1 236 1 view .LVU48
 198 000a 10B5     		push	{r4, lr}
 199              	.LCFI1:
 200              		.cfi_def_cfa_offset 8
 201              		.cfi_offset 4, -8
 202              		.cfi_offset 14, -4
 203 000c 0446     		mov	r4, r0
 244:../../Drivers/STM32N6xx_HAL_Driver/Src/stm32n6xx_hal.c ****   {
 204              		.loc 1 244 3 is_stmt 1 view .LVU49
 244:../../Drivers/STM32N6xx_HAL_Driver/Src/stm32n6xx_hal.c ****   {
 205              		.loc 1 244 52 is_stmt 0 view .LVU50
 206 000e 4FF47A70 		mov	r0, #1000
 207              	.LVL4:
 244:../../Drivers/STM32N6xx_HAL_Driver/Src/stm32n6xx_hal.c ****   {
 208              		.loc 1 244 52 view .LVU51
 209 0012 B0FBF3F3 		udiv	r3, r0, r3
 244:../../Drivers/STM32N6xx_HAL_Driver/Src/stm32n6xx_hal.c ****   {
 210              		.loc 1 244 7 view .LVU52
 211 0016 0C4A     		ldr	r2, .L18+4
 212 0018 1068     		ldr	r0, [r2]
 213 001a B0FBF3F0 		udiv	r0, r0, r3
 214 001e FFF7FEFF 		bl	HAL_SYSTICK_Config
 215              	.LVL5:
ARM GAS  C:\Users\SMART\AppData\Local\Temp\ccwDMaLv.s 			page 10


 244:../../Drivers/STM32N6xx_HAL_Driver/Src/stm32n6xx_hal.c ****   {
 216              		.loc 1 244 6 discriminator 1 view .LVU53
 217 0022 68B9     		cbnz	r0, .L10
 250:../../Drivers/STM32N6xx_HAL_Driver/Src/stm32n6xx_hal.c ****   {
 218              		.loc 1 250 3 is_stmt 1 view .LVU54
 250:../../Drivers/STM32N6xx_HAL_Driver/Src/stm32n6xx_hal.c ****   {
 219              		.loc 1 250 6 is_stmt 0 view .LVU55
 220 0024 0F2C     		cmp	r4, #15
 221 0026 01D9     		bls	.L17
 257:../../Drivers/STM32N6xx_HAL_Driver/Src/stm32n6xx_hal.c ****   }
 222              		.loc 1 257 12 view .LVU56
 223 0028 0120     		movs	r0, #1
 224 002a 0AE0     		b	.L8
 225              	.L17:
 252:../../Drivers/STM32N6xx_HAL_Driver/Src/stm32n6xx_hal.c ****     uwTickPrio = TickPriority;
 226              		.loc 1 252 5 is_stmt 1 view .LVU57
 227 002c 0022     		movs	r2, #0
 228 002e 2146     		mov	r1, r4
 229 0030 4FF0FF30 		mov	r0, #-1
 230 0034 FFF7FEFF 		bl	HAL_NVIC_SetPriority
 231              	.LVL6:
 253:../../Drivers/STM32N6xx_HAL_Driver/Src/stm32n6xx_hal.c ****   }
 232              		.loc 1 253 5 view .LVU58
 253:../../Drivers/STM32N6xx_HAL_Driver/Src/stm32n6xx_hal.c ****   }
 233              		.loc 1 253 16 is_stmt 0 view .LVU59
 234 0038 044B     		ldr	r3, .L18+8
 235 003a 1C60     		str	r4, [r3]
 261:../../Drivers/STM32N6xx_HAL_Driver/Src/stm32n6xx_hal.c **** }
 236              		.loc 1 261 3 is_stmt 1 view .LVU60
 261:../../Drivers/STM32N6xx_HAL_Driver/Src/stm32n6xx_hal.c **** }
 237              		.loc 1 261 10 is_stmt 0 view .LVU61
 238 003c 0020     		movs	r0, #0
 239 003e 00E0     		b	.L8
 240              	.L10:
 246:../../Drivers/STM32N6xx_HAL_Driver/Src/stm32n6xx_hal.c ****   }
 241              		.loc 1 246 12 view .LVU62
 242 0040 0120     		movs	r0, #1
 243              	.L8:
 244              		.loc 1 262 1 view .LVU63
 245 0042 10BD     		pop	{r4, pc}
 246              	.LVL7:
 247              	.L19:
 248              		.loc 1 262 1 view .LVU64
 249              		.align	2
 250              	.L18:
 251 0044 00000000 		.word	uwTickFreq
 252 0048 00000000 		.word	SystemCoreClock
 253 004c 00000000 		.word	uwTickPrio
 254              		.cfi_endproc
 255              	.LFE866:
 257              		.section	.text.HAL_Init,"ax",%progbits
 258              		.align	1
 259              		.global	HAL_Init
 260              		.syntax unified
 261              		.thumb
 262              		.thumb_func
 264              	HAL_Init:
ARM GAS  C:\Users\SMART\AppData\Local\Temp\ccwDMaLv.s 			page 11


 265              	.LFB862:
 133:../../Drivers/STM32N6xx_HAL_Driver/Src/stm32n6xx_hal.c ****   /* Set Interrupt Group Priority */
 266              		.loc 1 133 1 is_stmt 1 view -0
 267              		.cfi_startproc
 268              		@ args = 0, pretend = 0, frame = 0
 269              		@ frame_needed = 0, uses_anonymous_args = 0
 270 0000 10B5     		push	{r4, lr}
 271              	.LCFI2:
 272              		.cfi_def_cfa_offset 8
 273              		.cfi_offset 4, -8
 274              		.cfi_offset 14, -4
 135:../../Drivers/STM32N6xx_HAL_Driver/Src/stm32n6xx_hal.c **** 
 275              		.loc 1 135 3 view .LVU66
 276 0002 0320     		movs	r0, #3
 277 0004 FFF7FEFF 		bl	HAL_NVIC_SetPriorityGrouping
 278              	.LVL8:
 138:../../Drivers/STM32N6xx_HAL_Driver/Src/stm32n6xx_hal.c **** 
 279              		.loc 1 138 3 view .LVU67
 280 0008 FFF7FEFF 		bl	SystemCoreClockUpdate
 281              	.LVL9:
 141:../../Drivers/STM32N6xx_HAL_Driver/Src/stm32n6xx_hal.c ****   {
 282              		.loc 1 141 3 view .LVU68
 141:../../Drivers/STM32N6xx_HAL_Driver/Src/stm32n6xx_hal.c ****   {
 283              		.loc 1 141 7 is_stmt 0 view .LVU69
 284 000c 0020     		movs	r0, #0
 285 000e FFF7FEFF 		bl	HAL_InitTick
 286              	.LVL10:
 141:../../Drivers/STM32N6xx_HAL_Driver/Src/stm32n6xx_hal.c ****   {
 287              		.loc 1 141 6 discriminator 1 view .LVU70
 288 0012 10B1     		cbz	r0, .L24
 143:../../Drivers/STM32N6xx_HAL_Driver/Src/stm32n6xx_hal.c ****   }
 289              		.loc 1 143 12 view .LVU71
 290 0014 0124     		movs	r4, #1
 291              	.L21:
 151:../../Drivers/STM32N6xx_HAL_Driver/Src/stm32n6xx_hal.c **** 
 292              		.loc 1 151 1 view .LVU72
 293 0016 2046     		mov	r0, r4
 294 0018 10BD     		pop	{r4, pc}
 295              	.L24:
 296 001a 0446     		mov	r4, r0
 147:../../Drivers/STM32N6xx_HAL_Driver/Src/stm32n6xx_hal.c **** 
 297              		.loc 1 147 3 is_stmt 1 view .LVU73
 298 001c FFF7FEFF 		bl	HAL_MspInit
 299              	.LVL11:
 150:../../Drivers/STM32N6xx_HAL_Driver/Src/stm32n6xx_hal.c **** }
 300              		.loc 1 150 3 view .LVU74
 150:../../Drivers/STM32N6xx_HAL_Driver/Src/stm32n6xx_hal.c **** }
 301              		.loc 1 150 10 is_stmt 0 view .LVU75
 302 0020 F9E7     		b	.L21
 303              		.cfi_endproc
 304              	.LFE862:
 306              		.section	.text.HAL_IncTick,"ax",%progbits
 307              		.align	1
 308              		.weak	HAL_IncTick
 309              		.syntax unified
 310              		.thumb
 311              		.thumb_func
ARM GAS  C:\Users\SMART\AppData\Local\Temp\ccwDMaLv.s 			page 12


 313              	HAL_IncTick:
 314              	.LFB867:
 263:../../Drivers/STM32N6xx_HAL_Driver/Src/stm32n6xx_hal.c **** 
 264:../../Drivers/STM32N6xx_HAL_Driver/Src/stm32n6xx_hal.c **** /**
 265:../../Drivers/STM32N6xx_HAL_Driver/Src/stm32n6xx_hal.c ****   * @}
 266:../../Drivers/STM32N6xx_HAL_Driver/Src/stm32n6xx_hal.c ****   */
 267:../../Drivers/STM32N6xx_HAL_Driver/Src/stm32n6xx_hal.c **** 
 268:../../Drivers/STM32N6xx_HAL_Driver/Src/stm32n6xx_hal.c **** /** @defgroup HAL_Group2 HAL Control functions
 269:../../Drivers/STM32N6xx_HAL_Driver/Src/stm32n6xx_hal.c ****   *  @brief    HAL Control functions
 270:../../Drivers/STM32N6xx_HAL_Driver/Src/stm32n6xx_hal.c ****   *
 271:../../Drivers/STM32N6xx_HAL_Driver/Src/stm32n6xx_hal.c **** @verbatim
 272:../../Drivers/STM32N6xx_HAL_Driver/Src/stm32n6xx_hal.c ****  ===============================================================================
 273:../../Drivers/STM32N6xx_HAL_Driver/Src/stm32n6xx_hal.c ****                       ##### HAL Control functions #####
 274:../../Drivers/STM32N6xx_HAL_Driver/Src/stm32n6xx_hal.c ****  ===============================================================================
 275:../../Drivers/STM32N6xx_HAL_Driver/Src/stm32n6xx_hal.c ****     [..]  This section provides functions allowing to:
 276:../../Drivers/STM32N6xx_HAL_Driver/Src/stm32n6xx_hal.c ****       (+) Provide a tick value in millisecond
 277:../../Drivers/STM32N6xx_HAL_Driver/Src/stm32n6xx_hal.c ****       (+) Provide a blocking delay in millisecond
 278:../../Drivers/STM32N6xx_HAL_Driver/Src/stm32n6xx_hal.c ****       (+) Suspend the time base source interrupt
 279:../../Drivers/STM32N6xx_HAL_Driver/Src/stm32n6xx_hal.c ****       (+) Resume the time base source interrupt
 280:../../Drivers/STM32N6xx_HAL_Driver/Src/stm32n6xx_hal.c ****       (+) Get the HAL API driver version
 281:../../Drivers/STM32N6xx_HAL_Driver/Src/stm32n6xx_hal.c ****       (+) Get the device identifier
 282:../../Drivers/STM32N6xx_HAL_Driver/Src/stm32n6xx_hal.c ****       (+) Get the device revision identifier
 283:../../Drivers/STM32N6xx_HAL_Driver/Src/stm32n6xx_hal.c ****       (+) Enable/Disable Debug module during SLEEP mode
 284:../../Drivers/STM32N6xx_HAL_Driver/Src/stm32n6xx_hal.c ****       (+) Enable/Disable Debug module during STOP mode
 285:../../Drivers/STM32N6xx_HAL_Driver/Src/stm32n6xx_hal.c ****       (+) Enable/Disable Debug module during STANDBY mode
 286:../../Drivers/STM32N6xx_HAL_Driver/Src/stm32n6xx_hal.c **** 
 287:../../Drivers/STM32N6xx_HAL_Driver/Src/stm32n6xx_hal.c **** @endverbatim
 288:../../Drivers/STM32N6xx_HAL_Driver/Src/stm32n6xx_hal.c ****   * @{
 289:../../Drivers/STM32N6xx_HAL_Driver/Src/stm32n6xx_hal.c ****   */
 290:../../Drivers/STM32N6xx_HAL_Driver/Src/stm32n6xx_hal.c **** 
 291:../../Drivers/STM32N6xx_HAL_Driver/Src/stm32n6xx_hal.c **** /**
 292:../../Drivers/STM32N6xx_HAL_Driver/Src/stm32n6xx_hal.c ****   * @brief This function is called to increment a global variable "uwTick"
 293:../../Drivers/STM32N6xx_HAL_Driver/Src/stm32n6xx_hal.c ****   *        used as application time base.
 294:../../Drivers/STM32N6xx_HAL_Driver/Src/stm32n6xx_hal.c ****   * @note In the default implementation, this variable is incremented each 1ms
 295:../../Drivers/STM32N6xx_HAL_Driver/Src/stm32n6xx_hal.c ****   *       in Systick ISR.
 296:../../Drivers/STM32N6xx_HAL_Driver/Src/stm32n6xx_hal.c ****   * @note This function is declared as __weak to be overwritten in case of other
 297:../../Drivers/STM32N6xx_HAL_Driver/Src/stm32n6xx_hal.c ****   *       implementations in user file.
 298:../../Drivers/STM32N6xx_HAL_Driver/Src/stm32n6xx_hal.c ****   * @retval None
 299:../../Drivers/STM32N6xx_HAL_Driver/Src/stm32n6xx_hal.c ****   */
 300:../../Drivers/STM32N6xx_HAL_Driver/Src/stm32n6xx_hal.c **** __weak void HAL_IncTick(void)
 301:../../Drivers/STM32N6xx_HAL_Driver/Src/stm32n6xx_hal.c **** {
 315              		.loc 1 301 1 is_stmt 1 view -0
 316              		.cfi_startproc
 317              		@ args = 0, pretend = 0, frame = 0
 318              		@ frame_needed = 0, uses_anonymous_args = 0
 319              		@ link register save eliminated.
 302:../../Drivers/STM32N6xx_HAL_Driver/Src/stm32n6xx_hal.c ****   uwTick += (uint32_t)uwTickFreq;
 320              		.loc 1 302 3 view .LVU77
 321              		.loc 1 302 13 is_stmt 0 view .LVU78
 322 0000 034B     		ldr	r3, .L26
 323 0002 1B78     		ldrb	r3, [r3]	@ zero_extendqisi2
 324              		.loc 1 302 10 view .LVU79
 325 0004 034A     		ldr	r2, .L26+4
 326 0006 1168     		ldr	r1, [r2]
 327 0008 0B44     		add	r3, r3, r1
 328 000a 1360     		str	r3, [r2]
 303:../../Drivers/STM32N6xx_HAL_Driver/Src/stm32n6xx_hal.c **** }
ARM GAS  C:\Users\SMART\AppData\Local\Temp\ccwDMaLv.s 			page 13


 329              		.loc 1 303 1 view .LVU80
 330 000c 7047     		bx	lr
 331              	.L27:
 332 000e 00BF     		.align	2
 333              	.L26:
 334 0010 00000000 		.word	uwTickFreq
 335 0014 00000000 		.word	uwTick
 336              		.cfi_endproc
 337              	.LFE867:
 339              		.section	.text.HAL_GetTick,"ax",%progbits
 340              		.align	1
 341              		.weak	HAL_GetTick
 342              		.syntax unified
 343              		.thumb
 344              		.thumb_func
 346              	HAL_GetTick:
 347              	.LFB868:
 304:../../Drivers/STM32N6xx_HAL_Driver/Src/stm32n6xx_hal.c **** 
 305:../../Drivers/STM32N6xx_HAL_Driver/Src/stm32n6xx_hal.c **** /**
 306:../../Drivers/STM32N6xx_HAL_Driver/Src/stm32n6xx_hal.c ****   * @brief Provides a tick value in millisecond.
 307:../../Drivers/STM32N6xx_HAL_Driver/Src/stm32n6xx_hal.c ****   * @note This function is declared as __weak to be overwritten in case of other
 308:../../Drivers/STM32N6xx_HAL_Driver/Src/stm32n6xx_hal.c ****   *       implementations in user file.
 309:../../Drivers/STM32N6xx_HAL_Driver/Src/stm32n6xx_hal.c ****   * @retval tick value
 310:../../Drivers/STM32N6xx_HAL_Driver/Src/stm32n6xx_hal.c ****   */
 311:../../Drivers/STM32N6xx_HAL_Driver/Src/stm32n6xx_hal.c **** __weak uint32_t HAL_GetTick(void)
 312:../../Drivers/STM32N6xx_HAL_Driver/Src/stm32n6xx_hal.c **** {
 348              		.loc 1 312 1 is_stmt 1 view -0
 349              		.cfi_startproc
 350              		@ args = 0, pretend = 0, frame = 0
 351              		@ frame_needed = 0, uses_anonymous_args = 0
 352              		@ link register save eliminated.
 313:../../Drivers/STM32N6xx_HAL_Driver/Src/stm32n6xx_hal.c ****   return uwTick;
 353              		.loc 1 313 3 view .LVU82
 354              		.loc 1 313 10 is_stmt 0 view .LVU83
 355 0000 014B     		ldr	r3, .L29
 356 0002 1868     		ldr	r0, [r3]
 314:../../Drivers/STM32N6xx_HAL_Driver/Src/stm32n6xx_hal.c **** }
 357              		.loc 1 314 1 view .LVU84
 358 0004 7047     		bx	lr
 359              	.L30:
 360 0006 00BF     		.align	2
 361              	.L29:
 362 0008 00000000 		.word	uwTick
 363              		.cfi_endproc
 364              	.LFE868:
 366              		.section	.text.HAL_GetTickPrio,"ax",%progbits
 367              		.align	1
 368              		.global	HAL_GetTickPrio
 369              		.syntax unified
 370              		.thumb
 371              		.thumb_func
 373              	HAL_GetTickPrio:
 374              	.LFB869:
 315:../../Drivers/STM32N6xx_HAL_Driver/Src/stm32n6xx_hal.c **** 
 316:../../Drivers/STM32N6xx_HAL_Driver/Src/stm32n6xx_hal.c **** /**
 317:../../Drivers/STM32N6xx_HAL_Driver/Src/stm32n6xx_hal.c ****   * @brief This function returns a tick priority.
 318:../../Drivers/STM32N6xx_HAL_Driver/Src/stm32n6xx_hal.c ****   * @retval tick priority
ARM GAS  C:\Users\SMART\AppData\Local\Temp\ccwDMaLv.s 			page 14


 319:../../Drivers/STM32N6xx_HAL_Driver/Src/stm32n6xx_hal.c ****   */
 320:../../Drivers/STM32N6xx_HAL_Driver/Src/stm32n6xx_hal.c **** uint32_t HAL_GetTickPrio(void)
 321:../../Drivers/STM32N6xx_HAL_Driver/Src/stm32n6xx_hal.c **** {
 375              		.loc 1 321 1 is_stmt 1 view -0
 376              		.cfi_startproc
 377              		@ args = 0, pretend = 0, frame = 0
 378              		@ frame_needed = 0, uses_anonymous_args = 0
 379              		@ link register save eliminated.
 322:../../Drivers/STM32N6xx_HAL_Driver/Src/stm32n6xx_hal.c ****   return uwTickPrio;
 380              		.loc 1 322 3 view .LVU86
 323:../../Drivers/STM32N6xx_HAL_Driver/Src/stm32n6xx_hal.c **** }
 381              		.loc 1 323 1 is_stmt 0 view .LVU87
 382 0000 014B     		ldr	r3, .L32
 383 0002 1868     		ldr	r0, [r3]
 384 0004 7047     		bx	lr
 385              	.L33:
 386 0006 00BF     		.align	2
 387              	.L32:
 388 0008 00000000 		.word	uwTickPrio
 389              		.cfi_endproc
 390              	.LFE869:
 392              		.section	.text.HAL_SetTickFreq,"ax",%progbits
 393              		.align	1
 394              		.global	HAL_SetTickFreq
 395              		.syntax unified
 396              		.thumb
 397              		.thumb_func
 399              	HAL_SetTickFreq:
 400              	.LVL12:
 401              	.LFB870:
 324:../../Drivers/STM32N6xx_HAL_Driver/Src/stm32n6xx_hal.c **** 
 325:../../Drivers/STM32N6xx_HAL_Driver/Src/stm32n6xx_hal.c **** /**
 326:../../Drivers/STM32N6xx_HAL_Driver/Src/stm32n6xx_hal.c ****   * @brief Set new tick Freq.
 327:../../Drivers/STM32N6xx_HAL_Driver/Src/stm32n6xx_hal.c ****   * @param Freq Tick frequency, value of @ref HAL_TickFreqTypeDef.
 328:../../Drivers/STM32N6xx_HAL_Driver/Src/stm32n6xx_hal.c ****   * @retval HAL status
 329:../../Drivers/STM32N6xx_HAL_Driver/Src/stm32n6xx_hal.c ****   */
 330:../../Drivers/STM32N6xx_HAL_Driver/Src/stm32n6xx_hal.c **** HAL_StatusTypeDef HAL_SetTickFreq(HAL_TickFreqTypeDef Freq)
 331:../../Drivers/STM32N6xx_HAL_Driver/Src/stm32n6xx_hal.c **** {
 402              		.loc 1 331 1 is_stmt 1 view -0
 403              		.cfi_startproc
 404              		@ args = 0, pretend = 0, frame = 0
 405              		@ frame_needed = 0, uses_anonymous_args = 0
 406              		.loc 1 331 1 is_stmt 0 view .LVU89
 407 0000 10B5     		push	{r4, lr}
 408              	.LCFI3:
 409              		.cfi_def_cfa_offset 8
 410              		.cfi_offset 4, -8
 411              		.cfi_offset 14, -4
 332:../../Drivers/STM32N6xx_HAL_Driver/Src/stm32n6xx_hal.c ****   HAL_StatusTypeDef status  = HAL_OK;
 412              		.loc 1 332 3 is_stmt 1 view .LVU90
 413              	.LVL13:
 333:../../Drivers/STM32N6xx_HAL_Driver/Src/stm32n6xx_hal.c ****   HAL_TickFreqTypeDef prevTickFreq;
 414              		.loc 1 333 3 view .LVU91
 334:../../Drivers/STM32N6xx_HAL_Driver/Src/stm32n6xx_hal.c **** 
 335:../../Drivers/STM32N6xx_HAL_Driver/Src/stm32n6xx_hal.c ****   assert_param(IS_TICKFREQ(Freq));
 415              		.loc 1 335 3 view .LVU92
 336:../../Drivers/STM32N6xx_HAL_Driver/Src/stm32n6xx_hal.c **** 
ARM GAS  C:\Users\SMART\AppData\Local\Temp\ccwDMaLv.s 			page 15


 337:../../Drivers/STM32N6xx_HAL_Driver/Src/stm32n6xx_hal.c ****   if (uwTickFreq != Freq)
 416              		.loc 1 337 3 view .LVU93
 417              		.loc 1 337 18 is_stmt 0 view .LVU94
 418 0002 084B     		ldr	r3, .L39
 419 0004 1C78     		ldrb	r4, [r3]	@ zero_extendqisi2
 420              		.loc 1 337 6 view .LVU95
 421 0006 8442     		cmp	r4, r0
 422 0008 01D1     		bne	.L38
 332:../../Drivers/STM32N6xx_HAL_Driver/Src/stm32n6xx_hal.c ****   HAL_TickFreqTypeDef prevTickFreq;
 423              		.loc 1 332 21 view .LVU96
 424 000a 0020     		movs	r0, #0
 425              	.LVL14:
 426              	.L35:
 338:../../Drivers/STM32N6xx_HAL_Driver/Src/stm32n6xx_hal.c ****   {
 339:../../Drivers/STM32N6xx_HAL_Driver/Src/stm32n6xx_hal.c ****     /* Back up uwTickFreq frequency */
 340:../../Drivers/STM32N6xx_HAL_Driver/Src/stm32n6xx_hal.c ****     prevTickFreq = uwTickFreq;
 341:../../Drivers/STM32N6xx_HAL_Driver/Src/stm32n6xx_hal.c **** 
 342:../../Drivers/STM32N6xx_HAL_Driver/Src/stm32n6xx_hal.c ****     /* Update uwTickFreq global variable used by HAL_InitTick() */
 343:../../Drivers/STM32N6xx_HAL_Driver/Src/stm32n6xx_hal.c ****     uwTickFreq = Freq;
 344:../../Drivers/STM32N6xx_HAL_Driver/Src/stm32n6xx_hal.c **** 
 345:../../Drivers/STM32N6xx_HAL_Driver/Src/stm32n6xx_hal.c ****     /* Apply the new tick Freq  */
 346:../../Drivers/STM32N6xx_HAL_Driver/Src/stm32n6xx_hal.c ****     status = HAL_InitTick(uwTickPrio);
 347:../../Drivers/STM32N6xx_HAL_Driver/Src/stm32n6xx_hal.c ****     if (status != HAL_OK)
 348:../../Drivers/STM32N6xx_HAL_Driver/Src/stm32n6xx_hal.c ****     {
 349:../../Drivers/STM32N6xx_HAL_Driver/Src/stm32n6xx_hal.c ****       /* Restore previous tick frequency */
 350:../../Drivers/STM32N6xx_HAL_Driver/Src/stm32n6xx_hal.c ****       uwTickFreq = prevTickFreq;
 351:../../Drivers/STM32N6xx_HAL_Driver/Src/stm32n6xx_hal.c ****     }
 352:../../Drivers/STM32N6xx_HAL_Driver/Src/stm32n6xx_hal.c ****   }
 353:../../Drivers/STM32N6xx_HAL_Driver/Src/stm32n6xx_hal.c **** 
 354:../../Drivers/STM32N6xx_HAL_Driver/Src/stm32n6xx_hal.c ****   return status;
 427              		.loc 1 354 3 is_stmt 1 view .LVU97
 355:../../Drivers/STM32N6xx_HAL_Driver/Src/stm32n6xx_hal.c **** }
 428              		.loc 1 355 1 is_stmt 0 view .LVU98
 429 000c 10BD     		pop	{r4, pc}
 430              	.LVL15:
 431              	.L38:
 340:../../Drivers/STM32N6xx_HAL_Driver/Src/stm32n6xx_hal.c **** 
 432              		.loc 1 340 5 is_stmt 1 view .LVU99
 343:../../Drivers/STM32N6xx_HAL_Driver/Src/stm32n6xx_hal.c **** 
 433              		.loc 1 343 5 view .LVU100
 343:../../Drivers/STM32N6xx_HAL_Driver/Src/stm32n6xx_hal.c **** 
 434              		.loc 1 343 16 is_stmt 0 view .LVU101
 435 000e 1870     		strb	r0, [r3]
 346:../../Drivers/STM32N6xx_HAL_Driver/Src/stm32n6xx_hal.c ****     if (status != HAL_OK)
 436              		.loc 1 346 5 is_stmt 1 view .LVU102
 346:../../Drivers/STM32N6xx_HAL_Driver/Src/stm32n6xx_hal.c ****     if (status != HAL_OK)
 437              		.loc 1 346 14 is_stmt 0 view .LVU103
 438 0010 054B     		ldr	r3, .L39+4
 439 0012 1868     		ldr	r0, [r3]
 440              	.LVL16:
 346:../../Drivers/STM32N6xx_HAL_Driver/Src/stm32n6xx_hal.c ****     if (status != HAL_OK)
 441              		.loc 1 346 14 view .LVU104
 442 0014 FFF7FEFF 		bl	HAL_InitTick
 443              	.LVL17:
 347:../../Drivers/STM32N6xx_HAL_Driver/Src/stm32n6xx_hal.c ****     {
 444              		.loc 1 347 5 is_stmt 1 view .LVU105
 347:../../Drivers/STM32N6xx_HAL_Driver/Src/stm32n6xx_hal.c ****     {
ARM GAS  C:\Users\SMART\AppData\Local\Temp\ccwDMaLv.s 			page 16


 445              		.loc 1 347 8 is_stmt 0 view .LVU106
 446 0018 0028     		cmp	r0, #0
 447 001a F7D0     		beq	.L35
 350:../../Drivers/STM32N6xx_HAL_Driver/Src/stm32n6xx_hal.c ****     }
 448              		.loc 1 350 7 is_stmt 1 view .LVU107
 350:../../Drivers/STM32N6xx_HAL_Driver/Src/stm32n6xx_hal.c ****     }
 449              		.loc 1 350 18 is_stmt 0 view .LVU108
 450 001c 014B     		ldr	r3, .L39
 451 001e 1C70     		strb	r4, [r3]
 452 0020 F4E7     		b	.L35
 453              	.L40:
 454 0022 00BF     		.align	2
 455              	.L39:
 456 0024 00000000 		.word	uwTickFreq
 457 0028 00000000 		.word	uwTickPrio
 458              		.cfi_endproc
 459              	.LFE870:
 461              		.section	.text.HAL_GetTickFreq,"ax",%progbits
 462              		.align	1
 463              		.global	HAL_GetTickFreq
 464              		.syntax unified
 465              		.thumb
 466              		.thumb_func
 468              	HAL_GetTickFreq:
 469              	.LFB871:
 356:../../Drivers/STM32N6xx_HAL_Driver/Src/stm32n6xx_hal.c **** 
 357:../../Drivers/STM32N6xx_HAL_Driver/Src/stm32n6xx_hal.c **** /**
 358:../../Drivers/STM32N6xx_HAL_Driver/Src/stm32n6xx_hal.c ****   * @brief Return tick frequency.
 359:../../Drivers/STM32N6xx_HAL_Driver/Src/stm32n6xx_hal.c ****   * @retval Tick frequency.
 360:../../Drivers/STM32N6xx_HAL_Driver/Src/stm32n6xx_hal.c ****   *         Value of @ref HAL_TickFreqTypeDef.
 361:../../Drivers/STM32N6xx_HAL_Driver/Src/stm32n6xx_hal.c ****   */
 362:../../Drivers/STM32N6xx_HAL_Driver/Src/stm32n6xx_hal.c **** HAL_TickFreqTypeDef HAL_GetTickFreq(void)
 363:../../Drivers/STM32N6xx_HAL_Driver/Src/stm32n6xx_hal.c **** {
 470              		.loc 1 363 1 is_stmt 1 view -0
 471              		.cfi_startproc
 472              		@ args = 0, pretend = 0, frame = 0
 473              		@ frame_needed = 0, uses_anonymous_args = 0
 474              		@ link register save eliminated.
 364:../../Drivers/STM32N6xx_HAL_Driver/Src/stm32n6xx_hal.c ****   return uwTickFreq;
 475              		.loc 1 364 3 view .LVU110
 365:../../Drivers/STM32N6xx_HAL_Driver/Src/stm32n6xx_hal.c **** }
 476              		.loc 1 365 1 is_stmt 0 view .LVU111
 477 0000 014B     		ldr	r3, .L42
 478 0002 1878     		ldrb	r0, [r3]	@ zero_extendqisi2
 479 0004 7047     		bx	lr
 480              	.L43:
 481 0006 00BF     		.align	2
 482              	.L42:
 483 0008 00000000 		.word	uwTickFreq
 484              		.cfi_endproc
 485              	.LFE871:
 487              		.section	.text.HAL_Delay,"ax",%progbits
 488              		.align	1
 489              		.weak	HAL_Delay
 490              		.syntax unified
 491              		.thumb
 492              		.thumb_func
ARM GAS  C:\Users\SMART\AppData\Local\Temp\ccwDMaLv.s 			page 17


 494              	HAL_Delay:
 495              	.LVL18:
 496              	.LFB872:
 366:../../Drivers/STM32N6xx_HAL_Driver/Src/stm32n6xx_hal.c **** 
 367:../../Drivers/STM32N6xx_HAL_Driver/Src/stm32n6xx_hal.c **** /**
 368:../../Drivers/STM32N6xx_HAL_Driver/Src/stm32n6xx_hal.c ****   * @brief This function provides minimum delay (in milliseconds) based
 369:../../Drivers/STM32N6xx_HAL_Driver/Src/stm32n6xx_hal.c ****   *        on variable incremented.
 370:../../Drivers/STM32N6xx_HAL_Driver/Src/stm32n6xx_hal.c ****   * @note In the default implementation , SysTick timer is the source of time base.
 371:../../Drivers/STM32N6xx_HAL_Driver/Src/stm32n6xx_hal.c ****   *       It is used to generate interrupts at regular time intervals where uwTick
 372:../../Drivers/STM32N6xx_HAL_Driver/Src/stm32n6xx_hal.c ****   *       is incremented.
 373:../../Drivers/STM32N6xx_HAL_Driver/Src/stm32n6xx_hal.c ****   * @note This function is declared as __weak to be overwritten in case of other
 374:../../Drivers/STM32N6xx_HAL_Driver/Src/stm32n6xx_hal.c ****   *       implementations in user file.
 375:../../Drivers/STM32N6xx_HAL_Driver/Src/stm32n6xx_hal.c ****   * @param Delay Specifies the delay time length, in milliseconds.
 376:../../Drivers/STM32N6xx_HAL_Driver/Src/stm32n6xx_hal.c ****   * @retval None
 377:../../Drivers/STM32N6xx_HAL_Driver/Src/stm32n6xx_hal.c ****   */
 378:../../Drivers/STM32N6xx_HAL_Driver/Src/stm32n6xx_hal.c **** __weak void HAL_Delay(uint32_t Delay)
 379:../../Drivers/STM32N6xx_HAL_Driver/Src/stm32n6xx_hal.c **** {
 497              		.loc 1 379 1 is_stmt 1 view -0
 498              		.cfi_startproc
 499              		@ args = 0, pretend = 0, frame = 0
 500              		@ frame_needed = 0, uses_anonymous_args = 0
 501              		.loc 1 379 1 is_stmt 0 view .LVU113
 502 0000 38B5     		push	{r3, r4, r5, lr}
 503              	.LCFI4:
 504              		.cfi_def_cfa_offset 16
 505              		.cfi_offset 3, -16
 506              		.cfi_offset 4, -12
 507              		.cfi_offset 5, -8
 508              		.cfi_offset 14, -4
 509 0002 0446     		mov	r4, r0
 380:../../Drivers/STM32N6xx_HAL_Driver/Src/stm32n6xx_hal.c ****   uint32_t tickstart = HAL_GetTick();
 510              		.loc 1 380 3 is_stmt 1 view .LVU114
 511              		.loc 1 380 24 is_stmt 0 view .LVU115
 512 0004 FFF7FEFF 		bl	HAL_GetTick
 513              	.LVL19:
 514              		.loc 1 380 24 view .LVU116
 515 0008 0546     		mov	r5, r0
 516              	.LVL20:
 381:../../Drivers/STM32N6xx_HAL_Driver/Src/stm32n6xx_hal.c ****   uint32_t wait = Delay;
 517              		.loc 1 381 3 is_stmt 1 view .LVU117
 382:../../Drivers/STM32N6xx_HAL_Driver/Src/stm32n6xx_hal.c **** 
 383:../../Drivers/STM32N6xx_HAL_Driver/Src/stm32n6xx_hal.c ****   /* Add a freq to guarantee minimum wait */
 384:../../Drivers/STM32N6xx_HAL_Driver/Src/stm32n6xx_hal.c ****   if (wait < HAL_MAX_DELAY)
 518              		.loc 1 384 3 view .LVU118
 519              		.loc 1 384 6 is_stmt 0 view .LVU119
 520 000a B4F1FF3F 		cmp	r4, #-1
 521 000e 02D0     		beq	.L46
 385:../../Drivers/STM32N6xx_HAL_Driver/Src/stm32n6xx_hal.c ****   {
 386:../../Drivers/STM32N6xx_HAL_Driver/Src/stm32n6xx_hal.c ****     wait += (uint32_t)(uwTickFreq);
 522              		.loc 1 386 5 is_stmt 1 view .LVU120
 523              		.loc 1 386 13 is_stmt 0 view .LVU121
 524 0010 044B     		ldr	r3, .L48
 525 0012 1B78     		ldrb	r3, [r3]	@ zero_extendqisi2
 526              		.loc 1 386 10 view .LVU122
 527 0014 1C44     		add	r4, r4, r3
 528              	.LVL21:
 529              	.L46:
ARM GAS  C:\Users\SMART\AppData\Local\Temp\ccwDMaLv.s 			page 18


 387:../../Drivers/STM32N6xx_HAL_Driver/Src/stm32n6xx_hal.c ****   }
 388:../../Drivers/STM32N6xx_HAL_Driver/Src/stm32n6xx_hal.c **** 
 389:../../Drivers/STM32N6xx_HAL_Driver/Src/stm32n6xx_hal.c ****   while ((HAL_GetTick() - tickstart) < wait)
 390:../../Drivers/STM32N6xx_HAL_Driver/Src/stm32n6xx_hal.c ****   {
 391:../../Drivers/STM32N6xx_HAL_Driver/Src/stm32n6xx_hal.c ****   }
 530              		.loc 1 391 3 is_stmt 1 view .LVU123
 389:../../Drivers/STM32N6xx_HAL_Driver/Src/stm32n6xx_hal.c ****   {
 531              		.loc 1 389 38 discriminator 1 view .LVU124
 389:../../Drivers/STM32N6xx_HAL_Driver/Src/stm32n6xx_hal.c ****   {
 532              		.loc 1 389 11 is_stmt 0 discriminator 1 view .LVU125
 533 0016 FFF7FEFF 		bl	HAL_GetTick
 534              	.LVL22:
 389:../../Drivers/STM32N6xx_HAL_Driver/Src/stm32n6xx_hal.c ****   {
 535              		.loc 1 389 25 discriminator 1 view .LVU126
 536 001a 401B     		subs	r0, r0, r5
 389:../../Drivers/STM32N6xx_HAL_Driver/Src/stm32n6xx_hal.c ****   {
 537              		.loc 1 389 38 discriminator 1 view .LVU127
 538 001c A042     		cmp	r0, r4
 539 001e FAD3     		bcc	.L46
 392:../../Drivers/STM32N6xx_HAL_Driver/Src/stm32n6xx_hal.c **** }
 540              		.loc 1 392 1 view .LVU128
 541 0020 38BD     		pop	{r3, r4, r5, pc}
 542              	.LVL23:
 543              	.L49:
 544              		.loc 1 392 1 view .LVU129
 545 0022 00BF     		.align	2
 546              	.L48:
 547 0024 00000000 		.word	uwTickFreq
 548              		.cfi_endproc
 549              	.LFE872:
 551              		.section	.text.HAL_SuspendTick,"ax",%progbits
 552              		.align	1
 553              		.weak	HAL_SuspendTick
 554              		.syntax unified
 555              		.thumb
 556              		.thumb_func
 558              	HAL_SuspendTick:
 559              	.LFB873:
 393:../../Drivers/STM32N6xx_HAL_Driver/Src/stm32n6xx_hal.c **** 
 394:../../Drivers/STM32N6xx_HAL_Driver/Src/stm32n6xx_hal.c **** /**
 395:../../Drivers/STM32N6xx_HAL_Driver/Src/stm32n6xx_hal.c ****   * @brief Suspend Tick increment.
 396:../../Drivers/STM32N6xx_HAL_Driver/Src/stm32n6xx_hal.c ****   * @note In the default implementation , SysTick timer is the source of time base. It is
 397:../../Drivers/STM32N6xx_HAL_Driver/Src/stm32n6xx_hal.c ****   *       used to generate interrupts at regular time intervals. Once HAL_SuspendTick()
 398:../../Drivers/STM32N6xx_HAL_Driver/Src/stm32n6xx_hal.c ****   *       is called, the SysTick interrupt will be disabled and so Tick increment
 399:../../Drivers/STM32N6xx_HAL_Driver/Src/stm32n6xx_hal.c ****   *       is suspended.
 400:../../Drivers/STM32N6xx_HAL_Driver/Src/stm32n6xx_hal.c ****   * @note This function is declared as __weak to be overwritten in case of other
 401:../../Drivers/STM32N6xx_HAL_Driver/Src/stm32n6xx_hal.c ****   *       implementations in user file.
 402:../../Drivers/STM32N6xx_HAL_Driver/Src/stm32n6xx_hal.c ****   * @retval None
 403:../../Drivers/STM32N6xx_HAL_Driver/Src/stm32n6xx_hal.c ****   */
 404:../../Drivers/STM32N6xx_HAL_Driver/Src/stm32n6xx_hal.c **** __weak void HAL_SuspendTick(void)
 405:../../Drivers/STM32N6xx_HAL_Driver/Src/stm32n6xx_hal.c **** {
 560              		.loc 1 405 1 is_stmt 1 view -0
 561              		.cfi_startproc
 562              		@ args = 0, pretend = 0, frame = 0
 563              		@ frame_needed = 0, uses_anonymous_args = 0
 564              		@ link register save eliminated.
 406:../../Drivers/STM32N6xx_HAL_Driver/Src/stm32n6xx_hal.c ****   /* Disable SysTick Interrupt */
ARM GAS  C:\Users\SMART\AppData\Local\Temp\ccwDMaLv.s 			page 19


 407:../../Drivers/STM32N6xx_HAL_Driver/Src/stm32n6xx_hal.c ****   SysTick->CTRL &= ~SysTick_CTRL_TICKINT_Msk;
 565              		.loc 1 407 3 view .LVU131
 566              		.loc 1 407 10 is_stmt 0 view .LVU132
 567 0000 4FF0E022 		mov	r2, #-536813568
 568 0004 1369     		ldr	r3, [r2, #16]
 569              		.loc 1 407 17 view .LVU133
 570 0006 23F00203 		bic	r3, r3, #2
 571 000a 1361     		str	r3, [r2, #16]
 408:../../Drivers/STM32N6xx_HAL_Driver/Src/stm32n6xx_hal.c **** }
 572              		.loc 1 408 1 view .LVU134
 573 000c 7047     		bx	lr
 574              		.cfi_endproc
 575              	.LFE873:
 577              		.section	.text.HAL_ResumeTick,"ax",%progbits
 578              		.align	1
 579              		.weak	HAL_ResumeTick
 580              		.syntax unified
 581              		.thumb
 582              		.thumb_func
 584              	HAL_ResumeTick:
 585              	.LFB874:
 409:../../Drivers/STM32N6xx_HAL_Driver/Src/stm32n6xx_hal.c **** 
 410:../../Drivers/STM32N6xx_HAL_Driver/Src/stm32n6xx_hal.c **** /**
 411:../../Drivers/STM32N6xx_HAL_Driver/Src/stm32n6xx_hal.c ****   * @brief Resume Tick increment.
 412:../../Drivers/STM32N6xx_HAL_Driver/Src/stm32n6xx_hal.c ****   * @note In the default implementation , SysTick timer is the source of time base. It is
 413:../../Drivers/STM32N6xx_HAL_Driver/Src/stm32n6xx_hal.c ****   *       used to generate interrupts at regular time intervals. Once HAL_ResumeTick()
 414:../../Drivers/STM32N6xx_HAL_Driver/Src/stm32n6xx_hal.c ****   *       is called, the SysTick interrupt will be enabled and so Tick increment
 415:../../Drivers/STM32N6xx_HAL_Driver/Src/stm32n6xx_hal.c ****   *       is resumed.
 416:../../Drivers/STM32N6xx_HAL_Driver/Src/stm32n6xx_hal.c ****   * @note This function is declared as __weak to be overwritten in case of other
 417:../../Drivers/STM32N6xx_HAL_Driver/Src/stm32n6xx_hal.c ****   *       implementations in user file.
 418:../../Drivers/STM32N6xx_HAL_Driver/Src/stm32n6xx_hal.c ****   * @retval None
 419:../../Drivers/STM32N6xx_HAL_Driver/Src/stm32n6xx_hal.c ****   */
 420:../../Drivers/STM32N6xx_HAL_Driver/Src/stm32n6xx_hal.c **** __weak void HAL_ResumeTick(void)
 421:../../Drivers/STM32N6xx_HAL_Driver/Src/stm32n6xx_hal.c **** {
 586              		.loc 1 421 1 is_stmt 1 view -0
 587              		.cfi_startproc
 588              		@ args = 0, pretend = 0, frame = 0
 589              		@ frame_needed = 0, uses_anonymous_args = 0
 590              		@ link register save eliminated.
 422:../../Drivers/STM32N6xx_HAL_Driver/Src/stm32n6xx_hal.c ****   /* Enable SysTick Interrupt */
 423:../../Drivers/STM32N6xx_HAL_Driver/Src/stm32n6xx_hal.c ****   SysTick->CTRL  |= SysTick_CTRL_TICKINT_Msk;
 591              		.loc 1 423 3 view .LVU136
 592              		.loc 1 423 10 is_stmt 0 view .LVU137
 593 0000 4FF0E022 		mov	r2, #-536813568
 594 0004 1369     		ldr	r3, [r2, #16]
 595              		.loc 1 423 18 view .LVU138
 596 0006 43F00203 		orr	r3, r3, #2
 597 000a 1361     		str	r3, [r2, #16]
 424:../../Drivers/STM32N6xx_HAL_Driver/Src/stm32n6xx_hal.c **** }
 598              		.loc 1 424 1 view .LVU139
 599 000c 7047     		bx	lr
 600              		.cfi_endproc
 601              	.LFE874:
 603              		.section	.text.HAL_GetHalVersion,"ax",%progbits
 604              		.align	1
 605              		.global	HAL_GetHalVersion
 606              		.syntax unified
ARM GAS  C:\Users\SMART\AppData\Local\Temp\ccwDMaLv.s 			page 20


 607              		.thumb
 608              		.thumb_func
 610              	HAL_GetHalVersion:
 611              	.LFB875:
 425:../../Drivers/STM32N6xx_HAL_Driver/Src/stm32n6xx_hal.c **** 
 426:../../Drivers/STM32N6xx_HAL_Driver/Src/stm32n6xx_hal.c **** /**
 427:../../Drivers/STM32N6xx_HAL_Driver/Src/stm32n6xx_hal.c ****   * @brief  Returns the HAL revision
 428:../../Drivers/STM32N6xx_HAL_Driver/Src/stm32n6xx_hal.c ****   * @retval version : 0xXYZR (8bits for each decimal, R for RC)
 429:../../Drivers/STM32N6xx_HAL_Driver/Src/stm32n6xx_hal.c ****   */
 430:../../Drivers/STM32N6xx_HAL_Driver/Src/stm32n6xx_hal.c **** uint32_t HAL_GetHalVersion(void)
 431:../../Drivers/STM32N6xx_HAL_Driver/Src/stm32n6xx_hal.c **** {
 612              		.loc 1 431 1 is_stmt 1 view -0
 613              		.cfi_startproc
 614              		@ args = 0, pretend = 0, frame = 0
 615              		@ frame_needed = 0, uses_anonymous_args = 0
 616              		@ link register save eliminated.
 432:../../Drivers/STM32N6xx_HAL_Driver/Src/stm32n6xx_hal.c ****   return __STM32N6xx_HAL_VERSION;
 617              		.loc 1 432 3 view .LVU141
 433:../../Drivers/STM32N6xx_HAL_Driver/Src/stm32n6xx_hal.c **** }
 618              		.loc 1 433 1 is_stmt 0 view .LVU142
 619 0000 0048     		ldr	r0, .L53
 620 0002 7047     		bx	lr
 621              	.L54:
 622              		.align	2
 623              	.L53:
 624 0004 00000301 		.word	16973824
 625              		.cfi_endproc
 626              	.LFE875:
 628              		.section	.text.HAL_GetREVID,"ax",%progbits
 629              		.align	1
 630              		.global	HAL_GetREVID
 631              		.syntax unified
 632              		.thumb
 633              		.thumb_func
 635              	HAL_GetREVID:
 636              	.LFB876:
 434:../../Drivers/STM32N6xx_HAL_Driver/Src/stm32n6xx_hal.c **** 
 435:../../Drivers/STM32N6xx_HAL_Driver/Src/stm32n6xx_hal.c **** /**
 436:../../Drivers/STM32N6xx_HAL_Driver/Src/stm32n6xx_hal.c ****   * @brief  Returns the device revision identifier
 437:../../Drivers/STM32N6xx_HAL_Driver/Src/stm32n6xx_hal.c ****   * @note Returned Revision ID can be
 438:../../Drivers/STM32N6xx_HAL_Driver/Src/stm32n6xx_hal.c ****   *       0x00000100 for Cut1.0
 439:../../Drivers/STM32N6xx_HAL_Driver/Src/stm32n6xx_hal.c ****   *       0x00000101 for Cut1.1
 440:../../Drivers/STM32N6xx_HAL_Driver/Src/stm32n6xx_hal.c ****   *       0x00000200 for Cut2.0
 441:../../Drivers/STM32N6xx_HAL_Driver/Src/stm32n6xx_hal.c ****   * @retval Device revision identifier
 442:../../Drivers/STM32N6xx_HAL_Driver/Src/stm32n6xx_hal.c ****   */
 443:../../Drivers/STM32N6xx_HAL_Driver/Src/stm32n6xx_hal.c **** uint32_t HAL_GetREVID(void)
 444:../../Drivers/STM32N6xx_HAL_Driver/Src/stm32n6xx_hal.c **** {
 637              		.loc 1 444 1 is_stmt 1 view -0
 638              		.cfi_startproc
 639              		@ args = 0, pretend = 0, frame = 0
 640              		@ frame_needed = 0, uses_anonymous_args = 0
 641              		@ link register save eliminated.
 445:../../Drivers/STM32N6xx_HAL_Driver/Src/stm32n6xx_hal.c ****   return *(uint32_t *)(REVID_BASE);
 642              		.loc 1 445 3 view .LVU144
 446:../../Drivers/STM32N6xx_HAL_Driver/Src/stm32n6xx_hal.c **** }
 643              		.loc 1 446 1 is_stmt 0 view .LVU145
 644 0000 014B     		ldr	r3, .L56
ARM GAS  C:\Users\SMART\AppData\Local\Temp\ccwDMaLv.s 			page 21


 645 0002 5868     		ldr	r0, [r3, #4]
 646 0004 7047     		bx	lr
 647              	.L57:
 648 0006 00BF     		.align	2
 649              	.L56:
 650 0008 00100018 		.word	402657280
 651              		.cfi_endproc
 652              	.LFE876:
 654              		.section	.text.HAL_GetDEVID,"ax",%progbits
 655              		.align	1
 656              		.global	HAL_GetDEVID
 657              		.syntax unified
 658              		.thumb
 659              		.thumb_func
 661              	HAL_GetDEVID:
 662              	.LFB877:
 447:../../Drivers/STM32N6xx_HAL_Driver/Src/stm32n6xx_hal.c **** 
 448:../../Drivers/STM32N6xx_HAL_Driver/Src/stm32n6xx_hal.c **** #if defined(CPU_IN_SECURE_STATE)
 449:../../Drivers/STM32N6xx_HAL_Driver/Src/stm32n6xx_hal.c **** /**
 450:../../Drivers/STM32N6xx_HAL_Driver/Src/stm32n6xx_hal.c ****   * @brief  Returns the device identifier
 451:../../Drivers/STM32N6xx_HAL_Driver/Src/stm32n6xx_hal.c ****   * @note This function can only be used if the HAL BSEC module is enabled in the hal configuration
 452:../../Drivers/STM32N6xx_HAL_Driver/Src/stm32n6xx_hal.c ****   *       The BSEC clock must be enabled before calling this function
 453:../../Drivers/STM32N6xx_HAL_Driver/Src/stm32n6xx_hal.c ****   *       Returned Device ID can be
 454:../../Drivers/STM32N6xx_HAL_Driver/Src/stm32n6xx_hal.c ****   *       0x00006200 for STM32N645xx
 455:../../Drivers/STM32N6xx_HAL_Driver/Src/stm32n6xx_hal.c ****   *       0x00006000 for STM32N655xx
 456:../../Drivers/STM32N6xx_HAL_Driver/Src/stm32n6xx_hal.c ****   *       0x00002200 for STM32N647xx
 457:../../Drivers/STM32N6xx_HAL_Driver/Src/stm32n6xx_hal.c ****   *       0x00002000 for STM32N657xx
 458:../../Drivers/STM32N6xx_HAL_Driver/Src/stm32n6xx_hal.c ****   *       0xFFFFFFFF if an error occurs
 459:../../Drivers/STM32N6xx_HAL_Driver/Src/stm32n6xx_hal.c ****   * @retval Device identifier
 460:../../Drivers/STM32N6xx_HAL_Driver/Src/stm32n6xx_hal.c ****   */
 461:../../Drivers/STM32N6xx_HAL_Driver/Src/stm32n6xx_hal.c **** uint32_t HAL_GetDEVID(void)
 462:../../Drivers/STM32N6xx_HAL_Driver/Src/stm32n6xx_hal.c **** {
 663              		.loc 1 462 1 is_stmt 1 view -0
 664              		.cfi_startproc
 665              		@ args = 0, pretend = 0, frame = 0
 666              		@ frame_needed = 0, uses_anonymous_args = 0
 667              		@ link register save eliminated.
 463:../../Drivers/STM32N6xx_HAL_Driver/Src/stm32n6xx_hal.c **** #if defined(HAL_BSEC_MODULE_ENABLED)
 464:../../Drivers/STM32N6xx_HAL_Driver/Src/stm32n6xx_hal.c **** #define BSEC_FUSE_ADDRESS               9U
 465:../../Drivers/STM32N6xx_HAL_Driver/Src/stm32n6xx_hal.c ****   uint32_t data;
 466:../../Drivers/STM32N6xx_HAL_Driver/Src/stm32n6xx_hal.c ****   if(__HAL_RCC_BSEC_IS_CLK_ENABLED() == 0UL){
 467:../../Drivers/STM32N6xx_HAL_Driver/Src/stm32n6xx_hal.c ****     data = 0xFFFFFFFFU;
 468:../../Drivers/STM32N6xx_HAL_Driver/Src/stm32n6xx_hal.c ****   }
 469:../../Drivers/STM32N6xx_HAL_Driver/Src/stm32n6xx_hal.c ****   else
 470:../../Drivers/STM32N6xx_HAL_Driver/Src/stm32n6xx_hal.c ****   {
 471:../../Drivers/STM32N6xx_HAL_Driver/Src/stm32n6xx_hal.c ****     BSEC_HandleTypeDef sBsecHandler = {0};
 472:../../Drivers/STM32N6xx_HAL_Driver/Src/stm32n6xx_hal.c ****     sBsecHandler.Instance = BSEC;
 473:../../Drivers/STM32N6xx_HAL_Driver/Src/stm32n6xx_hal.c **** 
 474:../../Drivers/STM32N6xx_HAL_Driver/Src/stm32n6xx_hal.c ****     if(HAL_BSEC_OTP_Read(&sBsecHandler, BSEC_FUSE_ADDRESS, &data) != HAL_OK){
 475:../../Drivers/STM32N6xx_HAL_Driver/Src/stm32n6xx_hal.c ****       data = 0xFFFFFFFFU;
 476:../../Drivers/STM32N6xx_HAL_Driver/Src/stm32n6xx_hal.c ****     }
 477:../../Drivers/STM32N6xx_HAL_Driver/Src/stm32n6xx_hal.c ****   }
 478:../../Drivers/STM32N6xx_HAL_Driver/Src/stm32n6xx_hal.c ****   return data;
 479:../../Drivers/STM32N6xx_HAL_Driver/Src/stm32n6xx_hal.c **** #else
 480:../../Drivers/STM32N6xx_HAL_Driver/Src/stm32n6xx_hal.c ****   return 0xFFFFFFFFU;
 668              		.loc 1 480 3 view .LVU147
 481:../../Drivers/STM32N6xx_HAL_Driver/Src/stm32n6xx_hal.c **** #endif /* HAL_BSEC_MODULE_ENABLED */
ARM GAS  C:\Users\SMART\AppData\Local\Temp\ccwDMaLv.s 			page 22


 482:../../Drivers/STM32N6xx_HAL_Driver/Src/stm32n6xx_hal.c **** }
 669              		.loc 1 482 1 is_stmt 0 view .LVU148
 670 0000 4FF0FF30 		mov	r0, #-1
 671 0004 7047     		bx	lr
 672              		.cfi_endproc
 673              	.LFE877:
 675              		.section	.text.HAL_GetUIDw0,"ax",%progbits
 676              		.align	1
 677              		.global	HAL_GetUIDw0
 678              		.syntax unified
 679              		.thumb
 680              		.thumb_func
 682              	HAL_GetUIDw0:
 683              	.LFB878:
 483:../../Drivers/STM32N6xx_HAL_Driver/Src/stm32n6xx_hal.c **** #endif /* CPU_IN_SECURE_STATE */
 484:../../Drivers/STM32N6xx_HAL_Driver/Src/stm32n6xx_hal.c **** 
 485:../../Drivers/STM32N6xx_HAL_Driver/Src/stm32n6xx_hal.c **** /**
 486:../../Drivers/STM32N6xx_HAL_Driver/Src/stm32n6xx_hal.c ****   * @brief  Return the first word of the unique device identifier (UID based on 96 bits)
 487:../../Drivers/STM32N6xx_HAL_Driver/Src/stm32n6xx_hal.c ****   * @note   The application must ensures that SYSCFG clock is enabled.
 488:../../Drivers/STM32N6xx_HAL_Driver/Src/stm32n6xx_hal.c ****   * @retval Device identifier
 489:../../Drivers/STM32N6xx_HAL_Driver/Src/stm32n6xx_hal.c ****   */
 490:../../Drivers/STM32N6xx_HAL_Driver/Src/stm32n6xx_hal.c **** uint32_t HAL_GetUIDw0(void)
 491:../../Drivers/STM32N6xx_HAL_Driver/Src/stm32n6xx_hal.c **** {
 684              		.loc 1 491 1 is_stmt 1 view -0
 685              		.cfi_startproc
 686              		@ args = 0, pretend = 0, frame = 0
 687              		@ frame_needed = 0, uses_anonymous_args = 0
 688              		@ link register save eliminated.
 492:../../Drivers/STM32N6xx_HAL_Driver/Src/stm32n6xx_hal.c ****   return (READ_REG(*((uint32_t *)UID_BASE)));
 689              		.loc 1 492 3 view .LVU150
 493:../../Drivers/STM32N6xx_HAL_Driver/Src/stm32n6xx_hal.c **** }
 690              		.loc 1 493 1 is_stmt 0 view .LVU151
 691 0000 014B     		ldr	r3, .L60
 692 0002 5869     		ldr	r0, [r3, #20]
 693 0004 7047     		bx	lr
 694              	.L61:
 695 0006 00BF     		.align	2
 696              	.L60:
 697 0008 00900056 		.word	1442877440
 698              		.cfi_endproc
 699              	.LFE878:
 701              		.section	.text.HAL_GetUIDw1,"ax",%progbits
 702              		.align	1
 703              		.global	HAL_GetUIDw1
 704              		.syntax unified
 705              		.thumb
 706              		.thumb_func
 708              	HAL_GetUIDw1:
 709              	.LFB879:
 494:../../Drivers/STM32N6xx_HAL_Driver/Src/stm32n6xx_hal.c **** 
 495:../../Drivers/STM32N6xx_HAL_Driver/Src/stm32n6xx_hal.c **** /**
 496:../../Drivers/STM32N6xx_HAL_Driver/Src/stm32n6xx_hal.c ****   * @brief  Return the second word of the unique device identifier (UID based on 96 bits)
 497:../../Drivers/STM32N6xx_HAL_Driver/Src/stm32n6xx_hal.c ****   * @note   The application must ensures that SYSCFG clock is enabled.
 498:../../Drivers/STM32N6xx_HAL_Driver/Src/stm32n6xx_hal.c ****   * @retval Device identifier
 499:../../Drivers/STM32N6xx_HAL_Driver/Src/stm32n6xx_hal.c ****   */
 500:../../Drivers/STM32N6xx_HAL_Driver/Src/stm32n6xx_hal.c **** uint32_t HAL_GetUIDw1(void)
 501:../../Drivers/STM32N6xx_HAL_Driver/Src/stm32n6xx_hal.c **** {
ARM GAS  C:\Users\SMART\AppData\Local\Temp\ccwDMaLv.s 			page 23


 710              		.loc 1 501 1 is_stmt 1 view -0
 711              		.cfi_startproc
 712              		@ args = 0, pretend = 0, frame = 0
 713              		@ frame_needed = 0, uses_anonymous_args = 0
 714              		@ link register save eliminated.
 502:../../Drivers/STM32N6xx_HAL_Driver/Src/stm32n6xx_hal.c ****   return (READ_REG(*((uint32_t *)(UID_BASE + 4U))));
 715              		.loc 1 502 3 view .LVU153
 503:../../Drivers/STM32N6xx_HAL_Driver/Src/stm32n6xx_hal.c **** }
 716              		.loc 1 503 1 is_stmt 0 view .LVU154
 717 0000 014B     		ldr	r3, .L63
 718 0002 9869     		ldr	r0, [r3, #24]
 719 0004 7047     		bx	lr
 720              	.L64:
 721 0006 00BF     		.align	2
 722              	.L63:
 723 0008 00900056 		.word	1442877440
 724              		.cfi_endproc
 725              	.LFE879:
 727              		.section	.text.HAL_GetUIDw2,"ax",%progbits
 728              		.align	1
 729              		.global	HAL_GetUIDw2
 730              		.syntax unified
 731              		.thumb
 732              		.thumb_func
 734              	HAL_GetUIDw2:
 735              	.LFB880:
 504:../../Drivers/STM32N6xx_HAL_Driver/Src/stm32n6xx_hal.c **** 
 505:../../Drivers/STM32N6xx_HAL_Driver/Src/stm32n6xx_hal.c **** /**
 506:../../Drivers/STM32N6xx_HAL_Driver/Src/stm32n6xx_hal.c ****   * @brief  Return the third word of the unique device identifier (UID based on 96 bits)
 507:../../Drivers/STM32N6xx_HAL_Driver/Src/stm32n6xx_hal.c ****   * @note   The application must ensures that SYSCFG clock is enabled.
 508:../../Drivers/STM32N6xx_HAL_Driver/Src/stm32n6xx_hal.c ****   * @retval Device identifier
 509:../../Drivers/STM32N6xx_HAL_Driver/Src/stm32n6xx_hal.c ****   */
 510:../../Drivers/STM32N6xx_HAL_Driver/Src/stm32n6xx_hal.c **** uint32_t HAL_GetUIDw2(void)
 511:../../Drivers/STM32N6xx_HAL_Driver/Src/stm32n6xx_hal.c **** {
 736              		.loc 1 511 1 is_stmt 1 view -0
 737              		.cfi_startproc
 738              		@ args = 0, pretend = 0, frame = 0
 739              		@ frame_needed = 0, uses_anonymous_args = 0
 740              		@ link register save eliminated.
 512:../../Drivers/STM32N6xx_HAL_Driver/Src/stm32n6xx_hal.c ****   return (READ_REG(*((uint32_t *)(UID_BASE + 8U))));
 741              		.loc 1 512 3 view .LVU156
 513:../../Drivers/STM32N6xx_HAL_Driver/Src/stm32n6xx_hal.c **** }
 742              		.loc 1 513 1 is_stmt 0 view .LVU157
 743 0000 014B     		ldr	r3, .L66
 744 0002 D869     		ldr	r0, [r3, #28]
 745 0004 7047     		bx	lr
 746              	.L67:
 747 0006 00BF     		.align	2
 748              	.L66:
 749 0008 00900056 		.word	1442877440
 750              		.cfi_endproc
 751              	.LFE880:
 753              		.section	.text.HAL_DBGMCU_EnableDBGSleepMode,"ax",%progbits
 754              		.align	1
 755              		.global	HAL_DBGMCU_EnableDBGSleepMode
 756              		.syntax unified
 757              		.thumb
ARM GAS  C:\Users\SMART\AppData\Local\Temp\ccwDMaLv.s 			page 24


 758              		.thumb_func
 760              	HAL_DBGMCU_EnableDBGSleepMode:
 761              	.LFB881:
 514:../../Drivers/STM32N6xx_HAL_Driver/Src/stm32n6xx_hal.c **** 
 515:../../Drivers/STM32N6xx_HAL_Driver/Src/stm32n6xx_hal.c **** /**
 516:../../Drivers/STM32N6xx_HAL_Driver/Src/stm32n6xx_hal.c ****   * @}
 517:../../Drivers/STM32N6xx_HAL_Driver/Src/stm32n6xx_hal.c ****   */
 518:../../Drivers/STM32N6xx_HAL_Driver/Src/stm32n6xx_hal.c **** 
 519:../../Drivers/STM32N6xx_HAL_Driver/Src/stm32n6xx_hal.c **** /** @defgroup HAL_Exported_Functions_Group3 HAL Debug functions
 520:../../Drivers/STM32N6xx_HAL_Driver/Src/stm32n6xx_hal.c ****   *  @brief    HAL Debug functions
 521:../../Drivers/STM32N6xx_HAL_Driver/Src/stm32n6xx_hal.c ****   *
 522:../../Drivers/STM32N6xx_HAL_Driver/Src/stm32n6xx_hal.c **** @verbatim
 523:../../Drivers/STM32N6xx_HAL_Driver/Src/stm32n6xx_hal.c ****  ===============================================================================
 524:../../Drivers/STM32N6xx_HAL_Driver/Src/stm32n6xx_hal.c ****                       ##### HAL Debug functions #####
 525:../../Drivers/STM32N6xx_HAL_Driver/Src/stm32n6xx_hal.c ****  ===============================================================================
 526:../../Drivers/STM32N6xx_HAL_Driver/Src/stm32n6xx_hal.c ****     [..]  This section provides functions allowing to:
 527:../../Drivers/STM32N6xx_HAL_Driver/Src/stm32n6xx_hal.c ****       (+) Enable/Disable Debug module during Sleep mode
 528:../../Drivers/STM32N6xx_HAL_Driver/Src/stm32n6xx_hal.c ****       (+) Enable/Disable Debug module during Stop modes
 529:../../Drivers/STM32N6xx_HAL_Driver/Src/stm32n6xx_hal.c ****       (+) Enable/Disable Debug module during Stanby mode
 530:../../Drivers/STM32N6xx_HAL_Driver/Src/stm32n6xx_hal.c **** 
 531:../../Drivers/STM32N6xx_HAL_Driver/Src/stm32n6xx_hal.c **** @endverbatim
 532:../../Drivers/STM32N6xx_HAL_Driver/Src/stm32n6xx_hal.c ****   * @{
 533:../../Drivers/STM32N6xx_HAL_Driver/Src/stm32n6xx_hal.c ****   */
 534:../../Drivers/STM32N6xx_HAL_Driver/Src/stm32n6xx_hal.c **** 
 535:../../Drivers/STM32N6xx_HAL_Driver/Src/stm32n6xx_hal.c **** /**
 536:../../Drivers/STM32N6xx_HAL_Driver/Src/stm32n6xx_hal.c ****   * @brief  Enable the Debug Module during Sleep mode.
 537:../../Drivers/STM32N6xx_HAL_Driver/Src/stm32n6xx_hal.c ****   * @retval None
 538:../../Drivers/STM32N6xx_HAL_Driver/Src/stm32n6xx_hal.c ****   */
 539:../../Drivers/STM32N6xx_HAL_Driver/Src/stm32n6xx_hal.c **** void HAL_DBGMCU_EnableDBGSleepMode(void)
 540:../../Drivers/STM32N6xx_HAL_Driver/Src/stm32n6xx_hal.c **** {
 762              		.loc 1 540 1 is_stmt 1 view -0
 763              		.cfi_startproc
 764              		@ args = 0, pretend = 0, frame = 0
 765              		@ frame_needed = 0, uses_anonymous_args = 0
 766              		@ link register save eliminated.
 541:../../Drivers/STM32N6xx_HAL_Driver/Src/stm32n6xx_hal.c ****   SET_BIT(DBGMCU->CR, DBGMCU_CR_DBG_SLEEP);
 767              		.loc 1 541 3 view .LVU159
 768 0000 024A     		ldr	r2, .L69
 769 0002 5368     		ldr	r3, [r2, #4]
 770 0004 43F00103 		orr	r3, r3, #1
 771 0008 5360     		str	r3, [r2, #4]
 542:../../Drivers/STM32N6xx_HAL_Driver/Src/stm32n6xx_hal.c **** }
 772              		.loc 1 542 1 is_stmt 0 view .LVU160
 773 000a 7047     		bx	lr
 774              	.L70:
 775              		.align	2
 776              	.L69:
 777 000c 00100054 		.word	1409290240
 778              		.cfi_endproc
 779              	.LFE881:
 781              		.section	.text.HAL_DBGMCU_DisableDBGSleepMode,"ax",%progbits
 782              		.align	1
 783              		.global	HAL_DBGMCU_DisableDBGSleepMode
 784              		.syntax unified
 785              		.thumb
 786              		.thumb_func
 788              	HAL_DBGMCU_DisableDBGSleepMode:
ARM GAS  C:\Users\SMART\AppData\Local\Temp\ccwDMaLv.s 			page 25


 789              	.LFB882:
 543:../../Drivers/STM32N6xx_HAL_Driver/Src/stm32n6xx_hal.c **** 
 544:../../Drivers/STM32N6xx_HAL_Driver/Src/stm32n6xx_hal.c **** /**
 545:../../Drivers/STM32N6xx_HAL_Driver/Src/stm32n6xx_hal.c ****   * @brief  Disable the Debug Module during Sleep mode.
 546:../../Drivers/STM32N6xx_HAL_Driver/Src/stm32n6xx_hal.c ****   * @retval None
 547:../../Drivers/STM32N6xx_HAL_Driver/Src/stm32n6xx_hal.c ****   */
 548:../../Drivers/STM32N6xx_HAL_Driver/Src/stm32n6xx_hal.c **** void HAL_DBGMCU_DisableDBGSleepMode(void)
 549:../../Drivers/STM32N6xx_HAL_Driver/Src/stm32n6xx_hal.c **** {
 790              		.loc 1 549 1 is_stmt 1 view -0
 791              		.cfi_startproc
 792              		@ args = 0, pretend = 0, frame = 0
 793              		@ frame_needed = 0, uses_anonymous_args = 0
 794              		@ link register save eliminated.
 550:../../Drivers/STM32N6xx_HAL_Driver/Src/stm32n6xx_hal.c ****   CLEAR_BIT(DBGMCU->CR, DBGMCU_CR_DBG_SLEEP);
 795              		.loc 1 550 3 view .LVU162
 796 0000 024A     		ldr	r2, .L72
 797 0002 5368     		ldr	r3, [r2, #4]
 798 0004 23F00103 		bic	r3, r3, #1
 799 0008 5360     		str	r3, [r2, #4]
 551:../../Drivers/STM32N6xx_HAL_Driver/Src/stm32n6xx_hal.c **** }
 800              		.loc 1 551 1 is_stmt 0 view .LVU163
 801 000a 7047     		bx	lr
 802              	.L73:
 803              		.align	2
 804              	.L72:
 805 000c 00100054 		.word	1409290240
 806              		.cfi_endproc
 807              	.LFE882:
 809              		.section	.text.HAL_DBGMCU_EnableDBGStopMode,"ax",%progbits
 810              		.align	1
 811              		.global	HAL_DBGMCU_EnableDBGStopMode
 812              		.syntax unified
 813              		.thumb
 814              		.thumb_func
 816              	HAL_DBGMCU_EnableDBGStopMode:
 817              	.LFB883:
 552:../../Drivers/STM32N6xx_HAL_Driver/Src/stm32n6xx_hal.c **** 
 553:../../Drivers/STM32N6xx_HAL_Driver/Src/stm32n6xx_hal.c **** /**
 554:../../Drivers/STM32N6xx_HAL_Driver/Src/stm32n6xx_hal.c ****   * @brief  Enable the Debug Module during Stop mode.
 555:../../Drivers/STM32N6xx_HAL_Driver/Src/stm32n6xx_hal.c ****   * @retval None
 556:../../Drivers/STM32N6xx_HAL_Driver/Src/stm32n6xx_hal.c ****   */
 557:../../Drivers/STM32N6xx_HAL_Driver/Src/stm32n6xx_hal.c **** void HAL_DBGMCU_EnableDBGStopMode(void)
 558:../../Drivers/STM32N6xx_HAL_Driver/Src/stm32n6xx_hal.c **** {
 818              		.loc 1 558 1 is_stmt 1 view -0
 819              		.cfi_startproc
 820              		@ args = 0, pretend = 0, frame = 0
 821              		@ frame_needed = 0, uses_anonymous_args = 0
 822              		@ link register save eliminated.
 559:../../Drivers/STM32N6xx_HAL_Driver/Src/stm32n6xx_hal.c ****   SET_BIT(DBGMCU->CR, DBGMCU_CR_DBG_STOP);
 823              		.loc 1 559 3 view .LVU165
 824 0000 024A     		ldr	r2, .L75
 825 0002 5368     		ldr	r3, [r2, #4]
 826 0004 43F00203 		orr	r3, r3, #2
 827 0008 5360     		str	r3, [r2, #4]
 560:../../Drivers/STM32N6xx_HAL_Driver/Src/stm32n6xx_hal.c **** }
 828              		.loc 1 560 1 is_stmt 0 view .LVU166
 829 000a 7047     		bx	lr
ARM GAS  C:\Users\SMART\AppData\Local\Temp\ccwDMaLv.s 			page 26


 830              	.L76:
 831              		.align	2
 832              	.L75:
 833 000c 00100054 		.word	1409290240
 834              		.cfi_endproc
 835              	.LFE883:
 837              		.section	.text.HAL_DBGMCU_DisableDBGStopMode,"ax",%progbits
 838              		.align	1
 839              		.global	HAL_DBGMCU_DisableDBGStopMode
 840              		.syntax unified
 841              		.thumb
 842              		.thumb_func
 844              	HAL_DBGMCU_DisableDBGStopMode:
 845              	.LFB884:
 561:../../Drivers/STM32N6xx_HAL_Driver/Src/stm32n6xx_hal.c **** 
 562:../../Drivers/STM32N6xx_HAL_Driver/Src/stm32n6xx_hal.c **** /**
 563:../../Drivers/STM32N6xx_HAL_Driver/Src/stm32n6xx_hal.c ****   * @brief  Disable the Debug Module during Stop mode.
 564:../../Drivers/STM32N6xx_HAL_Driver/Src/stm32n6xx_hal.c ****   * @retval None
 565:../../Drivers/STM32N6xx_HAL_Driver/Src/stm32n6xx_hal.c ****   */
 566:../../Drivers/STM32N6xx_HAL_Driver/Src/stm32n6xx_hal.c **** void HAL_DBGMCU_DisableDBGStopMode(void)
 567:../../Drivers/STM32N6xx_HAL_Driver/Src/stm32n6xx_hal.c **** {
 846              		.loc 1 567 1 is_stmt 1 view -0
 847              		.cfi_startproc
 848              		@ args = 0, pretend = 0, frame = 0
 849              		@ frame_needed = 0, uses_anonymous_args = 0
 850              		@ link register save eliminated.
 568:../../Drivers/STM32N6xx_HAL_Driver/Src/stm32n6xx_hal.c ****   CLEAR_BIT(DBGMCU->CR, DBGMCU_CR_DBG_STOP);
 851              		.loc 1 568 3 view .LVU168
 852 0000 024A     		ldr	r2, .L78
 853 0002 5368     		ldr	r3, [r2, #4]
 854 0004 23F00203 		bic	r3, r3, #2
 855 0008 5360     		str	r3, [r2, #4]
 569:../../Drivers/STM32N6xx_HAL_Driver/Src/stm32n6xx_hal.c **** }
 856              		.loc 1 569 1 is_stmt 0 view .LVU169
 857 000a 7047     		bx	lr
 858              	.L79:
 859              		.align	2
 860              	.L78:
 861 000c 00100054 		.word	1409290240
 862              		.cfi_endproc
 863              	.LFE884:
 865              		.section	.text.HAL_DBGMCU_EnableDBGStandbyMode,"ax",%progbits
 866              		.align	1
 867              		.global	HAL_DBGMCU_EnableDBGStandbyMode
 868              		.syntax unified
 869              		.thumb
 870              		.thumb_func
 872              	HAL_DBGMCU_EnableDBGStandbyMode:
 873              	.LFB885:
 570:../../Drivers/STM32N6xx_HAL_Driver/Src/stm32n6xx_hal.c **** 
 571:../../Drivers/STM32N6xx_HAL_Driver/Src/stm32n6xx_hal.c **** /**
 572:../../Drivers/STM32N6xx_HAL_Driver/Src/stm32n6xx_hal.c ****   * @brief  Enable the Debug Module during Stanby mode.
 573:../../Drivers/STM32N6xx_HAL_Driver/Src/stm32n6xx_hal.c ****   * @retval None
 574:../../Drivers/STM32N6xx_HAL_Driver/Src/stm32n6xx_hal.c ****   */
 575:../../Drivers/STM32N6xx_HAL_Driver/Src/stm32n6xx_hal.c **** void HAL_DBGMCU_EnableDBGStandbyMode(void)
 576:../../Drivers/STM32N6xx_HAL_Driver/Src/stm32n6xx_hal.c **** {
 874              		.loc 1 576 1 is_stmt 1 view -0
ARM GAS  C:\Users\SMART\AppData\Local\Temp\ccwDMaLv.s 			page 27


 875              		.cfi_startproc
 876              		@ args = 0, pretend = 0, frame = 0
 877              		@ frame_needed = 0, uses_anonymous_args = 0
 878              		@ link register save eliminated.
 577:../../Drivers/STM32N6xx_HAL_Driver/Src/stm32n6xx_hal.c ****   SET_BIT(DBGMCU->CR, DBGMCU_CR_DBG_STANDBY);
 879              		.loc 1 577 3 view .LVU171
 880 0000 024A     		ldr	r2, .L81
 881 0002 5368     		ldr	r3, [r2, #4]
 882 0004 43F00403 		orr	r3, r3, #4
 883 0008 5360     		str	r3, [r2, #4]
 578:../../Drivers/STM32N6xx_HAL_Driver/Src/stm32n6xx_hal.c **** }
 884              		.loc 1 578 1 is_stmt 0 view .LVU172
 885 000a 7047     		bx	lr
 886              	.L82:
 887              		.align	2
 888              	.L81:
 889 000c 00100054 		.word	1409290240
 890              		.cfi_endproc
 891              	.LFE885:
 893              		.section	.text.HAL_DBGMCU_DisableDBGStandbyMode,"ax",%progbits
 894              		.align	1
 895              		.global	HAL_DBGMCU_DisableDBGStandbyMode
 896              		.syntax unified
 897              		.thumb
 898              		.thumb_func
 900              	HAL_DBGMCU_DisableDBGStandbyMode:
 901              	.LFB886:
 579:../../Drivers/STM32N6xx_HAL_Driver/Src/stm32n6xx_hal.c **** 
 580:../../Drivers/STM32N6xx_HAL_Driver/Src/stm32n6xx_hal.c **** /**
 581:../../Drivers/STM32N6xx_HAL_Driver/Src/stm32n6xx_hal.c ****   * @brief  Disable the Debug Module during Stanby mode.
 582:../../Drivers/STM32N6xx_HAL_Driver/Src/stm32n6xx_hal.c ****   * @retval None
 583:../../Drivers/STM32N6xx_HAL_Driver/Src/stm32n6xx_hal.c ****   */
 584:../../Drivers/STM32N6xx_HAL_Driver/Src/stm32n6xx_hal.c **** void HAL_DBGMCU_DisableDBGStandbyMode(void)
 585:../../Drivers/STM32N6xx_HAL_Driver/Src/stm32n6xx_hal.c **** {
 902              		.loc 1 585 1 is_stmt 1 view -0
 903              		.cfi_startproc
 904              		@ args = 0, pretend = 0, frame = 0
 905              		@ frame_needed = 0, uses_anonymous_args = 0
 906              		@ link register save eliminated.
 586:../../Drivers/STM32N6xx_HAL_Driver/Src/stm32n6xx_hal.c ****   CLEAR_BIT(DBGMCU->CR, DBGMCU_CR_DBG_STANDBY);
 907              		.loc 1 586 3 view .LVU174
 908 0000 024A     		ldr	r2, .L84
 909 0002 5368     		ldr	r3, [r2, #4]
 910 0004 23F00403 		bic	r3, r3, #4
 911 0008 5360     		str	r3, [r2, #4]
 587:../../Drivers/STM32N6xx_HAL_Driver/Src/stm32n6xx_hal.c **** }
 912              		.loc 1 587 1 is_stmt 0 view .LVU175
 913 000a 7047     		bx	lr
 914              	.L85:
 915              		.align	2
 916              	.L84:
 917 000c 00100054 		.word	1409290240
 918              		.cfi_endproc
 919              	.LFE886:
 921              		.section	.text.HAL_SYSCFG_EnablePullDown,"ax",%progbits
 922              		.align	1
 923              		.global	HAL_SYSCFG_EnablePullDown
ARM GAS  C:\Users\SMART\AppData\Local\Temp\ccwDMaLv.s 			page 28


 924              		.syntax unified
 925              		.thumb
 926              		.thumb_func
 928              	HAL_SYSCFG_EnablePullDown:
 929              	.LVL24:
 930              	.LFB887:
 588:../../Drivers/STM32N6xx_HAL_Driver/Src/stm32n6xx_hal.c **** 
 589:../../Drivers/STM32N6xx_HAL_Driver/Src/stm32n6xx_hal.c **** /**
 590:../../Drivers/STM32N6xx_HAL_Driver/Src/stm32n6xx_hal.c ****   * @}
 591:../../Drivers/STM32N6xx_HAL_Driver/Src/stm32n6xx_hal.c ****   */
 592:../../Drivers/STM32N6xx_HAL_Driver/Src/stm32n6xx_hal.c **** 
 593:../../Drivers/STM32N6xx_HAL_Driver/Src/stm32n6xx_hal.c **** /** @defgroup HAL_Exported_Functions_Group4 HAL SYSCFG configuration functions
 594:../../Drivers/STM32N6xx_HAL_Driver/Src/stm32n6xx_hal.c ****   *  @brief    HAL SYSCFG configuration functions
 595:../../Drivers/STM32N6xx_HAL_Driver/Src/stm32n6xx_hal.c ****   *
 596:../../Drivers/STM32N6xx_HAL_Driver/Src/stm32n6xx_hal.c **** @verbatim
 597:../../Drivers/STM32N6xx_HAL_Driver/Src/stm32n6xx_hal.c ****  ===============================================================================
 598:../../Drivers/STM32N6xx_HAL_Driver/Src/stm32n6xx_hal.c ****                       ##### HAL SYSCFG configuration functions #####
 599:../../Drivers/STM32N6xx_HAL_Driver/Src/stm32n6xx_hal.c ****  ===============================================================================
 600:../../Drivers/STM32N6xx_HAL_Driver/Src/stm32n6xx_hal.c ****     [..]  This section provides functions allowing to:
 601:../../Drivers/STM32N6xx_HAL_Driver/Src/stm32n6xx_hal.c ****       (+) Enable or disable BOOT pins pull-down.
 602:../../Drivers/STM32N6xx_HAL_Driver/Src/stm32n6xx_hal.c ****       (+) Lock and get locks status of system items.
 603:../../Drivers/STM32N6xx_HAL_Driver/Src/stm32n6xx_hal.c ****       (+) Set (and get) TCM size and DTCM size.
 604:../../Drivers/STM32N6xx_HAL_Driver/Src/stm32n6xx_hal.c ****       (+) Lock (and get) write accesses.
 605:../../Drivers/STM32N6xx_HAL_Driver/Src/stm32n6xx_hal.c ****       (+) Enable or disable wait state on extended ITCM and DTCM.
 606:../../Drivers/STM32N6xx_HAL_Driver/Src/stm32n6xx_hal.c ****       (+) Enable or disable external RW margin input for TCM memories.
 607:../../Drivers/STM32N6xx_HAL_Driver/Src/stm32n6xx_hal.c ****       (+) Set and get the TCM biasing level.
 608:../../Drivers/STM32N6xx_HAL_Driver/Src/stm32n6xx_hal.c ****       (+) Enable or disable the external RW for caches memories.
 609:../../Drivers/STM32N6xx_HAL_Driver/Src/stm32n6xx_hal.c ****       (+) Set and get the cache biasing level.
 610:../../Drivers/STM32N6xx_HAL_Driver/Src/stm32n6xx_hal.c ****       (+) Enable or disable the Power-on reset upon SW system request.
 611:../../Drivers/STM32N6xx_HAL_Driver/Src/stm32n6xx_hal.c ****       (+) Enable or disable that Lockup requests a warm reset to the RCC
 612:../../Drivers/STM32N6xx_HAL_Driver/Src/stm32n6xx_hal.c ****       (+) Enable or disable that Lockup generates a NMI on the core
 613:../../Drivers/STM32N6xx_HAL_Driver/Src/stm32n6xx_hal.c ****       (+) Clear Error capture in write posting buffer
 614:../../Drivers/STM32N6xx_HAL_Driver/Src/stm32n6xx_hal.c ****       (+) Reserve VENCRAM for VENC or release it (any use allowed)
 615:../../Drivers/STM32N6xx_HAL_Driver/Src/stm32n6xx_hal.c ****       (+) Enable or disable PKA, SAES, CRYP1/2 and HASH reset in case of potential tamper
 616:../../Drivers/STM32N6xx_HAL_Driver/Src/stm32n6xx_hal.c ****       (+) Set/Get write/read Qos for NP1, NP2 or CPU.
 617:../../Drivers/STM32N6xx_HAL_Driver/Src/stm32n6xx_hal.c ****       (+) Enable or disable SDMMC early-write response.
 618:../../Drivers/STM32N6xx_HAL_Driver/Src/stm32n6xx_hal.c ****       (+) Enable or disable USB early-write response.
 619:../../Drivers/STM32N6xx_HAL_Driver/Src/stm32n6xx_hal.c ****       (+) Enable or disable the NPU NIC, NPU NOC or CPU NOC clock gating.
 620:../../Drivers/STM32N6xx_HAL_Driver/Src/stm32n6xx_hal.c ****       (+) Enable or disable the VDDIOx compensation cell.
 621:../../Drivers/STM32N6xx_HAL_Driver/Src/stm32n6xx_hal.c ****       (+) Configure or get VDDIOx compensation cells.
 622:../../Drivers/STM32N6xx_HAL_Driver/Src/stm32n6xx_hal.c ****       (+) Get VDDIOx compensation ready status.
 623:../../Drivers/STM32N6xx_HAL_Driver/Src/stm32n6xx_hal.c ****       (+) Enable or disable the VDD compensation cell.
 624:../../Drivers/STM32N6xx_HAL_Driver/Src/stm32n6xx_hal.c ****       (+) Configure or get VDD compensation cells.
 625:../../Drivers/STM32N6xx_HAL_Driver/Src/stm32n6xx_hal.c ****       (+) Configure or get the Timer Break input for error flag
 626:../../Drivers/STM32N6xx_HAL_Driver/Src/stm32n6xx_hal.c ****       (+) Set and get secure OS allocation of specific CID to the DMA channel
 627:../../Drivers/STM32N6xx_HAL_Driver/Src/stm32n6xx_hal.c ****       (+) Set and get non-secure OS allocation of specific CID to the DMA channel
 628:../../Drivers/STM32N6xx_HAL_Driver/Src/stm32n6xx_hal.c ****       (+) Enable or disable Retiming on RX path.
 629:../../Drivers/STM32N6xx_HAL_Driver/Src/stm32n6xx_hal.c ****       (+) Enable or disable Retiming on TX path.
 630:../../Drivers/STM32N6xx_HAL_Driver/Src/stm32n6xx_hal.c ****       (+) Set and get Delay on feedback clock.
 631:../../Drivers/STM32N6xx_HAL_Driver/Src/stm32n6xx_hal.c ****       (+) Enable or disable the interleaving on NPU RAM.
 632:../../Drivers/STM32N6xx_HAL_Driver/Src/stm32n6xx_hal.c ****       (+) Get BOOT pin connection status
 633:../../Drivers/STM32N6xx_HAL_Driver/Src/stm32n6xx_hal.c ****       (+) Get the address of first error in P-AHB write-posting buffer
 634:../../Drivers/STM32N6xx_HAL_Driver/Src/stm32n6xx_hal.c **** 
 635:../../Drivers/STM32N6xx_HAL_Driver/Src/stm32n6xx_hal.c **** @endverbatim
 636:../../Drivers/STM32N6xx_HAL_Driver/Src/stm32n6xx_hal.c ****   * @{
 637:../../Drivers/STM32N6xx_HAL_Driver/Src/stm32n6xx_hal.c ****   */
 638:../../Drivers/STM32N6xx_HAL_Driver/Src/stm32n6xx_hal.c **** 
ARM GAS  C:\Users\SMART\AppData\Local\Temp\ccwDMaLv.s 			page 29


 639:../../Drivers/STM32N6xx_HAL_Driver/Src/stm32n6xx_hal.c **** /**
 640:../../Drivers/STM32N6xx_HAL_Driver/Src/stm32n6xx_hal.c ****   * @brief  Enable the Pull Down on BOOT pin.
 641:../../Drivers/STM32N6xx_HAL_Driver/Src/stm32n6xx_hal.c ****   * @param  BootId Specifies the boot pins.
 642:../../Drivers/STM32N6xx_HAL_Driver/Src/stm32n6xx_hal.c ****   *         This parameter can one of the following values:
 643:../../Drivers/STM32N6xx_HAL_Driver/Src/stm32n6xx_hal.c ****   *            @arg SYSCFG_BOOT_0 boot 0 pin
 644:../../Drivers/STM32N6xx_HAL_Driver/Src/stm32n6xx_hal.c ****   *            @arg SYSCFG_BOOT_1 boot 1 pin
 645:../../Drivers/STM32N6xx_HAL_Driver/Src/stm32n6xx_hal.c ****   * @retval None
 646:../../Drivers/STM32N6xx_HAL_Driver/Src/stm32n6xx_hal.c ****   */
 647:../../Drivers/STM32N6xx_HAL_Driver/Src/stm32n6xx_hal.c **** void HAL_SYSCFG_EnablePullDown(uint32_t BootId)
 648:../../Drivers/STM32N6xx_HAL_Driver/Src/stm32n6xx_hal.c **** {
 931              		.loc 1 648 1 is_stmt 1 view -0
 932              		.cfi_startproc
 933              		@ args = 0, pretend = 0, frame = 0
 934              		@ frame_needed = 0, uses_anonymous_args = 0
 935              		@ link register save eliminated.
 649:../../Drivers/STM32N6xx_HAL_Driver/Src/stm32n6xx_hal.c ****   /* Check the parameters */
 650:../../Drivers/STM32N6xx_HAL_Driver/Src/stm32n6xx_hal.c ****   assert_param(IS_SYSCFG_BOOT_ID(BootId));
 936              		.loc 1 650 3 view .LVU177
 651:../../Drivers/STM32N6xx_HAL_Driver/Src/stm32n6xx_hal.c **** 
 652:../../Drivers/STM32N6xx_HAL_Driver/Src/stm32n6xx_hal.c ****   SET_BIT(SYSCFG->BOOTCR, BootId);
 937              		.loc 1 652 3 view .LVU178
 938 0000 024A     		ldr	r2, .L87
 939 0002 1368     		ldr	r3, [r2]
 940 0004 0343     		orrs	r3, r3, r0
 941 0006 1360     		str	r3, [r2]
 653:../../Drivers/STM32N6xx_HAL_Driver/Src/stm32n6xx_hal.c **** }
 942              		.loc 1 653 1 is_stmt 0 view .LVU179
 943 0008 7047     		bx	lr
 944              	.L88:
 945 000a 00BF     		.align	2
 946              	.L87:
 947 000c 00800056 		.word	1442873344
 948              		.cfi_endproc
 949              	.LFE887:
 951              		.section	.text.HAL_SYSCFG_DisablePullDown,"ax",%progbits
 952              		.align	1
 953              		.global	HAL_SYSCFG_DisablePullDown
 954              		.syntax unified
 955              		.thumb
 956              		.thumb_func
 958              	HAL_SYSCFG_DisablePullDown:
 959              	.LVL25:
 960              	.LFB888:
 654:../../Drivers/STM32N6xx_HAL_Driver/Src/stm32n6xx_hal.c **** 
 655:../../Drivers/STM32N6xx_HAL_Driver/Src/stm32n6xx_hal.c **** /**
 656:../../Drivers/STM32N6xx_HAL_Driver/Src/stm32n6xx_hal.c ****   * @brief  Disable the Pull Down on BOOT pin.
 657:../../Drivers/STM32N6xx_HAL_Driver/Src/stm32n6xx_hal.c ****   * @param  BootId Specifies the boot pins.
 658:../../Drivers/STM32N6xx_HAL_Driver/Src/stm32n6xx_hal.c ****   *         This parameter can one of the following values:
 659:../../Drivers/STM32N6xx_HAL_Driver/Src/stm32n6xx_hal.c ****   *            @arg SYSCFG_BOOT_0 boot 0 pin
 660:../../Drivers/STM32N6xx_HAL_Driver/Src/stm32n6xx_hal.c ****   *            @arg SYSCFG_BOOT_1 boot 1 pin
 661:../../Drivers/STM32N6xx_HAL_Driver/Src/stm32n6xx_hal.c ****   * @retval None
 662:../../Drivers/STM32N6xx_HAL_Driver/Src/stm32n6xx_hal.c ****   */
 663:../../Drivers/STM32N6xx_HAL_Driver/Src/stm32n6xx_hal.c **** void HAL_SYSCFG_DisablePullDown(uint32_t BootId)
 664:../../Drivers/STM32N6xx_HAL_Driver/Src/stm32n6xx_hal.c **** {
 961              		.loc 1 664 1 is_stmt 1 view -0
 962              		.cfi_startproc
 963              		@ args = 0, pretend = 0, frame = 0
ARM GAS  C:\Users\SMART\AppData\Local\Temp\ccwDMaLv.s 			page 30


 964              		@ frame_needed = 0, uses_anonymous_args = 0
 965              		@ link register save eliminated.
 665:../../Drivers/STM32N6xx_HAL_Driver/Src/stm32n6xx_hal.c ****   /* Check the parameters */
 666:../../Drivers/STM32N6xx_HAL_Driver/Src/stm32n6xx_hal.c ****   assert_param(IS_SYSCFG_BOOT_ID(BootId));
 966              		.loc 1 666 3 view .LVU181
 667:../../Drivers/STM32N6xx_HAL_Driver/Src/stm32n6xx_hal.c **** 
 668:../../Drivers/STM32N6xx_HAL_Driver/Src/stm32n6xx_hal.c ****   CLEAR_BIT(SYSCFG->BOOTCR, BootId);
 967              		.loc 1 668 3 view .LVU182
 968 0000 024A     		ldr	r2, .L90
 969 0002 1368     		ldr	r3, [r2]
 970 0004 23EA0003 		bic	r3, r3, r0
 971 0008 1360     		str	r3, [r2]
 669:../../Drivers/STM32N6xx_HAL_Driver/Src/stm32n6xx_hal.c **** }
 972              		.loc 1 669 1 is_stmt 0 view .LVU183
 973 000a 7047     		bx	lr
 974              	.L91:
 975              		.align	2
 976              	.L90:
 977 000c 00800056 		.word	1442873344
 978              		.cfi_endproc
 979              	.LFE888:
 981              		.section	.text.HAL_SYSCFG_Lock,"ax",%progbits
 982              		.align	1
 983              		.global	HAL_SYSCFG_Lock
 984              		.syntax unified
 985              		.thumb
 986              		.thumb_func
 988              	HAL_SYSCFG_Lock:
 989              	.LVL26:
 990              	.LFB889:
 670:../../Drivers/STM32N6xx_HAL_Driver/Src/stm32n6xx_hal.c **** 
 671:../../Drivers/STM32N6xx_HAL_Driver/Src/stm32n6xx_hal.c **** /**
 672:../../Drivers/STM32N6xx_HAL_Driver/Src/stm32n6xx_hal.c ****   * @brief  Lock the SYSCFG item(s).
 673:../../Drivers/STM32N6xx_HAL_Driver/Src/stm32n6xx_hal.c ****   * @note   Lock(s) cleared only at system reset
 674:../../Drivers/STM32N6xx_HAL_Driver/Src/stm32n6xx_hal.c ****   * @param  Item Item(s) to set lock on.
 675:../../Drivers/STM32N6xx_HAL_Driver/Src/stm32n6xx_hal.c ****   *         This parameter can be a combination of @ref SYSCFG_Lock_items
 676:../../Drivers/STM32N6xx_HAL_Driver/Src/stm32n6xx_hal.c ****   * @retval None
 677:../../Drivers/STM32N6xx_HAL_Driver/Src/stm32n6xx_hal.c ****   */
 678:../../Drivers/STM32N6xx_HAL_Driver/Src/stm32n6xx_hal.c **** void HAL_SYSCFG_Lock(uint32_t Item)
 679:../../Drivers/STM32N6xx_HAL_Driver/Src/stm32n6xx_hal.c **** {
 991              		.loc 1 679 1 is_stmt 1 view -0
 992              		.cfi_startproc
 993              		@ args = 0, pretend = 0, frame = 0
 994              		@ frame_needed = 0, uses_anonymous_args = 0
 995              		@ link register save eliminated.
 680:../../Drivers/STM32N6xx_HAL_Driver/Src/stm32n6xx_hal.c ****   /* Check the parameters */
 681:../../Drivers/STM32N6xx_HAL_Driver/Src/stm32n6xx_hal.c ****   assert_param(IS_SYSCFG_LOCK_ITEMS(Item));
 996              		.loc 1 681 3 view .LVU185
 682:../../Drivers/STM32N6xx_HAL_Driver/Src/stm32n6xx_hal.c **** 
 683:../../Drivers/STM32N6xx_HAL_Driver/Src/stm32n6xx_hal.c ****   MODIFY_REG(SYSCFG->CM55CR, SYSCFG_LOCK_ALL, Item);
 997              		.loc 1 683 3 view .LVU186
 998 0000 034A     		ldr	r2, .L93
 999 0002 5368     		ldr	r3, [r2, #4]
 1000 0004 23F47C13 		bic	r3, r3, #4128768
 1001 0008 0343     		orrs	r3, r3, r0
 1002 000a 5360     		str	r3, [r2, #4]
 684:../../Drivers/STM32N6xx_HAL_Driver/Src/stm32n6xx_hal.c **** }
ARM GAS  C:\Users\SMART\AppData\Local\Temp\ccwDMaLv.s 			page 31


 1003              		.loc 1 684 1 is_stmt 0 view .LVU187
 1004 000c 7047     		bx	lr
 1005              	.L94:
 1006 000e 00BF     		.align	2
 1007              	.L93:
 1008 0010 00800056 		.word	1442873344
 1009              		.cfi_endproc
 1010              	.LFE889:
 1012              		.section	.text.HAL_SYSCFG_GetLock,"ax",%progbits
 1013              		.align	1
 1014              		.global	HAL_SYSCFG_GetLock
 1015              		.syntax unified
 1016              		.thumb
 1017              		.thumb_func
 1019              	HAL_SYSCFG_GetLock:
 1020              	.LVL27:
 1021              	.LFB890:
 685:../../Drivers/STM32N6xx_HAL_Driver/Src/stm32n6xx_hal.c **** 
 686:../../Drivers/STM32N6xx_HAL_Driver/Src/stm32n6xx_hal.c **** /**
 687:../../Drivers/STM32N6xx_HAL_Driver/Src/stm32n6xx_hal.c ****   * @brief  Get the lock state of SYSCFG item.
 688:../../Drivers/STM32N6xx_HAL_Driver/Src/stm32n6xx_hal.c ****   * @param  pItem Pointer to return locked items
 689:../../Drivers/STM32N6xx_HAL_Driver/Src/stm32n6xx_hal.c ****   *         the return value can be a combination of @ref SYSCFG_Lock_items
 690:../../Drivers/STM32N6xx_HAL_Driver/Src/stm32n6xx_hal.c ****   * @retval HAL status
 691:../../Drivers/STM32N6xx_HAL_Driver/Src/stm32n6xx_hal.c ****   */
 692:../../Drivers/STM32N6xx_HAL_Driver/Src/stm32n6xx_hal.c **** HAL_StatusTypeDef HAL_SYSCFG_GetLock(uint32_t *pItem)
 693:../../Drivers/STM32N6xx_HAL_Driver/Src/stm32n6xx_hal.c **** {
 1022              		.loc 1 693 1 is_stmt 1 view -0
 1023              		.cfi_startproc
 1024              		@ args = 0, pretend = 0, frame = 0
 1025              		@ frame_needed = 0, uses_anonymous_args = 0
 1026              		@ link register save eliminated.
 694:../../Drivers/STM32N6xx_HAL_Driver/Src/stm32n6xx_hal.c ****   /* Check null pointer */
 695:../../Drivers/STM32N6xx_HAL_Driver/Src/stm32n6xx_hal.c ****   if (pItem == NULL)
 1027              		.loc 1 695 3 view .LVU189
 1028              		.loc 1 695 6 is_stmt 0 view .LVU190
 1029 0000 30B1     		cbz	r0, .L97
 696:../../Drivers/STM32N6xx_HAL_Driver/Src/stm32n6xx_hal.c ****   {
 697:../../Drivers/STM32N6xx_HAL_Driver/Src/stm32n6xx_hal.c ****     return HAL_ERROR;
 698:../../Drivers/STM32N6xx_HAL_Driver/Src/stm32n6xx_hal.c ****   }
 699:../../Drivers/STM32N6xx_HAL_Driver/Src/stm32n6xx_hal.c **** 
 700:../../Drivers/STM32N6xx_HAL_Driver/Src/stm32n6xx_hal.c ****   /* Get the non-secure lock state */
 701:../../Drivers/STM32N6xx_HAL_Driver/Src/stm32n6xx_hal.c ****   *pItem = READ_BIT(SYSCFG->CM55CR, SYSCFG_LOCK_ALL);
 1030              		.loc 1 701 3 is_stmt 1 view .LVU191
 1031              		.loc 1 701 12 is_stmt 0 view .LVU192
 1032 0002 044B     		ldr	r3, .L98
 1033 0004 5B68     		ldr	r3, [r3, #4]
 1034 0006 03F47C13 		and	r3, r3, #4128768
 1035              		.loc 1 701 10 view .LVU193
 1036 000a 0360     		str	r3, [r0]
 702:../../Drivers/STM32N6xx_HAL_Driver/Src/stm32n6xx_hal.c **** 
 703:../../Drivers/STM32N6xx_HAL_Driver/Src/stm32n6xx_hal.c ****   return HAL_OK;
 1037              		.loc 1 703 3 is_stmt 1 view .LVU194
 1038              		.loc 1 703 10 is_stmt 0 view .LVU195
 1039 000c 0020     		movs	r0, #0
 1040              	.LVL28:
 1041              		.loc 1 703 10 view .LVU196
 1042 000e 7047     		bx	lr
ARM GAS  C:\Users\SMART\AppData\Local\Temp\ccwDMaLv.s 			page 32


 1043              	.LVL29:
 1044              	.L97:
 697:../../Drivers/STM32N6xx_HAL_Driver/Src/stm32n6xx_hal.c ****   }
 1045              		.loc 1 697 12 view .LVU197
 1046 0010 0120     		movs	r0, #1
 1047              	.LVL30:
 704:../../Drivers/STM32N6xx_HAL_Driver/Src/stm32n6xx_hal.c **** }
 1048              		.loc 1 704 1 view .LVU198
 1049 0012 7047     		bx	lr
 1050              	.L99:
 1051              		.align	2
 1052              	.L98:
 1053 0014 00800056 		.word	1442873344
 1054              		.cfi_endproc
 1055              	.LFE890:
 1057              		.section	.text.HAL_SYSCFG_SetTCMSize,"ax",%progbits
 1058              		.align	1
 1059              		.global	HAL_SYSCFG_SetTCMSize
 1060              		.syntax unified
 1061              		.thumb
 1062              		.thumb_func
 1064              	HAL_SYSCFG_SetTCMSize:
 1065              	.LVL31:
 1066              	.LFB891:
 705:../../Drivers/STM32N6xx_HAL_Driver/Src/stm32n6xx_hal.c **** 
 706:../../Drivers/STM32N6xx_HAL_Driver/Src/stm32n6xx_hal.c **** /**
 707:../../Drivers/STM32N6xx_HAL_Driver/Src/stm32n6xx_hal.c ****   * @brief  Set the DTCM and ITCM memory sizes.
 708:../../Drivers/STM32N6xx_HAL_Driver/Src/stm32n6xx_hal.c ****   * @note   Write-once TCM configuration change.
 709:../../Drivers/STM32N6xx_HAL_Driver/Src/stm32n6xx_hal.c ****   * @note   Effective change applied upon new power-on reset by calling
 710:../../Drivers/STM32N6xx_HAL_Driver/Src/stm32n6xx_hal.c ****   *         HAL_SYSCFG_EnablePowerOnReset() and NVIC_SystemReset()
 711:../../Drivers/STM32N6xx_HAL_Driver/Src/stm32n6xx_hal.c ****   * @param  DtcmSize DTCM memory size
 712:../../Drivers/STM32N6xx_HAL_Driver/Src/stm32n6xx_hal.c ****   *         This parameter can one of the following values:
 713:../../Drivers/STM32N6xx_HAL_Driver/Src/stm32n6xx_hal.c ****   *            @arg SYSCFG_DTCM_128K 128K
 714:../../Drivers/STM32N6xx_HAL_Driver/Src/stm32n6xx_hal.c ****   *            @arg SYSCFG_DTCM_256K 256K
 715:../../Drivers/STM32N6xx_HAL_Driver/Src/stm32n6xx_hal.c ****   * @param  ItcmSize ITCM memory size
 716:../../Drivers/STM32N6xx_HAL_Driver/Src/stm32n6xx_hal.c ****   *         This parameter can one of the following values:
 717:../../Drivers/STM32N6xx_HAL_Driver/Src/stm32n6xx_hal.c ****   *            @arg SYSCFG_ITCM_64K  64K
 718:../../Drivers/STM32N6xx_HAL_Driver/Src/stm32n6xx_hal.c ****   *            @arg SYSCFG_ITCM_128K 128K
 719:../../Drivers/STM32N6xx_HAL_Driver/Src/stm32n6xx_hal.c ****   *            @arg SYSCFG_ITCM_256K 256K
 720:../../Drivers/STM32N6xx_HAL_Driver/Src/stm32n6xx_hal.c ****   * @retval None
 721:../../Drivers/STM32N6xx_HAL_Driver/Src/stm32n6xx_hal.c ****   */
 722:../../Drivers/STM32N6xx_HAL_Driver/Src/stm32n6xx_hal.c **** void HAL_SYSCFG_SetTCMSize(uint32_t DtcmSize, uint32_t ItcmSize)
 723:../../Drivers/STM32N6xx_HAL_Driver/Src/stm32n6xx_hal.c **** {
 1067              		.loc 1 723 1 is_stmt 1 view -0
 1068              		.cfi_startproc
 1069              		@ args = 0, pretend = 0, frame = 0
 1070              		@ frame_needed = 0, uses_anonymous_args = 0
 1071              		@ link register save eliminated.
 724:../../Drivers/STM32N6xx_HAL_Driver/Src/stm32n6xx_hal.c ****   /* Check the parameters */
 725:../../Drivers/STM32N6xx_HAL_Driver/Src/stm32n6xx_hal.c ****   assert_param(IS_SYSCFG_DTCM_SIZE(DtcmSize));
 1072              		.loc 1 725 3 view .LVU200
 726:../../Drivers/STM32N6xx_HAL_Driver/Src/stm32n6xx_hal.c ****   assert_param(IS_SYSCFG_ITCM_SIZE(ItcmSize));
 1073              		.loc 1 726 3 view .LVU201
 727:../../Drivers/STM32N6xx_HAL_Driver/Src/stm32n6xx_hal.c **** 
 728:../../Drivers/STM32N6xx_HAL_Driver/Src/stm32n6xx_hal.c ****   MODIFY_REG(SYSCFG->CM55TCMCR, SYSCFG_CM55TCMCR_CFGDTCMSZ | SYSCFG_CM55TCMCR_CFGITCMSZ, DtcmSize |
 1074              		.loc 1 728 3 view .LVU202
 1075 0000 034A     		ldr	r2, .L101
ARM GAS  C:\Users\SMART\AppData\Local\Temp\ccwDMaLv.s 			page 33


 1076 0002 9368     		ldr	r3, [r2, #8]
 1077 0004 23F0FF03 		bic	r3, r3, #255
 1078 0008 0843     		orrs	r0, r0, r1
 1079              	.LVL32:
 1080              		.loc 1 728 3 is_stmt 0 view .LVU203
 1081 000a 0343     		orrs	r3, r3, r0
 1082 000c 9360     		str	r3, [r2, #8]
 729:../../Drivers/STM32N6xx_HAL_Driver/Src/stm32n6xx_hal.c **** }
 1083              		.loc 1 729 1 view .LVU204
 1084 000e 7047     		bx	lr
 1085              	.L102:
 1086              		.align	2
 1087              	.L101:
 1088 0010 00800056 		.word	1442873344
 1089              		.cfi_endproc
 1090              	.LFE891:
 1092              		.section	.text.HAL_SYSCFG_GetTCMSize,"ax",%progbits
 1093              		.align	1
 1094              		.global	HAL_SYSCFG_GetTCMSize
 1095              		.syntax unified
 1096              		.thumb
 1097              		.thumb_func
 1099              	HAL_SYSCFG_GetTCMSize:
 1100              	.LVL33:
 1101              	.LFB892:
 730:../../Drivers/STM32N6xx_HAL_Driver/Src/stm32n6xx_hal.c **** 
 731:../../Drivers/STM32N6xx_HAL_Driver/Src/stm32n6xx_hal.c **** /**
 732:../../Drivers/STM32N6xx_HAL_Driver/Src/stm32n6xx_hal.c ****   * @brief  Get the DTCM and ITCM memory sizes.
 733:../../Drivers/STM32N6xx_HAL_Driver/Src/stm32n6xx_hal.c ****   * @param  pDtcmSize Pointer to return DTCM memory size
 734:../../Drivers/STM32N6xx_HAL_Driver/Src/stm32n6xx_hal.c ****   *         This return value can be one of
 735:../../Drivers/STM32N6xx_HAL_Driver/Src/stm32n6xx_hal.c ****   *            @arg SYSCFG_DTCM_128K 128K
 736:../../Drivers/STM32N6xx_HAL_Driver/Src/stm32n6xx_hal.c ****   *            @arg SYSCFG_DTCM_256K 256K
 737:../../Drivers/STM32N6xx_HAL_Driver/Src/stm32n6xx_hal.c ****   * @param  pItcmSize Pointer to return ITCM memory size
 738:../../Drivers/STM32N6xx_HAL_Driver/Src/stm32n6xx_hal.c ****   *         This return value can be one of
 739:../../Drivers/STM32N6xx_HAL_Driver/Src/stm32n6xx_hal.c ****   *            @arg SYSCFG_ITCM_64K  64K
 740:../../Drivers/STM32N6xx_HAL_Driver/Src/stm32n6xx_hal.c ****   *            @arg SYSCFG_ITCM_128K 128K
 741:../../Drivers/STM32N6xx_HAL_Driver/Src/stm32n6xx_hal.c ****   *            @arg SYSCFG_ITCM_256K 256K
 742:../../Drivers/STM32N6xx_HAL_Driver/Src/stm32n6xx_hal.c ****   * @retval HAL status
 743:../../Drivers/STM32N6xx_HAL_Driver/Src/stm32n6xx_hal.c ****    */
 744:../../Drivers/STM32N6xx_HAL_Driver/Src/stm32n6xx_hal.c **** HAL_StatusTypeDef HAL_SYSCFG_GetTCMSize(uint32_t *pDtcmSize, uint32_t *pItcmSize)
 745:../../Drivers/STM32N6xx_HAL_Driver/Src/stm32n6xx_hal.c **** {
 1102              		.loc 1 745 1 is_stmt 1 view -0
 1103              		.cfi_startproc
 1104              		@ args = 0, pretend = 0, frame = 0
 1105              		@ frame_needed = 0, uses_anonymous_args = 0
 1106              		@ link register save eliminated.
 746:../../Drivers/STM32N6xx_HAL_Driver/Src/stm32n6xx_hal.c ****   uint32_t values;
 1107              		.loc 1 746 3 view .LVU206
 747:../../Drivers/STM32N6xx_HAL_Driver/Src/stm32n6xx_hal.c **** 
 748:../../Drivers/STM32N6xx_HAL_Driver/Src/stm32n6xx_hal.c ****   /* Check null pointer */
 749:../../Drivers/STM32N6xx_HAL_Driver/Src/stm32n6xx_hal.c ****   if ((pDtcmSize == NULL) || (pItcmSize == NULL))
 1108              		.loc 1 749 3 view .LVU207
 1109              		.loc 1 749 6 is_stmt 0 view .LVU208
 1110 0000 0246     		mov	r2, r0
 1111 0002 50B1     		cbz	r0, .L105
 1112              		.loc 1 749 27 discriminator 1 view .LVU209
 1113 0004 59B1     		cbz	r1, .L106
ARM GAS  C:\Users\SMART\AppData\Local\Temp\ccwDMaLv.s 			page 34


 750:../../Drivers/STM32N6xx_HAL_Driver/Src/stm32n6xx_hal.c ****   {
 751:../../Drivers/STM32N6xx_HAL_Driver/Src/stm32n6xx_hal.c ****     return HAL_ERROR;
 752:../../Drivers/STM32N6xx_HAL_Driver/Src/stm32n6xx_hal.c ****   }
 753:../../Drivers/STM32N6xx_HAL_Driver/Src/stm32n6xx_hal.c **** 
 754:../../Drivers/STM32N6xx_HAL_Driver/Src/stm32n6xx_hal.c ****   values = READ_REG(SYSCFG->CM55TCMCR);
 1114              		.loc 1 754 3 is_stmt 1 view .LVU210
 1115              		.loc 1 754 10 is_stmt 0 view .LVU211
 1116 0006 074B     		ldr	r3, .L107
 1117 0008 9B68     		ldr	r3, [r3, #8]
 1118              	.LVL34:
 755:../../Drivers/STM32N6xx_HAL_Driver/Src/stm32n6xx_hal.c ****   *pDtcmSize = (values & 0xF0U);
 1119              		.loc 1 755 3 is_stmt 1 view .LVU212
 1120              		.loc 1 755 24 is_stmt 0 view .LVU213
 1121 000a 03F0F000 		and	r0, r3, #240
 1122              	.LVL35:
 1123              		.loc 1 755 14 view .LVU214
 1124 000e 1060     		str	r0, [r2]
 756:../../Drivers/STM32N6xx_HAL_Driver/Src/stm32n6xx_hal.c ****   *pItcmSize = (values & 0xFU);
 1125              		.loc 1 756 3 is_stmt 1 view .LVU215
 1126              		.loc 1 756 24 is_stmt 0 view .LVU216
 1127 0010 03F00F03 		and	r3, r3, #15
 1128              	.LVL36:
 1129              		.loc 1 756 14 view .LVU217
 1130 0014 0B60     		str	r3, [r1]
 757:../../Drivers/STM32N6xx_HAL_Driver/Src/stm32n6xx_hal.c **** 
 758:../../Drivers/STM32N6xx_HAL_Driver/Src/stm32n6xx_hal.c ****   return HAL_OK;
 1131              		.loc 1 758 3 is_stmt 1 view .LVU218
 1132              		.loc 1 758 10 is_stmt 0 view .LVU219
 1133 0016 0020     		movs	r0, #0
 1134 0018 7047     		bx	lr
 1135              	.LVL37:
 1136              	.L105:
 751:../../Drivers/STM32N6xx_HAL_Driver/Src/stm32n6xx_hal.c ****   }
 1137              		.loc 1 751 12 view .LVU220
 1138 001a 0120     		movs	r0, #1
 1139              	.LVL38:
 751:../../Drivers/STM32N6xx_HAL_Driver/Src/stm32n6xx_hal.c ****   }
 1140              		.loc 1 751 12 view .LVU221
 1141 001c 7047     		bx	lr
 1142              	.LVL39:
 1143              	.L106:
 751:../../Drivers/STM32N6xx_HAL_Driver/Src/stm32n6xx_hal.c ****   }
 1144              		.loc 1 751 12 view .LVU222
 1145 001e 0120     		movs	r0, #1
 1146              	.LVL40:
 759:../../Drivers/STM32N6xx_HAL_Driver/Src/stm32n6xx_hal.c **** }
 1147              		.loc 1 759 1 view .LVU223
 1148 0020 7047     		bx	lr
 1149              	.L108:
 1150 0022 00BF     		.align	2
 1151              	.L107:
 1152 0024 00800056 		.word	1442873344
 1153              		.cfi_endproc
 1154              	.LFE892:
 1156              		.section	.text.HAL_SYSCFG_LockWriteAccess,"ax",%progbits
 1157              		.align	1
 1158              		.global	HAL_SYSCFG_LockWriteAccess
ARM GAS  C:\Users\SMART\AppData\Local\Temp\ccwDMaLv.s 			page 35


 1159              		.syntax unified
 1160              		.thumb
 1161              		.thumb_func
 1163              	HAL_SYSCFG_LockWriteAccess:
 1164              	.LVL41:
 1165              	.LFB893:
 760:../../Drivers/STM32N6xx_HAL_Driver/Src/stm32n6xx_hal.c **** 
 761:../../Drivers/STM32N6xx_HAL_Driver/Src/stm32n6xx_hal.c **** /**
 762:../../Drivers/STM32N6xx_HAL_Driver/Src/stm32n6xx_hal.c ****   * @brief  Lock the SYSCFG write access item(s).
 763:../../Drivers/STM32N6xx_HAL_Driver/Src/stm32n6xx_hal.c ****   * @note   Lock(s) cleared only at system reset
 764:../../Drivers/STM32N6xx_HAL_Driver/Src/stm32n6xx_hal.c ****   * @param  Item Item(s) to set lock on.
 765:../../Drivers/STM32N6xx_HAL_Driver/Src/stm32n6xx_hal.c ****   *         This parameter can be a combination of @ref SYSCFG_WRITE_access
 766:../../Drivers/STM32N6xx_HAL_Driver/Src/stm32n6xx_hal.c ****   * @retval None
 767:../../Drivers/STM32N6xx_HAL_Driver/Src/stm32n6xx_hal.c ****   */
 768:../../Drivers/STM32N6xx_HAL_Driver/Src/stm32n6xx_hal.c **** void HAL_SYSCFG_LockWriteAccess(uint32_t Item)
 769:../../Drivers/STM32N6xx_HAL_Driver/Src/stm32n6xx_hal.c **** {
 1166              		.loc 1 769 1 is_stmt 1 view -0
 1167              		.cfi_startproc
 1168              		@ args = 0, pretend = 0, frame = 0
 1169              		@ frame_needed = 0, uses_anonymous_args = 0
 1170              		@ link register save eliminated.
 770:../../Drivers/STM32N6xx_HAL_Driver/Src/stm32n6xx_hal.c ****   /* Check the parameters */
 771:../../Drivers/STM32N6xx_HAL_Driver/Src/stm32n6xx_hal.c ****   assert_param(IS_SYSCFG_LOCK_WRACCESS(Item));
 1171              		.loc 1 771 3 view .LVU225
 772:../../Drivers/STM32N6xx_HAL_Driver/Src/stm32n6xx_hal.c **** 
 773:../../Drivers/STM32N6xx_HAL_Driver/Src/stm32n6xx_hal.c ****   MODIFY_REG(SYSCFG->CM55TCMCR, SYSCFG_LOCK_WR_ALL, Item);
 1172              		.loc 1 773 3 view .LVU226
 1173 0000 034A     		ldr	r2, .L110
 1174 0002 9368     		ldr	r3, [r2, #8]
 1175 0004 23F4E023 		bic	r3, r3, #458752
 1176 0008 0343     		orrs	r3, r3, r0
 1177 000a 9360     		str	r3, [r2, #8]
 774:../../Drivers/STM32N6xx_HAL_Driver/Src/stm32n6xx_hal.c **** }
 1178              		.loc 1 774 1 is_stmt 0 view .LVU227
 1179 000c 7047     		bx	lr
 1180              	.L111:
 1181 000e 00BF     		.align	2
 1182              	.L110:
 1183 0010 00800056 		.word	1442873344
 1184              		.cfi_endproc
 1185              	.LFE893:
 1187              		.section	.text.HAL_SYSCFG_GetLockWriteAccess,"ax",%progbits
 1188              		.align	1
 1189              		.global	HAL_SYSCFG_GetLockWriteAccess
 1190              		.syntax unified
 1191              		.thumb
 1192              		.thumb_func
 1194              	HAL_SYSCFG_GetLockWriteAccess:
 1195              	.LVL42:
 1196              	.LFB894:
 775:../../Drivers/STM32N6xx_HAL_Driver/Src/stm32n6xx_hal.c **** 
 776:../../Drivers/STM32N6xx_HAL_Driver/Src/stm32n6xx_hal.c **** /**
 777:../../Drivers/STM32N6xx_HAL_Driver/Src/stm32n6xx_hal.c ****   * @brief  Get the lock state of SYSCFG  write access item.
 778:../../Drivers/STM32N6xx_HAL_Driver/Src/stm32n6xx_hal.c ****   * @param  pItem pointer to return locked items
 779:../../Drivers/STM32N6xx_HAL_Driver/Src/stm32n6xx_hal.c ****   *         the return value can be a combination of @ref SYSCFG_WRITE_access
 780:../../Drivers/STM32N6xx_HAL_Driver/Src/stm32n6xx_hal.c ****   * @retval HAL status
 781:../../Drivers/STM32N6xx_HAL_Driver/Src/stm32n6xx_hal.c ****   */
ARM GAS  C:\Users\SMART\AppData\Local\Temp\ccwDMaLv.s 			page 36


 782:../../Drivers/STM32N6xx_HAL_Driver/Src/stm32n6xx_hal.c **** HAL_StatusTypeDef HAL_SYSCFG_GetLockWriteAccess(uint32_t *pItem)
 783:../../Drivers/STM32N6xx_HAL_Driver/Src/stm32n6xx_hal.c **** {
 1197              		.loc 1 783 1 is_stmt 1 view -0
 1198              		.cfi_startproc
 1199              		@ args = 0, pretend = 0, frame = 0
 1200              		@ frame_needed = 0, uses_anonymous_args = 0
 1201              		@ link register save eliminated.
 784:../../Drivers/STM32N6xx_HAL_Driver/Src/stm32n6xx_hal.c ****   /* Check null pointer */
 785:../../Drivers/STM32N6xx_HAL_Driver/Src/stm32n6xx_hal.c ****   if (pItem == NULL)
 1202              		.loc 1 785 3 view .LVU229
 1203              		.loc 1 785 6 is_stmt 0 view .LVU230
 1204 0000 30B1     		cbz	r0, .L114
 786:../../Drivers/STM32N6xx_HAL_Driver/Src/stm32n6xx_hal.c ****   {
 787:../../Drivers/STM32N6xx_HAL_Driver/Src/stm32n6xx_hal.c ****     return HAL_ERROR;
 788:../../Drivers/STM32N6xx_HAL_Driver/Src/stm32n6xx_hal.c ****   }
 789:../../Drivers/STM32N6xx_HAL_Driver/Src/stm32n6xx_hal.c **** 
 790:../../Drivers/STM32N6xx_HAL_Driver/Src/stm32n6xx_hal.c ****   /* Get the non-secure lock state */
 791:../../Drivers/STM32N6xx_HAL_Driver/Src/stm32n6xx_hal.c ****   *pItem = READ_BIT(SYSCFG->CM55TCMCR, SYSCFG_LOCK_WR_ALL);
 1205              		.loc 1 791 3 is_stmt 1 view .LVU231
 1206              		.loc 1 791 12 is_stmt 0 view .LVU232
 1207 0002 044B     		ldr	r3, .L115
 1208 0004 9B68     		ldr	r3, [r3, #8]
 1209 0006 03F4E023 		and	r3, r3, #458752
 1210              		.loc 1 791 10 view .LVU233
 1211 000a 0360     		str	r3, [r0]
 792:../../Drivers/STM32N6xx_HAL_Driver/Src/stm32n6xx_hal.c **** 
 793:../../Drivers/STM32N6xx_HAL_Driver/Src/stm32n6xx_hal.c ****   return HAL_OK;
 1212              		.loc 1 793 3 is_stmt 1 view .LVU234
 1213              		.loc 1 793 10 is_stmt 0 view .LVU235
 1214 000c 0020     		movs	r0, #0
 1215              	.LVL43:
 1216              		.loc 1 793 10 view .LVU236
 1217 000e 7047     		bx	lr
 1218              	.LVL44:
 1219              	.L114:
 787:../../Drivers/STM32N6xx_HAL_Driver/Src/stm32n6xx_hal.c ****   }
 1220              		.loc 1 787 12 view .LVU237
 1221 0010 0120     		movs	r0, #1
 1222              	.LVL45:
 794:../../Drivers/STM32N6xx_HAL_Driver/Src/stm32n6xx_hal.c **** }
 1223              		.loc 1 794 1 view .LVU238
 1224 0012 7047     		bx	lr
 1225              	.L116:
 1226              		.align	2
 1227              	.L115:
 1228 0014 00800056 		.word	1442873344
 1229              		.cfi_endproc
 1230              	.LFE894:
 1232              		.section	.text.HAL_SYSCFG_EnableITCMWaiteState,"ax",%progbits
 1233              		.align	1
 1234              		.global	HAL_SYSCFG_EnableITCMWaiteState
 1235              		.syntax unified
 1236              		.thumb
 1237              		.thumb_func
 1239              	HAL_SYSCFG_EnableITCMWaiteState:
 1240              	.LFB895:
 795:../../Drivers/STM32N6xx_HAL_Driver/Src/stm32n6xx_hal.c **** 
ARM GAS  C:\Users\SMART\AppData\Local\Temp\ccwDMaLv.s 			page 37


 796:../../Drivers/STM32N6xx_HAL_Driver/Src/stm32n6xx_hal.c **** /**
 797:../../Drivers/STM32N6xx_HAL_Driver/Src/stm32n6xx_hal.c ****   * @brief  Enable the ITCM Wait State.
 798:../../Drivers/STM32N6xx_HAL_Driver/Src/stm32n6xx_hal.c ****   * @retval None
 799:../../Drivers/STM32N6xx_HAL_Driver/Src/stm32n6xx_hal.c ****   */
 800:../../Drivers/STM32N6xx_HAL_Driver/Src/stm32n6xx_hal.c **** void HAL_SYSCFG_EnableITCMWaiteState(void)
 801:../../Drivers/STM32N6xx_HAL_Driver/Src/stm32n6xx_hal.c **** {
 1241              		.loc 1 801 1 is_stmt 1 view -0
 1242              		.cfi_startproc
 1243              		@ args = 0, pretend = 0, frame = 0
 1244              		@ frame_needed = 0, uses_anonymous_args = 0
 1245              		@ link register save eliminated.
 802:../../Drivers/STM32N6xx_HAL_Driver/Src/stm32n6xx_hal.c ****   SET_BIT(SYSCFG->CM55TCMCR, SYSCFG_CM55TCMCR_ITCMWSDISABLE);
 1246              		.loc 1 802 3 view .LVU240
 1247 0000 024A     		ldr	r2, .L118
 1248 0002 9368     		ldr	r3, [r2, #8]
 1249 0004 43F40003 		orr	r3, r3, #8388608
 1250 0008 9360     		str	r3, [r2, #8]
 803:../../Drivers/STM32N6xx_HAL_Driver/Src/stm32n6xx_hal.c **** }
 1251              		.loc 1 803 1 is_stmt 0 view .LVU241
 1252 000a 7047     		bx	lr
 1253              	.L119:
 1254              		.align	2
 1255              	.L118:
 1256 000c 00800056 		.word	1442873344
 1257              		.cfi_endproc
 1258              	.LFE895:
 1260              		.section	.text.HAL_SYSCFG_DisableITCMWaiteState,"ax",%progbits
 1261              		.align	1
 1262              		.global	HAL_SYSCFG_DisableITCMWaiteState
 1263              		.syntax unified
 1264              		.thumb
 1265              		.thumb_func
 1267              	HAL_SYSCFG_DisableITCMWaiteState:
 1268              	.LFB896:
 804:../../Drivers/STM32N6xx_HAL_Driver/Src/stm32n6xx_hal.c **** 
 805:../../Drivers/STM32N6xx_HAL_Driver/Src/stm32n6xx_hal.c **** /**
 806:../../Drivers/STM32N6xx_HAL_Driver/Src/stm32n6xx_hal.c ****   * @brief  Disable the ITCM Wait State.
 807:../../Drivers/STM32N6xx_HAL_Driver/Src/stm32n6xx_hal.c ****   * @retval None
 808:../../Drivers/STM32N6xx_HAL_Driver/Src/stm32n6xx_hal.c ****   */
 809:../../Drivers/STM32N6xx_HAL_Driver/Src/stm32n6xx_hal.c **** void HAL_SYSCFG_DisableITCMWaiteState(void)
 810:../../Drivers/STM32N6xx_HAL_Driver/Src/stm32n6xx_hal.c **** {
 1269              		.loc 1 810 1 is_stmt 1 view -0
 1270              		.cfi_startproc
 1271              		@ args = 0, pretend = 0, frame = 0
 1272              		@ frame_needed = 0, uses_anonymous_args = 0
 1273              		@ link register save eliminated.
 811:../../Drivers/STM32N6xx_HAL_Driver/Src/stm32n6xx_hal.c ****   CLEAR_BIT(SYSCFG->CM55TCMCR, SYSCFG_CM55TCMCR_ITCMWSDISABLE);
 1274              		.loc 1 811 3 view .LVU243
 1275 0000 024A     		ldr	r2, .L121
 1276 0002 9368     		ldr	r3, [r2, #8]
 1277 0004 23F40003 		bic	r3, r3, #8388608
 1278 0008 9360     		str	r3, [r2, #8]
 812:../../Drivers/STM32N6xx_HAL_Driver/Src/stm32n6xx_hal.c **** }
 1279              		.loc 1 812 1 is_stmt 0 view .LVU244
 1280 000a 7047     		bx	lr
 1281              	.L122:
 1282              		.align	2
ARM GAS  C:\Users\SMART\AppData\Local\Temp\ccwDMaLv.s 			page 38


 1283              	.L121:
 1284 000c 00800056 		.word	1442873344
 1285              		.cfi_endproc
 1286              	.LFE896:
 1288              		.section	.text.HAL_SYSCFG_EnableDTCMWaiteState,"ax",%progbits
 1289              		.align	1
 1290              		.global	HAL_SYSCFG_EnableDTCMWaiteState
 1291              		.syntax unified
 1292              		.thumb
 1293              		.thumb_func
 1295              	HAL_SYSCFG_EnableDTCMWaiteState:
 1296              	.LFB897:
 813:../../Drivers/STM32N6xx_HAL_Driver/Src/stm32n6xx_hal.c **** 
 814:../../Drivers/STM32N6xx_HAL_Driver/Src/stm32n6xx_hal.c **** /**
 815:../../Drivers/STM32N6xx_HAL_Driver/Src/stm32n6xx_hal.c ****   * @brief  Enable the DTCM Wait State.
 816:../../Drivers/STM32N6xx_HAL_Driver/Src/stm32n6xx_hal.c ****   * @retval None
 817:../../Drivers/STM32N6xx_HAL_Driver/Src/stm32n6xx_hal.c ****   */
 818:../../Drivers/STM32N6xx_HAL_Driver/Src/stm32n6xx_hal.c **** void HAL_SYSCFG_EnableDTCMWaiteState(void)
 819:../../Drivers/STM32N6xx_HAL_Driver/Src/stm32n6xx_hal.c **** {
 1297              		.loc 1 819 1 is_stmt 1 view -0
 1298              		.cfi_startproc
 1299              		@ args = 0, pretend = 0, frame = 0
 1300              		@ frame_needed = 0, uses_anonymous_args = 0
 1301              		@ link register save eliminated.
 820:../../Drivers/STM32N6xx_HAL_Driver/Src/stm32n6xx_hal.c ****   SET_BIT(SYSCFG->CM55TCMCR, SYSCFG_CM55TCMCR_DTCMWSDISABLE);
 1302              		.loc 1 820 3 view .LVU246
 1303 0000 024A     		ldr	r2, .L124
 1304 0002 9368     		ldr	r3, [r2, #8]
 1305 0004 43F08073 		orr	r3, r3, #16777216
 1306 0008 9360     		str	r3, [r2, #8]
 821:../../Drivers/STM32N6xx_HAL_Driver/Src/stm32n6xx_hal.c **** }
 1307              		.loc 1 821 1 is_stmt 0 view .LVU247
 1308 000a 7047     		bx	lr
 1309              	.L125:
 1310              		.align	2
 1311              	.L124:
 1312 000c 00800056 		.word	1442873344
 1313              		.cfi_endproc
 1314              	.LFE897:
 1316              		.section	.text.HAL_SYSCFG_DisableDTCMWaiteState,"ax",%progbits
 1317              		.align	1
 1318              		.global	HAL_SYSCFG_DisableDTCMWaiteState
 1319              		.syntax unified
 1320              		.thumb
 1321              		.thumb_func
 1323              	HAL_SYSCFG_DisableDTCMWaiteState:
 1324              	.LFB898:
 822:../../Drivers/STM32N6xx_HAL_Driver/Src/stm32n6xx_hal.c **** 
 823:../../Drivers/STM32N6xx_HAL_Driver/Src/stm32n6xx_hal.c **** /**
 824:../../Drivers/STM32N6xx_HAL_Driver/Src/stm32n6xx_hal.c ****   * @brief  Disable the DTCM Wait State.
 825:../../Drivers/STM32N6xx_HAL_Driver/Src/stm32n6xx_hal.c ****   * @retval None
 826:../../Drivers/STM32N6xx_HAL_Driver/Src/stm32n6xx_hal.c ****   */
 827:../../Drivers/STM32N6xx_HAL_Driver/Src/stm32n6xx_hal.c **** void HAL_SYSCFG_DisableDTCMWaiteState(void)
 828:../../Drivers/STM32N6xx_HAL_Driver/Src/stm32n6xx_hal.c **** {
 1325              		.loc 1 828 1 is_stmt 1 view -0
 1326              		.cfi_startproc
 1327              		@ args = 0, pretend = 0, frame = 0
ARM GAS  C:\Users\SMART\AppData\Local\Temp\ccwDMaLv.s 			page 39


 1328              		@ frame_needed = 0, uses_anonymous_args = 0
 1329              		@ link register save eliminated.
 829:../../Drivers/STM32N6xx_HAL_Driver/Src/stm32n6xx_hal.c ****   CLEAR_BIT(SYSCFG->CM55TCMCR, SYSCFG_CM55TCMCR_DTCMWSDISABLE);
 1330              		.loc 1 829 3 view .LVU249
 1331 0000 024A     		ldr	r2, .L127
 1332 0002 9368     		ldr	r3, [r2, #8]
 1333 0004 23F08073 		bic	r3, r3, #16777216
 1334 0008 9360     		str	r3, [r2, #8]
 830:../../Drivers/STM32N6xx_HAL_Driver/Src/stm32n6xx_hal.c **** }
 1335              		.loc 1 830 1 is_stmt 0 view .LVU250
 1336 000a 7047     		bx	lr
 1337              	.L128:
 1338              		.align	2
 1339              	.L127:
 1340 000c 00800056 		.word	1442873344
 1341              		.cfi_endproc
 1342              	.LFE898:
 1344              		.section	.text.HAL_SYSCFG_EnableTCMExternalMargin,"ax",%progbits
 1345              		.align	1
 1346              		.global	HAL_SYSCFG_EnableTCMExternalMargin
 1347              		.syntax unified
 1348              		.thumb
 1349              		.thumb_func
 1351              	HAL_SYSCFG_EnableTCMExternalMargin:
 1352              	.LFB899:
 831:../../Drivers/STM32N6xx_HAL_Driver/Src/stm32n6xx_hal.c **** 
 832:../../Drivers/STM32N6xx_HAL_Driver/Src/stm32n6xx_hal.c **** /**
 833:../../Drivers/STM32N6xx_HAL_Driver/Src/stm32n6xx_hal.c ****   * @brief  Enable external RW margin inputs for TCM memories
 834:../../Drivers/STM32N6xx_HAL_Driver/Src/stm32n6xx_hal.c ****   * @retval None
 835:../../Drivers/STM32N6xx_HAL_Driver/Src/stm32n6xx_hal.c ****   */
 836:../../Drivers/STM32N6xx_HAL_Driver/Src/stm32n6xx_hal.c **** void HAL_SYSCFG_EnableTCMExternalMargin(void)
 837:../../Drivers/STM32N6xx_HAL_Driver/Src/stm32n6xx_hal.c **** {
 1353              		.loc 1 837 1 is_stmt 1 view -0
 1354              		.cfi_startproc
 1355              		@ args = 0, pretend = 0, frame = 0
 1356              		@ frame_needed = 0, uses_anonymous_args = 0
 1357              		@ link register save eliminated.
 838:../../Drivers/STM32N6xx_HAL_Driver/Src/stm32n6xx_hal.c ****   SET_BIT(SYSCFG->CM55RWMCR, SYSCFG_CM55RWMCR_RME_TCM);
 1358              		.loc 1 838 3 view .LVU252
 1359 0000 024A     		ldr	r2, .L130
 1360 0002 D368     		ldr	r3, [r2, #12]
 1361 0004 43F00103 		orr	r3, r3, #1
 1362 0008 D360     		str	r3, [r2, #12]
 839:../../Drivers/STM32N6xx_HAL_Driver/Src/stm32n6xx_hal.c **** }
 1363              		.loc 1 839 1 is_stmt 0 view .LVU253
 1364 000a 7047     		bx	lr
 1365              	.L131:
 1366              		.align	2
 1367              	.L130:
 1368 000c 00800056 		.word	1442873344
 1369              		.cfi_endproc
 1370              	.LFE899:
 1372              		.section	.text.HAL_SYSCFG_DisableTCMExternalMargin,"ax",%progbits
 1373              		.align	1
 1374              		.global	HAL_SYSCFG_DisableTCMExternalMargin
 1375              		.syntax unified
 1376              		.thumb
ARM GAS  C:\Users\SMART\AppData\Local\Temp\ccwDMaLv.s 			page 40


 1377              		.thumb_func
 1379              	HAL_SYSCFG_DisableTCMExternalMargin:
 1380              	.LFB900:
 840:../../Drivers/STM32N6xx_HAL_Driver/Src/stm32n6xx_hal.c **** 
 841:../../Drivers/STM32N6xx_HAL_Driver/Src/stm32n6xx_hal.c **** /**
 842:../../Drivers/STM32N6xx_HAL_Driver/Src/stm32n6xx_hal.c ****   * @brief  Disable external RW margin inputs for TCM memories
 843:../../Drivers/STM32N6xx_HAL_Driver/Src/stm32n6xx_hal.c ****   * @retval None
 844:../../Drivers/STM32N6xx_HAL_Driver/Src/stm32n6xx_hal.c ****   */
 845:../../Drivers/STM32N6xx_HAL_Driver/Src/stm32n6xx_hal.c **** void HAL_SYSCFG_DisableTCMExternalMargin(void)
 846:../../Drivers/STM32N6xx_HAL_Driver/Src/stm32n6xx_hal.c **** {
 1381              		.loc 1 846 1 is_stmt 1 view -0
 1382              		.cfi_startproc
 1383              		@ args = 0, pretend = 0, frame = 0
 1384              		@ frame_needed = 0, uses_anonymous_args = 0
 1385              		@ link register save eliminated.
 847:../../Drivers/STM32N6xx_HAL_Driver/Src/stm32n6xx_hal.c ****   CLEAR_BIT(SYSCFG->CM55RWMCR, SYSCFG_CM55RWMCR_RME_TCM);
 1386              		.loc 1 847 3 view .LVU255
 1387 0000 024A     		ldr	r2, .L133
 1388 0002 D368     		ldr	r3, [r2, #12]
 1389 0004 23F00103 		bic	r3, r3, #1
 1390 0008 D360     		str	r3, [r2, #12]
 848:../../Drivers/STM32N6xx_HAL_Driver/Src/stm32n6xx_hal.c **** }
 1391              		.loc 1 848 1 is_stmt 0 view .LVU256
 1392 000a 7047     		bx	lr
 1393              	.L134:
 1394              		.align	2
 1395              	.L133:
 1396 000c 00800056 		.word	1442873344
 1397              		.cfi_endproc
 1398              	.LFE900:
 1400              		.section	.text.HAL_SYSCFG_SetTCMRWMarginInput,"ax",%progbits
 1401              		.align	1
 1402              		.global	HAL_SYSCFG_SetTCMRWMarginInput
 1403              		.syntax unified
 1404              		.thumb
 1405              		.thumb_func
 1407              	HAL_SYSCFG_SetTCMRWMarginInput:
 1408              	.LVL46:
 1409              	.LFB901:
 849:../../Drivers/STM32N6xx_HAL_Driver/Src/stm32n6xx_hal.c **** 
 850:../../Drivers/STM32N6xx_HAL_Driver/Src/stm32n6xx_hal.c **** /**
 851:../../Drivers/STM32N6xx_HAL_Driver/Src/stm32n6xx_hal.c ****   * @brief  Set external RW margin inputs for TCM memories.
 852:../../Drivers/STM32N6xx_HAL_Driver/Src/stm32n6xx_hal.c ****   * @param  TcmRwMarginInput Input Margin.
 853:../../Drivers/STM32N6xx_HAL_Driver/Src/stm32n6xx_hal.c ****   * @retval None
 854:../../Drivers/STM32N6xx_HAL_Driver/Src/stm32n6xx_hal.c ****   */
 855:../../Drivers/STM32N6xx_HAL_Driver/Src/stm32n6xx_hal.c **** void HAL_SYSCFG_SetTCMRWMarginInput(uint32_t TcmRwMarginInput)
 856:../../Drivers/STM32N6xx_HAL_Driver/Src/stm32n6xx_hal.c **** {
 1410              		.loc 1 856 1 is_stmt 1 view -0
 1411              		.cfi_startproc
 1412              		@ args = 0, pretend = 0, frame = 0
 1413              		@ frame_needed = 0, uses_anonymous_args = 0
 1414              		@ link register save eliminated.
 857:../../Drivers/STM32N6xx_HAL_Driver/Src/stm32n6xx_hal.c ****   assert_param(IS_TCM_MARGIN_INPUT(TcmRwMarginInput));
 1415              		.loc 1 857 3 view .LVU258
 858:../../Drivers/STM32N6xx_HAL_Driver/Src/stm32n6xx_hal.c **** 
 859:../../Drivers/STM32N6xx_HAL_Driver/Src/stm32n6xx_hal.c ****   MODIFY_REG(SYSCFG->CM55RWMCR, SYSCFG_CM55RWMCR_RM_TCM, (TcmRwMarginInput << 1U));
 1416              		.loc 1 859 3 view .LVU259
ARM GAS  C:\Users\SMART\AppData\Local\Temp\ccwDMaLv.s 			page 41


 1417 0000 034A     		ldr	r2, .L136
 1418 0002 D368     		ldr	r3, [r2, #12]
 1419 0004 23F01E03 		bic	r3, r3, #30
 1420 0008 43EA4003 		orr	r3, r3, r0, lsl #1
 1421 000c D360     		str	r3, [r2, #12]
 860:../../Drivers/STM32N6xx_HAL_Driver/Src/stm32n6xx_hal.c **** }
 1422              		.loc 1 860 1 is_stmt 0 view .LVU260
 1423 000e 7047     		bx	lr
 1424              	.L137:
 1425              		.align	2
 1426              	.L136:
 1427 0010 00800056 		.word	1442873344
 1428              		.cfi_endproc
 1429              	.LFE901:
 1431              		.section	.text.HAL_SYSCFG_GetTCMRWMarginInput,"ax",%progbits
 1432              		.align	1
 1433              		.global	HAL_SYSCFG_GetTCMRWMarginInput
 1434              		.syntax unified
 1435              		.thumb
 1436              		.thumb_func
 1438              	HAL_SYSCFG_GetTCMRWMarginInput:
 1439              	.LVL47:
 1440              	.LFB902:
 861:../../Drivers/STM32N6xx_HAL_Driver/Src/stm32n6xx_hal.c **** 
 862:../../Drivers/STM32N6xx_HAL_Driver/Src/stm32n6xx_hal.c **** /**
 863:../../Drivers/STM32N6xx_HAL_Driver/Src/stm32n6xx_hal.c ****   * @brief  Get the External RW margin inputs for TCM memories.
 864:../../Drivers/STM32N6xx_HAL_Driver/Src/stm32n6xx_hal.c ****   * @param  pTcmRwMarginInput pointer to return Input Margin.
 865:../../Drivers/STM32N6xx_HAL_Driver/Src/stm32n6xx_hal.c ****   * @retval HAL status.
 866:../../Drivers/STM32N6xx_HAL_Driver/Src/stm32n6xx_hal.c ****   */
 867:../../Drivers/STM32N6xx_HAL_Driver/Src/stm32n6xx_hal.c **** HAL_StatusTypeDef HAL_SYSCFG_GetTCMRWMarginInput(uint32_t *pTcmRwMarginInput)
 868:../../Drivers/STM32N6xx_HAL_Driver/Src/stm32n6xx_hal.c **** {
 1441              		.loc 1 868 1 is_stmt 1 view -0
 1442              		.cfi_startproc
 1443              		@ args = 0, pretend = 0, frame = 0
 1444              		@ frame_needed = 0, uses_anonymous_args = 0
 1445              		@ link register save eliminated.
 869:../../Drivers/STM32N6xx_HAL_Driver/Src/stm32n6xx_hal.c ****   /* Check null pointer */
 870:../../Drivers/STM32N6xx_HAL_Driver/Src/stm32n6xx_hal.c ****   if (pTcmRwMarginInput == NULL)
 1446              		.loc 1 870 3 view .LVU262
 1447              		.loc 1 870 6 is_stmt 0 view .LVU263
 1448 0000 30B1     		cbz	r0, .L140
 871:../../Drivers/STM32N6xx_HAL_Driver/Src/stm32n6xx_hal.c ****   {
 872:../../Drivers/STM32N6xx_HAL_Driver/Src/stm32n6xx_hal.c ****     return HAL_ERROR;
 873:../../Drivers/STM32N6xx_HAL_Driver/Src/stm32n6xx_hal.c ****   }
 874:../../Drivers/STM32N6xx_HAL_Driver/Src/stm32n6xx_hal.c **** 
 875:../../Drivers/STM32N6xx_HAL_Driver/Src/stm32n6xx_hal.c ****   /* Get the non-secure lock state */
 876:../../Drivers/STM32N6xx_HAL_Driver/Src/stm32n6xx_hal.c ****   *pTcmRwMarginInput = (READ_BIT(SYSCFG->CM55RWMCR, SYSCFG_CM55RWMCR_RM_TCM) >> 1U);
 1449              		.loc 1 876 3 is_stmt 1 view .LVU264
 1450              		.loc 1 876 25 is_stmt 0 view .LVU265
 1451 0002 044B     		ldr	r3, .L141
 1452 0004 DB68     		ldr	r3, [r3, #12]
 1453              		.loc 1 876 78 view .LVU266
 1454 0006 C3F34303 		ubfx	r3, r3, #1, #4
 1455              		.loc 1 876 22 view .LVU267
 1456 000a 0360     		str	r3, [r0]
 877:../../Drivers/STM32N6xx_HAL_Driver/Src/stm32n6xx_hal.c **** 
 878:../../Drivers/STM32N6xx_HAL_Driver/Src/stm32n6xx_hal.c ****   return HAL_OK;
ARM GAS  C:\Users\SMART\AppData\Local\Temp\ccwDMaLv.s 			page 42


 1457              		.loc 1 878 3 is_stmt 1 view .LVU268
 1458              		.loc 1 878 10 is_stmt 0 view .LVU269
 1459 000c 0020     		movs	r0, #0
 1460              	.LVL48:
 1461              		.loc 1 878 10 view .LVU270
 1462 000e 7047     		bx	lr
 1463              	.LVL49:
 1464              	.L140:
 872:../../Drivers/STM32N6xx_HAL_Driver/Src/stm32n6xx_hal.c ****   }
 1465              		.loc 1 872 12 view .LVU271
 1466 0010 0120     		movs	r0, #1
 1467              	.LVL50:
 879:../../Drivers/STM32N6xx_HAL_Driver/Src/stm32n6xx_hal.c **** }
 1468              		.loc 1 879 1 view .LVU272
 1469 0012 7047     		bx	lr
 1470              	.L142:
 1471              		.align	2
 1472              	.L141:
 1473 0014 00800056 		.word	1442873344
 1474              		.cfi_endproc
 1475              	.LFE902:
 1477              		.section	.text.HAL_SYSCFG_SetTCMBiasingLevel,"ax",%progbits
 1478              		.align	1
 1479              		.global	HAL_SYSCFG_SetTCMBiasingLevel
 1480              		.syntax unified
 1481              		.thumb
 1482              		.thumb_func
 1484              	HAL_SYSCFG_SetTCMBiasingLevel:
 1485              	.LVL51:
 1486              	.LFB903:
 880:../../Drivers/STM32N6xx_HAL_Driver/Src/stm32n6xx_hal.c **** 
 881:../../Drivers/STM32N6xx_HAL_Driver/Src/stm32n6xx_hal.c **** /**
 882:../../Drivers/STM32N6xx_HAL_Driver/Src/stm32n6xx_hal.c ****   * @brief  Set the TCM biasing level adjust input.
 883:../../Drivers/STM32N6xx_HAL_Driver/Src/stm32n6xx_hal.c ****   * @param  Level Biaising level adjust input
 884:../../Drivers/STM32N6xx_HAL_Driver/Src/stm32n6xx_hal.c ****   *         This parameter can one of the following values:
 885:../../Drivers/STM32N6xx_HAL_Driver/Src/stm32n6xx_hal.c ****   *            @arg SYSCFG_TCM_BIAS_VNOM : Biasing level adjust input recommended for Vnom
 886:../../Drivers/STM32N6xx_HAL_Driver/Src/stm32n6xx_hal.c ****   *            @arg SYSCFG_TCM_BIAS_VNOM_10_PERCENT : Biasing level adjust input recommended for Vn
 887:../../Drivers/STM32N6xx_HAL_Driver/Src/stm32n6xx_hal.c ****   * @retval None
 888:../../Drivers/STM32N6xx_HAL_Driver/Src/stm32n6xx_hal.c ****   */
 889:../../Drivers/STM32N6xx_HAL_Driver/Src/stm32n6xx_hal.c **** void HAL_SYSCFG_SetTCMBiasingLevel(uint32_t Level)
 890:../../Drivers/STM32N6xx_HAL_Driver/Src/stm32n6xx_hal.c **** {
 1487              		.loc 1 890 1 is_stmt 1 view -0
 1488              		.cfi_startproc
 1489              		@ args = 0, pretend = 0, frame = 0
 1490              		@ frame_needed = 0, uses_anonymous_args = 0
 1491              		@ link register save eliminated.
 891:../../Drivers/STM32N6xx_HAL_Driver/Src/stm32n6xx_hal.c ****   /* Check the parameters */
 892:../../Drivers/STM32N6xx_HAL_Driver/Src/stm32n6xx_hal.c ****   assert_param(IS_SYSCFG_TCM_BIASING_LEVEL(Level));
 1492              		.loc 1 892 3 view .LVU274
 893:../../Drivers/STM32N6xx_HAL_Driver/Src/stm32n6xx_hal.c **** 
 894:../../Drivers/STM32N6xx_HAL_Driver/Src/stm32n6xx_hal.c ****   MODIFY_REG(SYSCFG->CM55RWMCR, SYSCFG_CM55RWMCR_BC2_TCM | SYSCFG_CM55RWMCR_BC1_TCM, Level);
 1493              		.loc 1 894 3 view .LVU275
 1494 0000 034A     		ldr	r2, .L144
 1495 0002 D368     		ldr	r3, [r2, #12]
 1496 0004 23F06003 		bic	r3, r3, #96
 1497 0008 0343     		orrs	r3, r3, r0
 1498 000a D360     		str	r3, [r2, #12]
ARM GAS  C:\Users\SMART\AppData\Local\Temp\ccwDMaLv.s 			page 43


 895:../../Drivers/STM32N6xx_HAL_Driver/Src/stm32n6xx_hal.c **** }
 1499              		.loc 1 895 1 is_stmt 0 view .LVU276
 1500 000c 7047     		bx	lr
 1501              	.L145:
 1502 000e 00BF     		.align	2
 1503              	.L144:
 1504 0010 00800056 		.word	1442873344
 1505              		.cfi_endproc
 1506              	.LFE903:
 1508              		.section	.text.HAL_SYSCFG_GetTCMBiasingLevel,"ax",%progbits
 1509              		.align	1
 1510              		.global	HAL_SYSCFG_GetTCMBiasingLevel
 1511              		.syntax unified
 1512              		.thumb
 1513              		.thumb_func
 1515              	HAL_SYSCFG_GetTCMBiasingLevel:
 1516              	.LVL52:
 1517              	.LFB904:
 896:../../Drivers/STM32N6xx_HAL_Driver/Src/stm32n6xx_hal.c **** 
 897:../../Drivers/STM32N6xx_HAL_Driver/Src/stm32n6xx_hal.c **** /**
 898:../../Drivers/STM32N6xx_HAL_Driver/Src/stm32n6xx_hal.c ****   * @brief  Get the TCM biasing level adjust input.
 899:../../Drivers/STM32N6xx_HAL_Driver/Src/stm32n6xx_hal.c ****   * @param  pLevel Pointer to return biasing level adjust input.
 900:../../Drivers/STM32N6xx_HAL_Driver/Src/stm32n6xx_hal.c ****   *         The return value can be one of the following values:
 901:../../Drivers/STM32N6xx_HAL_Driver/Src/stm32n6xx_hal.c ****   *            @arg SYSCFG_CACHE_BIAS_VNOM boot 0 pin: Biasing level adjust input recommended for V
 902:../../Drivers/STM32N6xx_HAL_Driver/Src/stm32n6xx_hal.c ****   *            @arg SYSCFG_CACHE_BIAS_VNOM_10_PERCENT: Biasing level adjust input recommended for V
 903:../../Drivers/STM32N6xx_HAL_Driver/Src/stm32n6xx_hal.c ****   * @retval HAL status
 904:../../Drivers/STM32N6xx_HAL_Driver/Src/stm32n6xx_hal.c ****   */
 905:../../Drivers/STM32N6xx_HAL_Driver/Src/stm32n6xx_hal.c **** HAL_StatusTypeDef HAL_SYSCFG_GetTCMBiasingLevel(uint32_t *pLevel)
 906:../../Drivers/STM32N6xx_HAL_Driver/Src/stm32n6xx_hal.c **** {
 1518              		.loc 1 906 1 is_stmt 1 view -0
 1519              		.cfi_startproc
 1520              		@ args = 0, pretend = 0, frame = 0
 1521              		@ frame_needed = 0, uses_anonymous_args = 0
 1522              		@ link register save eliminated.
 907:../../Drivers/STM32N6xx_HAL_Driver/Src/stm32n6xx_hal.c ****   /* Check null pointer */
 908:../../Drivers/STM32N6xx_HAL_Driver/Src/stm32n6xx_hal.c ****   if (pLevel == NULL)
 1523              		.loc 1 908 3 view .LVU278
 1524              		.loc 1 908 6 is_stmt 0 view .LVU279
 1525 0000 30B1     		cbz	r0, .L148
 909:../../Drivers/STM32N6xx_HAL_Driver/Src/stm32n6xx_hal.c ****   {
 910:../../Drivers/STM32N6xx_HAL_Driver/Src/stm32n6xx_hal.c ****     return HAL_ERROR;
 911:../../Drivers/STM32N6xx_HAL_Driver/Src/stm32n6xx_hal.c ****   }
 912:../../Drivers/STM32N6xx_HAL_Driver/Src/stm32n6xx_hal.c **** 
 913:../../Drivers/STM32N6xx_HAL_Driver/Src/stm32n6xx_hal.c ****   /* Get the non-secure lock state */
 914:../../Drivers/STM32N6xx_HAL_Driver/Src/stm32n6xx_hal.c ****   *pLevel = READ_BIT(SYSCFG->CM55RWMCR, SYSCFG_CM55RWMCR_BC2_TCM | SYSCFG_CM55RWMCR_BC1_TCM);
 1526              		.loc 1 914 3 is_stmt 1 view .LVU280
 1527              		.loc 1 914 13 is_stmt 0 view .LVU281
 1528 0002 044B     		ldr	r3, .L149
 1529 0004 DB68     		ldr	r3, [r3, #12]
 1530 0006 03F06003 		and	r3, r3, #96
 1531              		.loc 1 914 11 view .LVU282
 1532 000a 0360     		str	r3, [r0]
 915:../../Drivers/STM32N6xx_HAL_Driver/Src/stm32n6xx_hal.c **** 
 916:../../Drivers/STM32N6xx_HAL_Driver/Src/stm32n6xx_hal.c ****   return HAL_OK;
 1533              		.loc 1 916 3 is_stmt 1 view .LVU283
 1534              		.loc 1 916 10 is_stmt 0 view .LVU284
 1535 000c 0020     		movs	r0, #0
ARM GAS  C:\Users\SMART\AppData\Local\Temp\ccwDMaLv.s 			page 44


 1536              	.LVL53:
 1537              		.loc 1 916 10 view .LVU285
 1538 000e 7047     		bx	lr
 1539              	.LVL54:
 1540              	.L148:
 910:../../Drivers/STM32N6xx_HAL_Driver/Src/stm32n6xx_hal.c ****   }
 1541              		.loc 1 910 12 view .LVU286
 1542 0010 0120     		movs	r0, #1
 1543              	.LVL55:
 917:../../Drivers/STM32N6xx_HAL_Driver/Src/stm32n6xx_hal.c **** }
 1544              		.loc 1 917 1 view .LVU287
 1545 0012 7047     		bx	lr
 1546              	.L150:
 1547              		.align	2
 1548              	.L149:
 1549 0014 00800056 		.word	1442873344
 1550              		.cfi_endproc
 1551              	.LFE904:
 1553              		.section	.text.HAL_SYSCFG_EnableCacheExternalMargin,"ax",%progbits
 1554              		.align	1
 1555              		.global	HAL_SYSCFG_EnableCacheExternalMargin
 1556              		.syntax unified
 1557              		.thumb
 1558              		.thumb_func
 1560              	HAL_SYSCFG_EnableCacheExternalMargin:
 1561              	.LFB905:
 918:../../Drivers/STM32N6xx_HAL_Driver/Src/stm32n6xx_hal.c **** 
 919:../../Drivers/STM32N6xx_HAL_Driver/Src/stm32n6xx_hal.c **** /**
 920:../../Drivers/STM32N6xx_HAL_Driver/Src/stm32n6xx_hal.c ****   * @brief  Enable external RW margin inputs for Cache memories
 921:../../Drivers/STM32N6xx_HAL_Driver/Src/stm32n6xx_hal.c ****   * @retval None
 922:../../Drivers/STM32N6xx_HAL_Driver/Src/stm32n6xx_hal.c ****   */
 923:../../Drivers/STM32N6xx_HAL_Driver/Src/stm32n6xx_hal.c **** void HAL_SYSCFG_EnableCacheExternalMargin(void)
 924:../../Drivers/STM32N6xx_HAL_Driver/Src/stm32n6xx_hal.c **** {
 1562              		.loc 1 924 1 is_stmt 1 view -0
 1563              		.cfi_startproc
 1564              		@ args = 0, pretend = 0, frame = 0
 1565              		@ frame_needed = 0, uses_anonymous_args = 0
 1566              		@ link register save eliminated.
 925:../../Drivers/STM32N6xx_HAL_Driver/Src/stm32n6xx_hal.c ****   SET_BIT(SYSCFG->CM55RWMCR, SYSCFG_CM55RWMCR_RME_CACHE);
 1567              		.loc 1 925 3 view .LVU289
 1568 0000 024A     		ldr	r2, .L152
 1569 0002 D368     		ldr	r3, [r2, #12]
 1570 0004 43F08003 		orr	r3, r3, #128
 1571 0008 D360     		str	r3, [r2, #12]
 926:../../Drivers/STM32N6xx_HAL_Driver/Src/stm32n6xx_hal.c **** }
 1572              		.loc 1 926 1 is_stmt 0 view .LVU290
 1573 000a 7047     		bx	lr
 1574              	.L153:
 1575              		.align	2
 1576              	.L152:
 1577 000c 00800056 		.word	1442873344
 1578              		.cfi_endproc
 1579              	.LFE905:
 1581              		.section	.text.HAL_SYSCFG_DisableCacheExternalMargin,"ax",%progbits
 1582              		.align	1
 1583              		.global	HAL_SYSCFG_DisableCacheExternalMargin
 1584              		.syntax unified
ARM GAS  C:\Users\SMART\AppData\Local\Temp\ccwDMaLv.s 			page 45


 1585              		.thumb
 1586              		.thumb_func
 1588              	HAL_SYSCFG_DisableCacheExternalMargin:
 1589              	.LFB906:
 927:../../Drivers/STM32N6xx_HAL_Driver/Src/stm32n6xx_hal.c **** 
 928:../../Drivers/STM32N6xx_HAL_Driver/Src/stm32n6xx_hal.c **** /**
 929:../../Drivers/STM32N6xx_HAL_Driver/Src/stm32n6xx_hal.c ****   * @brief  Disable external RW margin inputs for Cache memories
 930:../../Drivers/STM32N6xx_HAL_Driver/Src/stm32n6xx_hal.c ****   * @retval None
 931:../../Drivers/STM32N6xx_HAL_Driver/Src/stm32n6xx_hal.c ****   */
 932:../../Drivers/STM32N6xx_HAL_Driver/Src/stm32n6xx_hal.c **** void HAL_SYSCFG_DisableCacheExternalMargin(void)
 933:../../Drivers/STM32N6xx_HAL_Driver/Src/stm32n6xx_hal.c **** {
 1590              		.loc 1 933 1 is_stmt 1 view -0
 1591              		.cfi_startproc
 1592              		@ args = 0, pretend = 0, frame = 0
 1593              		@ frame_needed = 0, uses_anonymous_args = 0
 1594              		@ link register save eliminated.
 934:../../Drivers/STM32N6xx_HAL_Driver/Src/stm32n6xx_hal.c ****   CLEAR_BIT(SYSCFG->CM55RWMCR, SYSCFG_CM55RWMCR_RME_CACHE);
 1595              		.loc 1 934 3 view .LVU292
 1596 0000 024A     		ldr	r2, .L155
 1597 0002 D368     		ldr	r3, [r2, #12]
 1598 0004 23F08003 		bic	r3, r3, #128
 1599 0008 D360     		str	r3, [r2, #12]
 935:../../Drivers/STM32N6xx_HAL_Driver/Src/stm32n6xx_hal.c **** }
 1600              		.loc 1 935 1 is_stmt 0 view .LVU293
 1601 000a 7047     		bx	lr
 1602              	.L156:
 1603              		.align	2
 1604              	.L155:
 1605 000c 00800056 		.word	1442873344
 1606              		.cfi_endproc
 1607              	.LFE906:
 1609              		.section	.text.HAL_SYSCFG_SetCacheRWMarginInput,"ax",%progbits
 1610              		.align	1
 1611              		.global	HAL_SYSCFG_SetCacheRWMarginInput
 1612              		.syntax unified
 1613              		.thumb
 1614              		.thumb_func
 1616              	HAL_SYSCFG_SetCacheRWMarginInput:
 1617              	.LVL56:
 1618              	.LFB907:
 936:../../Drivers/STM32N6xx_HAL_Driver/Src/stm32n6xx_hal.c **** 
 937:../../Drivers/STM32N6xx_HAL_Driver/Src/stm32n6xx_hal.c **** /**
 938:../../Drivers/STM32N6xx_HAL_Driver/Src/stm32n6xx_hal.c ****   * @brief  Set External RW margin inputs for Cache memories.
 939:../../Drivers/STM32N6xx_HAL_Driver/Src/stm32n6xx_hal.c ****   * @param  CacheRWMarginInput Input Margin.
 940:../../Drivers/STM32N6xx_HAL_Driver/Src/stm32n6xx_hal.c ****   * @retval None
 941:../../Drivers/STM32N6xx_HAL_Driver/Src/stm32n6xx_hal.c ****   */
 942:../../Drivers/STM32N6xx_HAL_Driver/Src/stm32n6xx_hal.c **** void HAL_SYSCFG_SetCacheRWMarginInput(uint32_t CacheRWMarginInput)
 943:../../Drivers/STM32N6xx_HAL_Driver/Src/stm32n6xx_hal.c **** {
 1619              		.loc 1 943 1 is_stmt 1 view -0
 1620              		.cfi_startproc
 1621              		@ args = 0, pretend = 0, frame = 0
 1622              		@ frame_needed = 0, uses_anonymous_args = 0
 1623              		@ link register save eliminated.
 944:../../Drivers/STM32N6xx_HAL_Driver/Src/stm32n6xx_hal.c ****   assert_param(IS_TCM_MARGIN_INPUT(CacheRWMarginInput));
 1624              		.loc 1 944 3 view .LVU295
 945:../../Drivers/STM32N6xx_HAL_Driver/Src/stm32n6xx_hal.c **** 
 946:../../Drivers/STM32N6xx_HAL_Driver/Src/stm32n6xx_hal.c ****   MODIFY_REG(SYSCFG->CM55RWMCR, SYSCFG_CM55RWMCR_RM_CACHE, (CacheRWMarginInput << 8U));
ARM GAS  C:\Users\SMART\AppData\Local\Temp\ccwDMaLv.s 			page 46


 1625              		.loc 1 946 3 view .LVU296
 1626 0000 034A     		ldr	r2, .L158
 1627 0002 D368     		ldr	r3, [r2, #12]
 1628 0004 23F47063 		bic	r3, r3, #3840
 1629 0008 43EA0023 		orr	r3, r3, r0, lsl #8
 1630 000c D360     		str	r3, [r2, #12]
 947:../../Drivers/STM32N6xx_HAL_Driver/Src/stm32n6xx_hal.c **** }
 1631              		.loc 1 947 1 is_stmt 0 view .LVU297
 1632 000e 7047     		bx	lr
 1633              	.L159:
 1634              		.align	2
 1635              	.L158:
 1636 0010 00800056 		.word	1442873344
 1637              		.cfi_endproc
 1638              	.LFE907:
 1640              		.section	.text.HAL_SYSCFG_GetCacheRWMarginInput,"ax",%progbits
 1641              		.align	1
 1642              		.global	HAL_SYSCFG_GetCacheRWMarginInput
 1643              		.syntax unified
 1644              		.thumb
 1645              		.thumb_func
 1647              	HAL_SYSCFG_GetCacheRWMarginInput:
 1648              	.LVL57:
 1649              	.LFB908:
 948:../../Drivers/STM32N6xx_HAL_Driver/Src/stm32n6xx_hal.c **** 
 949:../../Drivers/STM32N6xx_HAL_Driver/Src/stm32n6xx_hal.c **** /**
 950:../../Drivers/STM32N6xx_HAL_Driver/Src/stm32n6xx_hal.c ****   * @brief  Get the External RW margin inputs for Cache memories.
 951:../../Drivers/STM32N6xx_HAL_Driver/Src/stm32n6xx_hal.c ****   * @param  pCacheRWMarginInput Pointer to return Input Margin.
 952:../../Drivers/STM32N6xx_HAL_Driver/Src/stm32n6xx_hal.c ****   * @retval HAL status
 953:../../Drivers/STM32N6xx_HAL_Driver/Src/stm32n6xx_hal.c ****   */
 954:../../Drivers/STM32N6xx_HAL_Driver/Src/stm32n6xx_hal.c **** HAL_StatusTypeDef HAL_SYSCFG_GetCacheRWMarginInput(uint32_t *pCacheRWMarginInput)
 955:../../Drivers/STM32N6xx_HAL_Driver/Src/stm32n6xx_hal.c **** {
 1650              		.loc 1 955 1 is_stmt 1 view -0
 1651              		.cfi_startproc
 1652              		@ args = 0, pretend = 0, frame = 0
 1653              		@ frame_needed = 0, uses_anonymous_args = 0
 1654              		@ link register save eliminated.
 956:../../Drivers/STM32N6xx_HAL_Driver/Src/stm32n6xx_hal.c ****   /* Check null pointer */
 957:../../Drivers/STM32N6xx_HAL_Driver/Src/stm32n6xx_hal.c ****   if (pCacheRWMarginInput == NULL)
 1655              		.loc 1 957 3 view .LVU299
 1656              		.loc 1 957 6 is_stmt 0 view .LVU300
 1657 0000 30B1     		cbz	r0, .L162
 958:../../Drivers/STM32N6xx_HAL_Driver/Src/stm32n6xx_hal.c ****   {
 959:../../Drivers/STM32N6xx_HAL_Driver/Src/stm32n6xx_hal.c ****     return HAL_ERROR;
 960:../../Drivers/STM32N6xx_HAL_Driver/Src/stm32n6xx_hal.c ****   }
 961:../../Drivers/STM32N6xx_HAL_Driver/Src/stm32n6xx_hal.c **** 
 962:../../Drivers/STM32N6xx_HAL_Driver/Src/stm32n6xx_hal.c ****   /* Get the non-secure lock state */
 963:../../Drivers/STM32N6xx_HAL_Driver/Src/stm32n6xx_hal.c ****   *pCacheRWMarginInput = (READ_BIT(SYSCFG->CM55RWMCR, SYSCFG_CM55RWMCR_RM_CACHE) >> 8U);
 1658              		.loc 1 963 3 is_stmt 1 view .LVU301
 1659              		.loc 1 963 27 is_stmt 0 view .LVU302
 1660 0002 044B     		ldr	r3, .L163
 1661 0004 DB68     		ldr	r3, [r3, #12]
 1662              		.loc 1 963 82 view .LVU303
 1663 0006 C3F30323 		ubfx	r3, r3, #8, #4
 1664              		.loc 1 963 24 view .LVU304
 1665 000a 0360     		str	r3, [r0]
 964:../../Drivers/STM32N6xx_HAL_Driver/Src/stm32n6xx_hal.c **** 
ARM GAS  C:\Users\SMART\AppData\Local\Temp\ccwDMaLv.s 			page 47


 965:../../Drivers/STM32N6xx_HAL_Driver/Src/stm32n6xx_hal.c ****   return HAL_OK;
 1666              		.loc 1 965 3 is_stmt 1 view .LVU305
 1667              		.loc 1 965 10 is_stmt 0 view .LVU306
 1668 000c 0020     		movs	r0, #0
 1669              	.LVL58:
 1670              		.loc 1 965 10 view .LVU307
 1671 000e 7047     		bx	lr
 1672              	.LVL59:
 1673              	.L162:
 959:../../Drivers/STM32N6xx_HAL_Driver/Src/stm32n6xx_hal.c ****   }
 1674              		.loc 1 959 12 view .LVU308
 1675 0010 0120     		movs	r0, #1
 1676              	.LVL60:
 966:../../Drivers/STM32N6xx_HAL_Driver/Src/stm32n6xx_hal.c **** }
 1677              		.loc 1 966 1 view .LVU309
 1678 0012 7047     		bx	lr
 1679              	.L164:
 1680              		.align	2
 1681              	.L163:
 1682 0014 00800056 		.word	1442873344
 1683              		.cfi_endproc
 1684              	.LFE908:
 1686              		.section	.text.HAL_SYSCFG_SetCacheBiasingLevel,"ax",%progbits
 1687              		.align	1
 1688              		.global	HAL_SYSCFG_SetCacheBiasingLevel
 1689              		.syntax unified
 1690              		.thumb
 1691              		.thumb_func
 1693              	HAL_SYSCFG_SetCacheBiasingLevel:
 1694              	.LVL61:
 1695              	.LFB909:
 967:../../Drivers/STM32N6xx_HAL_Driver/Src/stm32n6xx_hal.c **** 
 968:../../Drivers/STM32N6xx_HAL_Driver/Src/stm32n6xx_hal.c **** /**
 969:../../Drivers/STM32N6xx_HAL_Driver/Src/stm32n6xx_hal.c ****   * @brief  Set the Cache biasing level adjust input.
 970:../../Drivers/STM32N6xx_HAL_Driver/Src/stm32n6xx_hal.c ****   * @param  Level the biaising level adjust input
 971:../../Drivers/STM32N6xx_HAL_Driver/Src/stm32n6xx_hal.c ****   *         This parameter can one of the following values:
 972:../../Drivers/STM32N6xx_HAL_Driver/Src/stm32n6xx_hal.c ****   *            @arg SYSCFG_CACHE_BIAS_VNOM: Biasing level adjust input recommended for Vnom
 973:../../Drivers/STM32N6xx_HAL_Driver/Src/stm32n6xx_hal.c ****   *            @arg SYSCFG_CACHE_BIAS_VNOM_10_PERCENT: Biasing level adjust input recommended for V
 974:../../Drivers/STM32N6xx_HAL_Driver/Src/stm32n6xx_hal.c ****   * @retval None
 975:../../Drivers/STM32N6xx_HAL_Driver/Src/stm32n6xx_hal.c ****   */
 976:../../Drivers/STM32N6xx_HAL_Driver/Src/stm32n6xx_hal.c **** void HAL_SYSCFG_SetCacheBiasingLevel(uint32_t Level)
 977:../../Drivers/STM32N6xx_HAL_Driver/Src/stm32n6xx_hal.c **** {
 1696              		.loc 1 977 1 is_stmt 1 view -0
 1697              		.cfi_startproc
 1698              		@ args = 0, pretend = 0, frame = 0
 1699              		@ frame_needed = 0, uses_anonymous_args = 0
 1700              		@ link register save eliminated.
 978:../../Drivers/STM32N6xx_HAL_Driver/Src/stm32n6xx_hal.c ****   /* Check the parameters */
 979:../../Drivers/STM32N6xx_HAL_Driver/Src/stm32n6xx_hal.c ****   assert_param(IS_SYSCFG_CACHE_BIASING_LEVEL(Level));
 1701              		.loc 1 979 3 view .LVU311
 980:../../Drivers/STM32N6xx_HAL_Driver/Src/stm32n6xx_hal.c **** 
 981:../../Drivers/STM32N6xx_HAL_Driver/Src/stm32n6xx_hal.c ****   MODIFY_REG(SYSCFG->CM55RWMCR, SYSCFG_CM55RWMCR_BC2_CACHE | SYSCFG_CM55RWMCR_BC1_CACHE, Level);
 1702              		.loc 1 981 3 view .LVU312
 1703 0000 034A     		ldr	r2, .L166
 1704 0002 D368     		ldr	r3, [r2, #12]
 1705 0004 23F44053 		bic	r3, r3, #12288
 1706 0008 0343     		orrs	r3, r3, r0
ARM GAS  C:\Users\SMART\AppData\Local\Temp\ccwDMaLv.s 			page 48


 1707 000a D360     		str	r3, [r2, #12]
 982:../../Drivers/STM32N6xx_HAL_Driver/Src/stm32n6xx_hal.c **** }
 1708              		.loc 1 982 1 is_stmt 0 view .LVU313
 1709 000c 7047     		bx	lr
 1710              	.L167:
 1711 000e 00BF     		.align	2
 1712              	.L166:
 1713 0010 00800056 		.word	1442873344
 1714              		.cfi_endproc
 1715              	.LFE909:
 1717              		.section	.text.HAL_SYSCFG_GetCacheBiasingLevel,"ax",%progbits
 1718              		.align	1
 1719              		.global	HAL_SYSCFG_GetCacheBiasingLevel
 1720              		.syntax unified
 1721              		.thumb
 1722              		.thumb_func
 1724              	HAL_SYSCFG_GetCacheBiasingLevel:
 1725              	.LVL62:
 1726              	.LFB910:
 983:../../Drivers/STM32N6xx_HAL_Driver/Src/stm32n6xx_hal.c **** 
 984:../../Drivers/STM32N6xx_HAL_Driver/Src/stm32n6xx_hal.c **** /**
 985:../../Drivers/STM32N6xx_HAL_Driver/Src/stm32n6xx_hal.c ****   * @brief  Get the Cache biasing level adjust input.
 986:../../Drivers/STM32N6xx_HAL_Driver/Src/stm32n6xx_hal.c ****   * @param  pLevel Pointer to return Cache biasing level adjust input.
 987:../../Drivers/STM32N6xx_HAL_Driver/Src/stm32n6xx_hal.c ****   *         The return value can be onr of the following values:
 988:../../Drivers/STM32N6xx_HAL_Driver/Src/stm32n6xx_hal.c ****   *            @arg SYSCFG_CACHE_BIAS_VNOM boot: Biasing level adjust input recommended for Vnom
 989:../../Drivers/STM32N6xx_HAL_Driver/Src/stm32n6xx_hal.c ****   *            @arg SYSCFG_CACHE_BIAS_VNOM_10_PERCENT: Biasing level adjust input recommended for V
 990:../../Drivers/STM32N6xx_HAL_Driver/Src/stm32n6xx_hal.c ****   * @retval HAL status
 991:../../Drivers/STM32N6xx_HAL_Driver/Src/stm32n6xx_hal.c ****   */
 992:../../Drivers/STM32N6xx_HAL_Driver/Src/stm32n6xx_hal.c **** HAL_StatusTypeDef HAL_SYSCFG_GetCacheBiasingLevel(uint32_t *pLevel)
 993:../../Drivers/STM32N6xx_HAL_Driver/Src/stm32n6xx_hal.c **** {
 1727              		.loc 1 993 1 is_stmt 1 view -0
 1728              		.cfi_startproc
 1729              		@ args = 0, pretend = 0, frame = 0
 1730              		@ frame_needed = 0, uses_anonymous_args = 0
 1731              		@ link register save eliminated.
 994:../../Drivers/STM32N6xx_HAL_Driver/Src/stm32n6xx_hal.c ****   /* Check null pointer */
 995:../../Drivers/STM32N6xx_HAL_Driver/Src/stm32n6xx_hal.c ****   if (pLevel == NULL)
 1732              		.loc 1 995 3 view .LVU315
 1733              		.loc 1 995 6 is_stmt 0 view .LVU316
 1734 0000 30B1     		cbz	r0, .L170
 996:../../Drivers/STM32N6xx_HAL_Driver/Src/stm32n6xx_hal.c ****   {
 997:../../Drivers/STM32N6xx_HAL_Driver/Src/stm32n6xx_hal.c ****     return HAL_ERROR;
 998:../../Drivers/STM32N6xx_HAL_Driver/Src/stm32n6xx_hal.c ****   }
 999:../../Drivers/STM32N6xx_HAL_Driver/Src/stm32n6xx_hal.c **** 
1000:../../Drivers/STM32N6xx_HAL_Driver/Src/stm32n6xx_hal.c ****   /* Get the cache biaising */
1001:../../Drivers/STM32N6xx_HAL_Driver/Src/stm32n6xx_hal.c ****   *pLevel = READ_BIT(SYSCFG->CM55RWMCR, SYSCFG_CM55RWMCR_BC2_CACHE | SYSCFG_CM55RWMCR_BC1_CACHE);
 1735              		.loc 1 1001 3 is_stmt 1 view .LVU317
 1736              		.loc 1 1001 13 is_stmt 0 view .LVU318
 1737 0002 044B     		ldr	r3, .L171
 1738 0004 DB68     		ldr	r3, [r3, #12]
 1739 0006 03F44053 		and	r3, r3, #12288
 1740              		.loc 1 1001 11 view .LVU319
 1741 000a 0360     		str	r3, [r0]
1002:../../Drivers/STM32N6xx_HAL_Driver/Src/stm32n6xx_hal.c **** 
1003:../../Drivers/STM32N6xx_HAL_Driver/Src/stm32n6xx_hal.c ****   return HAL_OK;
 1742              		.loc 1 1003 3 is_stmt 1 view .LVU320
 1743              		.loc 1 1003 10 is_stmt 0 view .LVU321
ARM GAS  C:\Users\SMART\AppData\Local\Temp\ccwDMaLv.s 			page 49


 1744 000c 0020     		movs	r0, #0
 1745              	.LVL63:
 1746              		.loc 1 1003 10 view .LVU322
 1747 000e 7047     		bx	lr
 1748              	.LVL64:
 1749              	.L170:
 997:../../Drivers/STM32N6xx_HAL_Driver/Src/stm32n6xx_hal.c ****   }
 1750              		.loc 1 997 12 view .LVU323
 1751 0010 0120     		movs	r0, #1
 1752              	.LVL65:
1004:../../Drivers/STM32N6xx_HAL_Driver/Src/stm32n6xx_hal.c **** }
 1753              		.loc 1 1004 1 view .LVU324
 1754 0012 7047     		bx	lr
 1755              	.L172:
 1756              		.align	2
 1757              	.L171:
 1758 0014 00800056 		.word	1442873344
 1759              		.cfi_endproc
 1760              	.LFE910:
 1762              		.section	.text.HAL_SYSCFG_SetSVTORAddress,"ax",%progbits
 1763              		.align	1
 1764              		.global	HAL_SYSCFG_SetSVTORAddress
 1765              		.syntax unified
 1766              		.thumb
 1767              		.thumb_func
 1769              	HAL_SYSCFG_SetSVTORAddress:
 1770              	.LVL66:
 1771              	.LFB911:
1005:../../Drivers/STM32N6xx_HAL_Driver/Src/stm32n6xx_hal.c **** 
1006:../../Drivers/STM32N6xx_HAL_Driver/Src/stm32n6xx_hal.c **** /**
1007:../../Drivers/STM32N6xx_HAL_Driver/Src/stm32n6xx_hal.c ****   * @brief  Set the secure vector table (VTOR) address.
1008:../../Drivers/STM32N6xx_HAL_Driver/Src/stm32n6xx_hal.c ****   * @note   Secure vector table address must be set to ensure return from STANDBY state.
1009:../../Drivers/STM32N6xx_HAL_Driver/Src/stm32n6xx_hal.c ****   * @param  Address Secure VTOR address
1010:../../Drivers/STM32N6xx_HAL_Driver/Src/stm32n6xx_hal.c ****   * @retval None
1011:../../Drivers/STM32N6xx_HAL_Driver/Src/stm32n6xx_hal.c ****   */
1012:../../Drivers/STM32N6xx_HAL_Driver/Src/stm32n6xx_hal.c **** void HAL_SYSCFG_SetSVTORAddress(uint32_t Address)
1013:../../Drivers/STM32N6xx_HAL_Driver/Src/stm32n6xx_hal.c **** {
 1772              		.loc 1 1013 1 is_stmt 1 view -0
 1773              		.cfi_startproc
 1774              		@ args = 0, pretend = 0, frame = 0
 1775              		@ frame_needed = 0, uses_anonymous_args = 0
 1776              		@ link register save eliminated.
1014:../../Drivers/STM32N6xx_HAL_Driver/Src/stm32n6xx_hal.c ****   /* Check the parameters */
1015:../../Drivers/STM32N6xx_HAL_Driver/Src/stm32n6xx_hal.c ****   assert_param(IS_VTOR_ADDRESS(Address));
 1777              		.loc 1 1015 3 view .LVU326
1016:../../Drivers/STM32N6xx_HAL_Driver/Src/stm32n6xx_hal.c **** 
1017:../../Drivers/STM32N6xx_HAL_Driver/Src/stm32n6xx_hal.c ****   WRITE_REG(SYSCFG->INITSVTORCR, Address);
 1778              		.loc 1 1017 3 view .LVU327
 1779 0000 014B     		ldr	r3, .L174
 1780 0002 1861     		str	r0, [r3, #16]
1018:../../Drivers/STM32N6xx_HAL_Driver/Src/stm32n6xx_hal.c **** }
 1781              		.loc 1 1018 1 is_stmt 0 view .LVU328
 1782 0004 7047     		bx	lr
 1783              	.L175:
 1784 0006 00BF     		.align	2
 1785              	.L174:
 1786 0008 00800056 		.word	1442873344
ARM GAS  C:\Users\SMART\AppData\Local\Temp\ccwDMaLv.s 			page 50


 1787              		.cfi_endproc
 1788              	.LFE911:
 1790              		.section	.text.HAL_SYSCFG_GetSVTORAddress,"ax",%progbits
 1791              		.align	1
 1792              		.global	HAL_SYSCFG_GetSVTORAddress
 1793              		.syntax unified
 1794              		.thumb
 1795              		.thumb_func
 1797              	HAL_SYSCFG_GetSVTORAddress:
 1798              	.LVL67:
 1799              	.LFB912:
1019:../../Drivers/STM32N6xx_HAL_Driver/Src/stm32n6xx_hal.c **** 
1020:../../Drivers/STM32N6xx_HAL_Driver/Src/stm32n6xx_hal.c **** /**
1021:../../Drivers/STM32N6xx_HAL_Driver/Src/stm32n6xx_hal.c ****   * @brief  Get the secure vector table (VTOR) address.
1022:../../Drivers/STM32N6xx_HAL_Driver/Src/stm32n6xx_hal.c ****   * @param  pAddress  Pointer to return the secure vector table address
1023:../../Drivers/STM32N6xx_HAL_Driver/Src/stm32n6xx_hal.c ****   * @retval HAL status
1024:../../Drivers/STM32N6xx_HAL_Driver/Src/stm32n6xx_hal.c ****   */
1025:../../Drivers/STM32N6xx_HAL_Driver/Src/stm32n6xx_hal.c **** HAL_StatusTypeDef HAL_SYSCFG_GetSVTORAddress(uint32_t *pAddress)
1026:../../Drivers/STM32N6xx_HAL_Driver/Src/stm32n6xx_hal.c **** {
 1800              		.loc 1 1026 1 is_stmt 1 view -0
 1801              		.cfi_startproc
 1802              		@ args = 0, pretend = 0, frame = 0
 1803              		@ frame_needed = 0, uses_anonymous_args = 0
 1804              		@ link register save eliminated.
1027:../../Drivers/STM32N6xx_HAL_Driver/Src/stm32n6xx_hal.c ****   /* Check null pointer */
1028:../../Drivers/STM32N6xx_HAL_Driver/Src/stm32n6xx_hal.c ****   if (pAddress == NULL)
 1805              		.loc 1 1028 3 view .LVU330
 1806              		.loc 1 1028 6 is_stmt 0 view .LVU331
 1807 0000 20B1     		cbz	r0, .L178
1029:../../Drivers/STM32N6xx_HAL_Driver/Src/stm32n6xx_hal.c ****   {
1030:../../Drivers/STM32N6xx_HAL_Driver/Src/stm32n6xx_hal.c ****     return HAL_ERROR;
1031:../../Drivers/STM32N6xx_HAL_Driver/Src/stm32n6xx_hal.c ****   }
1032:../../Drivers/STM32N6xx_HAL_Driver/Src/stm32n6xx_hal.c **** 
1033:../../Drivers/STM32N6xx_HAL_Driver/Src/stm32n6xx_hal.c ****   /* Get the secure VTOR address */
1034:../../Drivers/STM32N6xx_HAL_Driver/Src/stm32n6xx_hal.c ****   *pAddress = READ_REG(SYSCFG->INITSVTORCR);
 1808              		.loc 1 1034 3 is_stmt 1 view .LVU332
 1809              		.loc 1 1034 15 is_stmt 0 view .LVU333
 1810 0002 034A     		ldr	r2, .L179
 1811 0004 1269     		ldr	r2, [r2, #16]
 1812              		.loc 1 1034 13 view .LVU334
 1813 0006 0260     		str	r2, [r0]
1035:../../Drivers/STM32N6xx_HAL_Driver/Src/stm32n6xx_hal.c **** 
1036:../../Drivers/STM32N6xx_HAL_Driver/Src/stm32n6xx_hal.c ****   return HAL_OK;
 1814              		.loc 1 1036 3 is_stmt 1 view .LVU335
 1815              		.loc 1 1036 10 is_stmt 0 view .LVU336
 1816 0008 0020     		movs	r0, #0
 1817              	.LVL68:
 1818              		.loc 1 1036 10 view .LVU337
 1819 000a 7047     		bx	lr
 1820              	.LVL69:
 1821              	.L178:
1030:../../Drivers/STM32N6xx_HAL_Driver/Src/stm32n6xx_hal.c ****   }
 1822              		.loc 1 1030 12 view .LVU338
 1823 000c 0120     		movs	r0, #1
 1824              	.LVL70:
1037:../../Drivers/STM32N6xx_HAL_Driver/Src/stm32n6xx_hal.c **** }
 1825              		.loc 1 1037 1 view .LVU339
ARM GAS  C:\Users\SMART\AppData\Local\Temp\ccwDMaLv.s 			page 51


 1826 000e 7047     		bx	lr
 1827              	.L180:
 1828              		.align	2
 1829              	.L179:
 1830 0010 00800056 		.word	1442873344
 1831              		.cfi_endproc
 1832              	.LFE912:
 1834              		.section	.text.HAL_SYSCFG_SetNSVTORAddress,"ax",%progbits
 1835              		.align	1
 1836              		.global	HAL_SYSCFG_SetNSVTORAddress
 1837              		.syntax unified
 1838              		.thumb
 1839              		.thumb_func
 1841              	HAL_SYSCFG_SetNSVTORAddress:
 1842              	.LVL71:
 1843              	.LFB913:
1038:../../Drivers/STM32N6xx_HAL_Driver/Src/stm32n6xx_hal.c **** 
1039:../../Drivers/STM32N6xx_HAL_Driver/Src/stm32n6xx_hal.c **** /**
1040:../../Drivers/STM32N6xx_HAL_Driver/Src/stm32n6xx_hal.c ****   * @brief  Set the non secure vector table (VTOR) address.
1041:../../Drivers/STM32N6xx_HAL_Driver/Src/stm32n6xx_hal.c ****   * @param  Address Non-secure VTOR address
1042:../../Drivers/STM32N6xx_HAL_Driver/Src/stm32n6xx_hal.c ****   * @retval None
1043:../../Drivers/STM32N6xx_HAL_Driver/Src/stm32n6xx_hal.c ****   */
1044:../../Drivers/STM32N6xx_HAL_Driver/Src/stm32n6xx_hal.c **** void HAL_SYSCFG_SetNSVTORAddress(uint32_t Address)
1045:../../Drivers/STM32N6xx_HAL_Driver/Src/stm32n6xx_hal.c **** {
 1844              		.loc 1 1045 1 is_stmt 1 view -0
 1845              		.cfi_startproc
 1846              		@ args = 0, pretend = 0, frame = 0
 1847              		@ frame_needed = 0, uses_anonymous_args = 0
 1848              		@ link register save eliminated.
1046:../../Drivers/STM32N6xx_HAL_Driver/Src/stm32n6xx_hal.c ****   /* Check the parameters */
1047:../../Drivers/STM32N6xx_HAL_Driver/Src/stm32n6xx_hal.c ****   assert_param(IS_VTOR_ADDRESS(Address));
 1849              		.loc 1 1047 3 view .LVU341
1048:../../Drivers/STM32N6xx_HAL_Driver/Src/stm32n6xx_hal.c **** 
1049:../../Drivers/STM32N6xx_HAL_Driver/Src/stm32n6xx_hal.c ****   WRITE_REG(SYSCFG->INITNSVTORCR, Address);
 1850              		.loc 1 1049 3 view .LVU342
 1851 0000 014B     		ldr	r3, .L182
 1852 0002 5861     		str	r0, [r3, #20]
1050:../../Drivers/STM32N6xx_HAL_Driver/Src/stm32n6xx_hal.c **** }
 1853              		.loc 1 1050 1 is_stmt 0 view .LVU343
 1854 0004 7047     		bx	lr
 1855              	.L183:
 1856 0006 00BF     		.align	2
 1857              	.L182:
 1858 0008 00800056 		.word	1442873344
 1859              		.cfi_endproc
 1860              	.LFE913:
 1862              		.section	.text.HAL_SYSCFG_GetNSVTORAddress,"ax",%progbits
 1863              		.align	1
 1864              		.global	HAL_SYSCFG_GetNSVTORAddress
 1865              		.syntax unified
 1866              		.thumb
 1867              		.thumb_func
 1869              	HAL_SYSCFG_GetNSVTORAddress:
 1870              	.LVL72:
 1871              	.LFB914:
1051:../../Drivers/STM32N6xx_HAL_Driver/Src/stm32n6xx_hal.c **** 
1052:../../Drivers/STM32N6xx_HAL_Driver/Src/stm32n6xx_hal.c **** /**
ARM GAS  C:\Users\SMART\AppData\Local\Temp\ccwDMaLv.s 			page 52


1053:../../Drivers/STM32N6xx_HAL_Driver/Src/stm32n6xx_hal.c ****   * @brief  Get the non secure VTOR address.
1054:../../Drivers/STM32N6xx_HAL_Driver/Src/stm32n6xx_hal.c ****   * @param  pAddress  Pointer to return the non-secure vector table address
1055:../../Drivers/STM32N6xx_HAL_Driver/Src/stm32n6xx_hal.c ****   * @retval HAL status
1056:../../Drivers/STM32N6xx_HAL_Driver/Src/stm32n6xx_hal.c ****   */
1057:../../Drivers/STM32N6xx_HAL_Driver/Src/stm32n6xx_hal.c **** HAL_StatusTypeDef HAL_SYSCFG_GetNSVTORAddress(uint32_t *pAddress)
1058:../../Drivers/STM32N6xx_HAL_Driver/Src/stm32n6xx_hal.c **** {
 1872              		.loc 1 1058 1 is_stmt 1 view -0
 1873              		.cfi_startproc
 1874              		@ args = 0, pretend = 0, frame = 0
 1875              		@ frame_needed = 0, uses_anonymous_args = 0
 1876              		@ link register save eliminated.
1059:../../Drivers/STM32N6xx_HAL_Driver/Src/stm32n6xx_hal.c ****   /* Check null pointer */
1060:../../Drivers/STM32N6xx_HAL_Driver/Src/stm32n6xx_hal.c ****   if (pAddress == NULL)
 1877              		.loc 1 1060 3 view .LVU345
 1878              		.loc 1 1060 6 is_stmt 0 view .LVU346
 1879 0000 20B1     		cbz	r0, .L186
1061:../../Drivers/STM32N6xx_HAL_Driver/Src/stm32n6xx_hal.c ****   {
1062:../../Drivers/STM32N6xx_HAL_Driver/Src/stm32n6xx_hal.c ****     return HAL_ERROR;
1063:../../Drivers/STM32N6xx_HAL_Driver/Src/stm32n6xx_hal.c ****   }
1064:../../Drivers/STM32N6xx_HAL_Driver/Src/stm32n6xx_hal.c **** 
1065:../../Drivers/STM32N6xx_HAL_Driver/Src/stm32n6xx_hal.c ****   /* Get the non-secure VTOR address */
1066:../../Drivers/STM32N6xx_HAL_Driver/Src/stm32n6xx_hal.c ****   *pAddress = READ_REG(SYSCFG->INITNSVTORCR);
 1880              		.loc 1 1066 3 is_stmt 1 view .LVU347
 1881              		.loc 1 1066 15 is_stmt 0 view .LVU348
 1882 0002 034A     		ldr	r2, .L187
 1883 0004 5269     		ldr	r2, [r2, #20]
 1884              		.loc 1 1066 13 view .LVU349
 1885 0006 0260     		str	r2, [r0]
1067:../../Drivers/STM32N6xx_HAL_Driver/Src/stm32n6xx_hal.c **** 
1068:../../Drivers/STM32N6xx_HAL_Driver/Src/stm32n6xx_hal.c ****   return HAL_OK;
 1886              		.loc 1 1068 3 is_stmt 1 view .LVU350
 1887              		.loc 1 1068 10 is_stmt 0 view .LVU351
 1888 0008 0020     		movs	r0, #0
 1889              	.LVL73:
 1890              		.loc 1 1068 10 view .LVU352
 1891 000a 7047     		bx	lr
 1892              	.LVL74:
 1893              	.L186:
1062:../../Drivers/STM32N6xx_HAL_Driver/Src/stm32n6xx_hal.c ****   }
 1894              		.loc 1 1062 12 view .LVU353
 1895 000c 0120     		movs	r0, #1
 1896              	.LVL75:
1069:../../Drivers/STM32N6xx_HAL_Driver/Src/stm32n6xx_hal.c **** }
 1897              		.loc 1 1069 1 view .LVU354
 1898 000e 7047     		bx	lr
 1899              	.L188:
 1900              		.align	2
 1901              	.L187:
 1902 0010 00800056 		.word	1442873344
 1903              		.cfi_endproc
 1904              	.LFE914:
 1906              		.section	.text.HAL_SYSCFG_EnablePowerOnReset,"ax",%progbits
 1907              		.align	1
 1908              		.global	HAL_SYSCFG_EnablePowerOnReset
 1909              		.syntax unified
 1910              		.thumb
 1911              		.thumb_func
ARM GAS  C:\Users\SMART\AppData\Local\Temp\ccwDMaLv.s 			page 53


 1913              	HAL_SYSCFG_EnablePowerOnReset:
 1914              	.LFB915:
1070:../../Drivers/STM32N6xx_HAL_Driver/Src/stm32n6xx_hal.c **** 
1071:../../Drivers/STM32N6xx_HAL_Driver/Src/stm32n6xx_hal.c **** /**
1072:../../Drivers/STM32N6xx_HAL_Driver/Src/stm32n6xx_hal.c ****   * @brief  Enable the Power-on reset.
1073:../../Drivers/STM32N6xx_HAL_Driver/Src/stm32n6xx_hal.c ****   * @note   Select power-on reset to apply on core upon SYSRESETREQ (NVIC_SystemReset())
1074:../../Drivers/STM32N6xx_HAL_Driver/Src/stm32n6xx_hal.c ****   * @retval None
1075:../../Drivers/STM32N6xx_HAL_Driver/Src/stm32n6xx_hal.c ****   */
1076:../../Drivers/STM32N6xx_HAL_Driver/Src/stm32n6xx_hal.c **** void HAL_SYSCFG_EnablePowerOnReset(void)
1077:../../Drivers/STM32N6xx_HAL_Driver/Src/stm32n6xx_hal.c **** {
 1915              		.loc 1 1077 1 is_stmt 1 view -0
 1916              		.cfi_startproc
 1917              		@ args = 0, pretend = 0, frame = 0
 1918              		@ frame_needed = 0, uses_anonymous_args = 0
 1919              		@ link register save eliminated.
1078:../../Drivers/STM32N6xx_HAL_Driver/Src/stm32n6xx_hal.c ****   SET_BIT(SYSCFG->CM55RSTCR, SYSCFG_CM55RSTCR_CORE_RESET_TYPE);
 1920              		.loc 1 1078 3 view .LVU356
 1921 0000 024A     		ldr	r2, .L190
 1922 0002 9369     		ldr	r3, [r2, #24]
 1923 0004 43F00103 		orr	r3, r3, #1
 1924 0008 9361     		str	r3, [r2, #24]
1079:../../Drivers/STM32N6xx_HAL_Driver/Src/stm32n6xx_hal.c **** }
 1925              		.loc 1 1079 1 is_stmt 0 view .LVU357
 1926 000a 7047     		bx	lr
 1927              	.L191:
 1928              		.align	2
 1929              	.L190:
 1930 000c 00800056 		.word	1442873344
 1931              		.cfi_endproc
 1932              	.LFE915:
 1934              		.section	.text.HAL_SYSCFG_DisablePowerOnReset,"ax",%progbits
 1935              		.align	1
 1936              		.global	HAL_SYSCFG_DisablePowerOnReset
 1937              		.syntax unified
 1938              		.thumb
 1939              		.thumb_func
 1941              	HAL_SYSCFG_DisablePowerOnReset:
 1942              	.LFB916:
1080:../../Drivers/STM32N6xx_HAL_Driver/Src/stm32n6xx_hal.c **** 
1081:../../Drivers/STM32N6xx_HAL_Driver/Src/stm32n6xx_hal.c **** /**
1082:../../Drivers/STM32N6xx_HAL_Driver/Src/stm32n6xx_hal.c ****   * @brief  Disable the Power-on reset.
1083:../../Drivers/STM32N6xx_HAL_Driver/Src/stm32n6xx_hal.c ****   * @note   Select warm reset to apply on core upon SYSRESETREQ (NVIC_SystemReset())
1084:../../Drivers/STM32N6xx_HAL_Driver/Src/stm32n6xx_hal.c ****   * @retval None
1085:../../Drivers/STM32N6xx_HAL_Driver/Src/stm32n6xx_hal.c ****   */
1086:../../Drivers/STM32N6xx_HAL_Driver/Src/stm32n6xx_hal.c **** void HAL_SYSCFG_DisablePowerOnReset(void)
1087:../../Drivers/STM32N6xx_HAL_Driver/Src/stm32n6xx_hal.c **** {
 1943              		.loc 1 1087 1 is_stmt 1 view -0
 1944              		.cfi_startproc
 1945              		@ args = 0, pretend = 0, frame = 0
 1946              		@ frame_needed = 0, uses_anonymous_args = 0
 1947              		@ link register save eliminated.
1088:../../Drivers/STM32N6xx_HAL_Driver/Src/stm32n6xx_hal.c ****   CLEAR_BIT(SYSCFG->CM55RSTCR, SYSCFG_CM55RSTCR_CORE_RESET_TYPE);
 1948              		.loc 1 1088 3 view .LVU359
 1949 0000 024A     		ldr	r2, .L193
 1950 0002 9369     		ldr	r3, [r2, #24]
 1951 0004 23F00103 		bic	r3, r3, #1
 1952 0008 9361     		str	r3, [r2, #24]
ARM GAS  C:\Users\SMART\AppData\Local\Temp\ccwDMaLv.s 			page 54


1089:../../Drivers/STM32N6xx_HAL_Driver/Src/stm32n6xx_hal.c **** }
 1953              		.loc 1 1089 1 is_stmt 0 view .LVU360
 1954 000a 7047     		bx	lr
 1955              	.L194:
 1956              		.align	2
 1957              	.L193:
 1958 000c 00800056 		.word	1442873344
 1959              		.cfi_endproc
 1960              	.LFE916:
 1962              		.section	.text.HAL_SYSCFG_EnableLockupWarmResetonRCC,"ax",%progbits
 1963              		.align	1
 1964              		.global	HAL_SYSCFG_EnableLockupWarmResetonRCC
 1965              		.syntax unified
 1966              		.thumb
 1967              		.thumb_func
 1969              	HAL_SYSCFG_EnableLockupWarmResetonRCC:
 1970              	.LFB917:
1090:../../Drivers/STM32N6xx_HAL_Driver/Src/stm32n6xx_hal.c **** 
1091:../../Drivers/STM32N6xx_HAL_Driver/Src/stm32n6xx_hal.c **** /**
1092:../../Drivers/STM32N6xx_HAL_Driver/Src/stm32n6xx_hal.c ****   * @brief  Enable Lockup requests a warm reset to the RCC.
1093:../../Drivers/STM32N6xx_HAL_Driver/Src/stm32n6xx_hal.c ****   * @note   Select action to perform on a lockup state on the core
1094:../../Drivers/STM32N6xx_HAL_Driver/Src/stm32n6xx_hal.c ****   * @retval None
1095:../../Drivers/STM32N6xx_HAL_Driver/Src/stm32n6xx_hal.c ****   */
1096:../../Drivers/STM32N6xx_HAL_Driver/Src/stm32n6xx_hal.c **** void HAL_SYSCFG_EnableLockupWarmResetonRCC(void)
1097:../../Drivers/STM32N6xx_HAL_Driver/Src/stm32n6xx_hal.c **** {
 1971              		.loc 1 1097 1 is_stmt 1 view -0
 1972              		.cfi_startproc
 1973              		@ args = 0, pretend = 0, frame = 0
 1974              		@ frame_needed = 0, uses_anonymous_args = 0
 1975              		@ link register save eliminated.
1098:../../Drivers/STM32N6xx_HAL_Driver/Src/stm32n6xx_hal.c ****   SET_BIT(SYSCFG->CM55RSTCR, SYSCFG_CM55RSTCR_LOCKUP_RST_EN);
 1976              		.loc 1 1098 3 view .LVU362
 1977 0000 024A     		ldr	r2, .L196
 1978 0002 9369     		ldr	r3, [r2, #24]
 1979 0004 43F00203 		orr	r3, r3, #2
 1980 0008 9361     		str	r3, [r2, #24]
1099:../../Drivers/STM32N6xx_HAL_Driver/Src/stm32n6xx_hal.c **** }
 1981              		.loc 1 1099 1 is_stmt 0 view .LVU363
 1982 000a 7047     		bx	lr
 1983              	.L197:
 1984              		.align	2
 1985              	.L196:
 1986 000c 00800056 		.word	1442873344
 1987              		.cfi_endproc
 1988              	.LFE917:
 1990              		.section	.text.HAL_SYSCFG_DisableLockupWarmResetonRCC,"ax",%progbits
 1991              		.align	1
 1992              		.global	HAL_SYSCFG_DisableLockupWarmResetonRCC
 1993              		.syntax unified
 1994              		.thumb
 1995              		.thumb_func
 1997              	HAL_SYSCFG_DisableLockupWarmResetonRCC:
 1998              	.LFB918:
1100:../../Drivers/STM32N6xx_HAL_Driver/Src/stm32n6xx_hal.c **** 
1101:../../Drivers/STM32N6xx_HAL_Driver/Src/stm32n6xx_hal.c **** /**
1102:../../Drivers/STM32N6xx_HAL_Driver/Src/stm32n6xx_hal.c ****   * @brief  Disable Lockup requests a warm reset to the RCC.
1103:../../Drivers/STM32N6xx_HAL_Driver/Src/stm32n6xx_hal.c ****   * @note   Select action to perform on a lockup state on the core
ARM GAS  C:\Users\SMART\AppData\Local\Temp\ccwDMaLv.s 			page 55


1104:../../Drivers/STM32N6xx_HAL_Driver/Src/stm32n6xx_hal.c ****   * @retval None
1105:../../Drivers/STM32N6xx_HAL_Driver/Src/stm32n6xx_hal.c ****   */
1106:../../Drivers/STM32N6xx_HAL_Driver/Src/stm32n6xx_hal.c **** void HAL_SYSCFG_DisableLockupWarmResetonRCC(void)
1107:../../Drivers/STM32N6xx_HAL_Driver/Src/stm32n6xx_hal.c **** {
 1999              		.loc 1 1107 1 is_stmt 1 view -0
 2000              		.cfi_startproc
 2001              		@ args = 0, pretend = 0, frame = 0
 2002              		@ frame_needed = 0, uses_anonymous_args = 0
 2003              		@ link register save eliminated.
1108:../../Drivers/STM32N6xx_HAL_Driver/Src/stm32n6xx_hal.c ****   CLEAR_BIT(SYSCFG->CM55RSTCR, SYSCFG_CM55RSTCR_LOCKUP_RST_EN);
 2004              		.loc 1 1108 3 view .LVU365
 2005 0000 024A     		ldr	r2, .L199
 2006 0002 9369     		ldr	r3, [r2, #24]
 2007 0004 23F00203 		bic	r3, r3, #2
 2008 0008 9361     		str	r3, [r2, #24]
1109:../../Drivers/STM32N6xx_HAL_Driver/Src/stm32n6xx_hal.c **** }
 2009              		.loc 1 1109 1 is_stmt 0 view .LVU366
 2010 000a 7047     		bx	lr
 2011              	.L200:
 2012              		.align	2
 2013              	.L199:
 2014 000c 00800056 		.word	1442873344
 2015              		.cfi_endproc
 2016              	.LFE918:
 2018              		.section	.text.HAL_SYSCFG_EnableLockupGenerateNMI,"ax",%progbits
 2019              		.align	1
 2020              		.global	HAL_SYSCFG_EnableLockupGenerateNMI
 2021              		.syntax unified
 2022              		.thumb
 2023              		.thumb_func
 2025              	HAL_SYSCFG_EnableLockupGenerateNMI:
 2026              	.LFB919:
1110:../../Drivers/STM32N6xx_HAL_Driver/Src/stm32n6xx_hal.c **** 
1111:../../Drivers/STM32N6xx_HAL_Driver/Src/stm32n6xx_hal.c **** /**
1112:../../Drivers/STM32N6xx_HAL_Driver/Src/stm32n6xx_hal.c ****   * @brief  Enable Lockup generates a NMI on the core.
1113:../../Drivers/STM32N6xx_HAL_Driver/Src/stm32n6xx_hal.c ****   * @note   Select action to perform on a lockup state on the core
1114:../../Drivers/STM32N6xx_HAL_Driver/Src/stm32n6xx_hal.c ****   * @retval None
1115:../../Drivers/STM32N6xx_HAL_Driver/Src/stm32n6xx_hal.c ****   */
1116:../../Drivers/STM32N6xx_HAL_Driver/Src/stm32n6xx_hal.c **** void HAL_SYSCFG_EnableLockupGenerateNMI(void)
1117:../../Drivers/STM32N6xx_HAL_Driver/Src/stm32n6xx_hal.c **** {
 2027              		.loc 1 1117 1 is_stmt 1 view -0
 2028              		.cfi_startproc
 2029              		@ args = 0, pretend = 0, frame = 0
 2030              		@ frame_needed = 0, uses_anonymous_args = 0
 2031              		@ link register save eliminated.
1118:../../Drivers/STM32N6xx_HAL_Driver/Src/stm32n6xx_hal.c ****   SET_BIT(SYSCFG->CM55RSTCR, SYSCFG_CM55RSTCR_LOCKUP_NMI_EN);
 2032              		.loc 1 1118 3 view .LVU368
 2033 0000 024A     		ldr	r2, .L202
 2034 0002 9369     		ldr	r3, [r2, #24]
 2035 0004 43F00403 		orr	r3, r3, #4
 2036 0008 9361     		str	r3, [r2, #24]
1119:../../Drivers/STM32N6xx_HAL_Driver/Src/stm32n6xx_hal.c **** }
 2037              		.loc 1 1119 1 is_stmt 0 view .LVU369
 2038 000a 7047     		bx	lr
 2039              	.L203:
 2040              		.align	2
 2041              	.L202:
ARM GAS  C:\Users\SMART\AppData\Local\Temp\ccwDMaLv.s 			page 56


 2042 000c 00800056 		.word	1442873344
 2043              		.cfi_endproc
 2044              	.LFE919:
 2046              		.section	.text.HAL_SYSCFG_DisableLockupGenerateNMI,"ax",%progbits
 2047              		.align	1
 2048              		.global	HAL_SYSCFG_DisableLockupGenerateNMI
 2049              		.syntax unified
 2050              		.thumb
 2051              		.thumb_func
 2053              	HAL_SYSCFG_DisableLockupGenerateNMI:
 2054              	.LFB920:
1120:../../Drivers/STM32N6xx_HAL_Driver/Src/stm32n6xx_hal.c **** 
1121:../../Drivers/STM32N6xx_HAL_Driver/Src/stm32n6xx_hal.c **** /**
1122:../../Drivers/STM32N6xx_HAL_Driver/Src/stm32n6xx_hal.c ****   * @brief  Disable Lockup generates a NMI on the core.
1123:../../Drivers/STM32N6xx_HAL_Driver/Src/stm32n6xx_hal.c ****   * @note   Select action to perform on a lockup state on the core
1124:../../Drivers/STM32N6xx_HAL_Driver/Src/stm32n6xx_hal.c ****   * @retval None
1125:../../Drivers/STM32N6xx_HAL_Driver/Src/stm32n6xx_hal.c ****   */
1126:../../Drivers/STM32N6xx_HAL_Driver/Src/stm32n6xx_hal.c **** void HAL_SYSCFG_DisableLockupGenerateNMI(void)
1127:../../Drivers/STM32N6xx_HAL_Driver/Src/stm32n6xx_hal.c **** {
 2055              		.loc 1 1127 1 is_stmt 1 view -0
 2056              		.cfi_startproc
 2057              		@ args = 0, pretend = 0, frame = 0
 2058              		@ frame_needed = 0, uses_anonymous_args = 0
 2059              		@ link register save eliminated.
1128:../../Drivers/STM32N6xx_HAL_Driver/Src/stm32n6xx_hal.c ****   CLEAR_BIT(SYSCFG->CM55RSTCR, SYSCFG_CM55RSTCR_LOCKUP_NMI_EN);
 2060              		.loc 1 1128 3 view .LVU371
 2061 0000 024A     		ldr	r2, .L205
 2062 0002 9369     		ldr	r3, [r2, #24]
 2063 0004 23F00403 		bic	r3, r3, #4
 2064 0008 9361     		str	r3, [r2, #24]
1129:../../Drivers/STM32N6xx_HAL_Driver/Src/stm32n6xx_hal.c **** }
 2065              		.loc 1 1129 1 is_stmt 0 view .LVU372
 2066 000a 7047     		bx	lr
 2067              	.L206:
 2068              		.align	2
 2069              	.L205:
 2070 000c 00800056 		.word	1442873344
 2071              		.cfi_endproc
 2072              	.LFE920:
 2074              		.section	.text.HAL_SYSCFG_ReEnableWritePostingErrorCapture,"ax",%progbits
 2075              		.align	1
 2076              		.global	HAL_SYSCFG_ReEnableWritePostingErrorCapture
 2077              		.syntax unified
 2078              		.thumb
 2079              		.thumb_func
 2081              	HAL_SYSCFG_ReEnableWritePostingErrorCapture:
 2082              	.LFB921:
1130:../../Drivers/STM32N6xx_HAL_Driver/Src/stm32n6xx_hal.c **** 
1131:../../Drivers/STM32N6xx_HAL_Driver/Src/stm32n6xx_hal.c **** /**
1132:../../Drivers/STM32N6xx_HAL_Driver/Src/stm32n6xx_hal.c ****   * @brief   Enable the capture mechanism upon write posting buffer error.
1133:../../Drivers/STM32N6xx_HAL_Driver/Src/stm32n6xx_hal.c ****   * @note    Upon error detection, the erroneous address is logged on and
1134:../../Drivers/STM32N6xx_HAL_Driver/Src/stm32n6xx_hal.c ****   *          the capture mechanism is on hold.
1135:../../Drivers/STM32N6xx_HAL_Driver/Src/stm32n6xx_hal.c ****   *          The address error can be read thanks to
1136:../../Drivers/STM32N6xx_HAL_Driver/Src/stm32n6xx_hal.c ****   *          HAL_SYSCFG_GetAddressWritePostingBuffer.
1137:../../Drivers/STM32N6xx_HAL_Driver/Src/stm32n6xx_hal.c ****   *  @note   This function enables the error capture mechanism again.
1138:../../Drivers/STM32N6xx_HAL_Driver/Src/stm32n6xx_hal.c ****   *  @retval HAL status.
1139:../../Drivers/STM32N6xx_HAL_Driver/Src/stm32n6xx_hal.c ****   */
ARM GAS  C:\Users\SMART\AppData\Local\Temp\ccwDMaLv.s 			page 57


1140:../../Drivers/STM32N6xx_HAL_Driver/Src/stm32n6xx_hal.c **** HAL_StatusTypeDef HAL_SYSCFG_ReEnableWritePostingErrorCapture(void)
1141:../../Drivers/STM32N6xx_HAL_Driver/Src/stm32n6xx_hal.c **** {
 2083              		.loc 1 1141 1 is_stmt 1 view -0
 2084              		.cfi_startproc
 2085              		@ args = 0, pretend = 0, frame = 0
 2086              		@ frame_needed = 0, uses_anonymous_args = 0
 2087              		@ link register save eliminated.
1142:../../Drivers/STM32N6xx_HAL_Driver/Src/stm32n6xx_hal.c ****   /* Re-enable HW write posting detection mechanism */
1143:../../Drivers/STM32N6xx_HAL_Driver/Src/stm32n6xx_hal.c ****   SET_BIT(SYSCFG->CM55PAHBWPR, SYSCFG_CM55PAHBWPR_PAHB_ERROR_ACK);
 2088              		.loc 1 1143 3 view .LVU374
 2089 0000 054B     		ldr	r3, .L208
 2090 0002 DA69     		ldr	r2, [r3, #28]
 2091 0004 42F00102 		orr	r2, r2, #1
 2092 0008 DA61     		str	r2, [r3, #28]
1144:../../Drivers/STM32N6xx_HAL_Driver/Src/stm32n6xx_hal.c **** 
1145:../../Drivers/STM32N6xx_HAL_Driver/Src/stm32n6xx_hal.c ****   CLEAR_BIT(SYSCFG->CM55PAHBWPR, SYSCFG_CM55PAHBWPR_PAHB_ERROR_ACK);
 2093              		.loc 1 1145 3 view .LVU375
 2094 000a DA69     		ldr	r2, [r3, #28]
 2095 000c 22F00102 		bic	r2, r2, #1
 2096 0010 DA61     		str	r2, [r3, #28]
1146:../../Drivers/STM32N6xx_HAL_Driver/Src/stm32n6xx_hal.c **** 
1147:../../Drivers/STM32N6xx_HAL_Driver/Src/stm32n6xx_hal.c ****   return HAL_OK;
 2097              		.loc 1 1147 3 view .LVU376
1148:../../Drivers/STM32N6xx_HAL_Driver/Src/stm32n6xx_hal.c **** }
 2098              		.loc 1 1148 1 is_stmt 0 view .LVU377
 2099 0012 0020     		movs	r0, #0
 2100 0014 7047     		bx	lr
 2101              	.L209:
 2102 0016 00BF     		.align	2
 2103              	.L208:
 2104 0018 00800056 		.word	1442873344
 2105              		.cfi_endproc
 2106              	.LFE921:
 2108              		.section	.text.HAL_SYSCFG_EnableVENCRAMReserved,"ax",%progbits
 2109              		.align	1
 2110              		.global	HAL_SYSCFG_EnableVENCRAMReserved
 2111              		.syntax unified
 2112              		.thumb
 2113              		.thumb_func
 2115              	HAL_SYSCFG_EnableVENCRAMReserved:
 2116              	.LFB922:
1149:../../Drivers/STM32N6xx_HAL_Driver/Src/stm32n6xx_hal.c **** 
1150:../../Drivers/STM32N6xx_HAL_Driver/Src/stm32n6xx_hal.c **** #if defined(VENC)
1151:../../Drivers/STM32N6xx_HAL_Driver/Src/stm32n6xx_hal.c **** /**
1152:../../Drivers/STM32N6xx_HAL_Driver/Src/stm32n6xx_hal.c ****   * @brief  Reserve the VENCRAM allocation to VENC.
1153:../../Drivers/STM32N6xx_HAL_Driver/Src/stm32n6xx_hal.c ****   * @retval None
1154:../../Drivers/STM32N6xx_HAL_Driver/Src/stm32n6xx_hal.c ****   */
1155:../../Drivers/STM32N6xx_HAL_Driver/Src/stm32n6xx_hal.c **** void HAL_SYSCFG_EnableVENCRAMReserved(void)
1156:../../Drivers/STM32N6xx_HAL_Driver/Src/stm32n6xx_hal.c **** {
 2117              		.loc 1 1156 1 is_stmt 1 view -0
 2118              		.cfi_startproc
 2119              		@ args = 0, pretend = 0, frame = 0
 2120              		@ frame_needed = 0, uses_anonymous_args = 0
 2121              		@ link register save eliminated.
1157:../../Drivers/STM32N6xx_HAL_Driver/Src/stm32n6xx_hal.c ****   CLEAR_BIT(SYSCFG->VENCRAMCR, SYSCFG_VENCRAMCR_VENCRAM_EN);
 2122              		.loc 1 1157 3 view .LVU379
 2123 0000 024A     		ldr	r2, .L211
ARM GAS  C:\Users\SMART\AppData\Local\Temp\ccwDMaLv.s 			page 58


 2124 0002 136A     		ldr	r3, [r2, #32]
 2125 0004 23F00103 		bic	r3, r3, #1
 2126 0008 1362     		str	r3, [r2, #32]
1158:../../Drivers/STM32N6xx_HAL_Driver/Src/stm32n6xx_hal.c **** }
 2127              		.loc 1 1158 1 is_stmt 0 view .LVU380
 2128 000a 7047     		bx	lr
 2129              	.L212:
 2130              		.align	2
 2131              	.L211:
 2132 000c 00800056 		.word	1442873344
 2133              		.cfi_endproc
 2134              	.LFE922:
 2136              		.section	.text.HAL_SYSCFG_DisableVENCRAMReserved,"ax",%progbits
 2137              		.align	1
 2138              		.global	HAL_SYSCFG_DisableVENCRAMReserved
 2139              		.syntax unified
 2140              		.thumb
 2141              		.thumb_func
 2143              	HAL_SYSCFG_DisableVENCRAMReserved:
 2144              	.LFB923:
1159:../../Drivers/STM32N6xx_HAL_Driver/Src/stm32n6xx_hal.c **** 
1160:../../Drivers/STM32N6xx_HAL_Driver/Src/stm32n6xx_hal.c **** /**
1161:../../Drivers/STM32N6xx_HAL_Driver/Src/stm32n6xx_hal.c ****   * @brief  Release the VENCRAM allocation to VENC (any use allowed).
1162:../../Drivers/STM32N6xx_HAL_Driver/Src/stm32n6xx_hal.c ****   * @retval None
1163:../../Drivers/STM32N6xx_HAL_Driver/Src/stm32n6xx_hal.c ****   */
1164:../../Drivers/STM32N6xx_HAL_Driver/Src/stm32n6xx_hal.c **** void HAL_SYSCFG_DisableVENCRAMReserved(void)
1165:../../Drivers/STM32N6xx_HAL_Driver/Src/stm32n6xx_hal.c **** {
 2145              		.loc 1 1165 1 is_stmt 1 view -0
 2146              		.cfi_startproc
 2147              		@ args = 0, pretend = 0, frame = 0
 2148              		@ frame_needed = 0, uses_anonymous_args = 0
 2149              		@ link register save eliminated.
1166:../../Drivers/STM32N6xx_HAL_Driver/Src/stm32n6xx_hal.c ****   SET_BIT(SYSCFG->VENCRAMCR, SYSCFG_VENCRAMCR_VENCRAM_EN);
 2150              		.loc 1 1166 3 view .LVU382
 2151 0000 024A     		ldr	r2, .L214
 2152 0002 136A     		ldr	r3, [r2, #32]
 2153 0004 43F00103 		orr	r3, r3, #1
 2154 0008 1362     		str	r3, [r2, #32]
1167:../../Drivers/STM32N6xx_HAL_Driver/Src/stm32n6xx_hal.c **** }
 2155              		.loc 1 1167 1 is_stmt 0 view .LVU383
 2156 000a 7047     		bx	lr
 2157              	.L215:
 2158              		.align	2
 2159              	.L214:
 2160 000c 00800056 		.word	1442873344
 2161              		.cfi_endproc
 2162              	.LFE923:
 2164              		.section	.text.HAL_SYSCFG_EnableCRYPPotentialTamper,"ax",%progbits
 2165              		.align	1
 2166              		.global	HAL_SYSCFG_EnableCRYPPotentialTamper
 2167              		.syntax unified
 2168              		.thumb
 2169              		.thumb_func
 2171              	HAL_SYSCFG_EnableCRYPPotentialTamper:
 2172              	.LFB924:
1168:../../Drivers/STM32N6xx_HAL_Driver/Src/stm32n6xx_hal.c **** 
1169:../../Drivers/STM32N6xx_HAL_Driver/Src/stm32n6xx_hal.c **** #endif /* VENC */
ARM GAS  C:\Users\SMART\AppData\Local\Temp\ccwDMaLv.s 			page 59


1170:../../Drivers/STM32N6xx_HAL_Driver/Src/stm32n6xx_hal.c **** 
1171:../../Drivers/STM32N6xx_HAL_Driver/Src/stm32n6xx_hal.c **** /**
1172:../../Drivers/STM32N6xx_HAL_Driver/Src/stm32n6xx_hal.c ****   * @brief  Enable PKA, SAES, CRYP1/2, and HASH reset, in case of potential tamper
1173:../../Drivers/STM32N6xx_HAL_Driver/Src/stm32n6xx_hal.c ****   * @retval None
1174:../../Drivers/STM32N6xx_HAL_Driver/Src/stm32n6xx_hal.c ****   */
1175:../../Drivers/STM32N6xx_HAL_Driver/Src/stm32n6xx_hal.c **** void HAL_SYSCFG_EnableCRYPPotentialTamper(void)
1176:../../Drivers/STM32N6xx_HAL_Driver/Src/stm32n6xx_hal.c **** {
 2173              		.loc 1 1176 1 is_stmt 1 view -0
 2174              		.cfi_startproc
 2175              		@ args = 0, pretend = 0, frame = 0
 2176              		@ frame_needed = 0, uses_anonymous_args = 0
 2177              		@ link register save eliminated.
1177:../../Drivers/STM32N6xx_HAL_Driver/Src/stm32n6xx_hal.c ****   CLEAR_BIT(SYSCFG->POTTAMPRSTCR, SYSCFG_POTTAMPRSTCR_POTTAMPERSETMASK);
 2178              		.loc 1 1177 3 view .LVU385
 2179 0000 024A     		ldr	r2, .L217
 2180 0002 536A     		ldr	r3, [r2, #36]
 2181 0004 23F00103 		bic	r3, r3, #1
 2182 0008 5362     		str	r3, [r2, #36]
1178:../../Drivers/STM32N6xx_HAL_Driver/Src/stm32n6xx_hal.c **** }
 2183              		.loc 1 1178 1 is_stmt 0 view .LVU386
 2184 000a 7047     		bx	lr
 2185              	.L218:
 2186              		.align	2
 2187              	.L217:
 2188 000c 00800056 		.word	1442873344
 2189              		.cfi_endproc
 2190              	.LFE924:
 2192              		.section	.text.HAL_SYSCFG_DisableCRYPPotentialTamper,"ax",%progbits
 2193              		.align	1
 2194              		.global	HAL_SYSCFG_DisableCRYPPotentialTamper
 2195              		.syntax unified
 2196              		.thumb
 2197              		.thumb_func
 2199              	HAL_SYSCFG_DisableCRYPPotentialTamper:
 2200              	.LFB925:
1179:../../Drivers/STM32N6xx_HAL_Driver/Src/stm32n6xx_hal.c **** 
1180:../../Drivers/STM32N6xx_HAL_Driver/Src/stm32n6xx_hal.c **** /**
1181:../../Drivers/STM32N6xx_HAL_Driver/Src/stm32n6xx_hal.c ****   * @brief  Disable PKA, SAES, CRYP1/2, and HASH reset, in case of potential tamper
1182:../../Drivers/STM32N6xx_HAL_Driver/Src/stm32n6xx_hal.c ****   * @retval None
1183:../../Drivers/STM32N6xx_HAL_Driver/Src/stm32n6xx_hal.c ****   */
1184:../../Drivers/STM32N6xx_HAL_Driver/Src/stm32n6xx_hal.c **** void HAL_SYSCFG_DisableCRYPPotentialTamper(void)
1185:../../Drivers/STM32N6xx_HAL_Driver/Src/stm32n6xx_hal.c **** {
 2201              		.loc 1 1185 1 is_stmt 1 view -0
 2202              		.cfi_startproc
 2203              		@ args = 0, pretend = 0, frame = 0
 2204              		@ frame_needed = 0, uses_anonymous_args = 0
 2205              		@ link register save eliminated.
1186:../../Drivers/STM32N6xx_HAL_Driver/Src/stm32n6xx_hal.c ****   SET_BIT(SYSCFG->POTTAMPRSTCR, SYSCFG_POTTAMPRSTCR_POTTAMPERSETMASK);
 2206              		.loc 1 1186 3 view .LVU388
 2207 0000 024A     		ldr	r2, .L220
 2208 0002 536A     		ldr	r3, [r2, #36]
 2209 0004 43F00103 		orr	r3, r3, #1
 2210 0008 5362     		str	r3, [r2, #36]
1187:../../Drivers/STM32N6xx_HAL_Driver/Src/stm32n6xx_hal.c **** }
 2211              		.loc 1 1187 1 is_stmt 0 view .LVU389
 2212 000a 7047     		bx	lr
 2213              	.L221:
ARM GAS  C:\Users\SMART\AppData\Local\Temp\ccwDMaLv.s 			page 60


 2214              		.align	2
 2215              	.L220:
 2216 000c 00800056 		.word	1442873344
 2217              		.cfi_endproc
 2218              	.LFE925:
 2220              		.section	.text.HAL_SYSCFG_SetWriteQosNP1,"ax",%progbits
 2221              		.align	1
 2222              		.global	HAL_SYSCFG_SetWriteQosNP1
 2223              		.syntax unified
 2224              		.thumb
 2225              		.thumb_func
 2227              	HAL_SYSCFG_SetWriteQosNP1:
 2228              	.LVL76:
 2229              	.LFB926:
1188:../../Drivers/STM32N6xx_HAL_Driver/Src/stm32n6xx_hal.c **** 
1189:../../Drivers/STM32N6xx_HAL_Driver/Src/stm32n6xx_hal.c **** #if defined(SYSCFG_NPUNICQOSCR_NPU1_ARQOSR)
1190:../../Drivers/STM32N6xx_HAL_Driver/Src/stm32n6xx_hal.c **** /**
1191:../../Drivers/STM32N6xx_HAL_Driver/Src/stm32n6xx_hal.c ****   * @brief  Set write QoS information for master port from NP1 NPUNIC
1192:../../Drivers/STM32N6xx_HAL_Driver/Src/stm32n6xx_hal.c ****   * @param  QosValue Write QoS value (0 to 15).
1193:../../Drivers/STM32N6xx_HAL_Driver/Src/stm32n6xx_hal.c ****   * @retval None
1194:../../Drivers/STM32N6xx_HAL_Driver/Src/stm32n6xx_hal.c ****   */
1195:../../Drivers/STM32N6xx_HAL_Driver/Src/stm32n6xx_hal.c **** void HAL_SYSCFG_SetWriteQosNP1(uint32_t QosValue)
1196:../../Drivers/STM32N6xx_HAL_Driver/Src/stm32n6xx_hal.c **** {
 2230              		.loc 1 1196 1 is_stmt 1 view -0
 2231              		.cfi_startproc
 2232              		@ args = 0, pretend = 0, frame = 0
 2233              		@ frame_needed = 0, uses_anonymous_args = 0
 2234              		@ link register save eliminated.
1197:../../Drivers/STM32N6xx_HAL_Driver/Src/stm32n6xx_hal.c ****   /* Check the parameters */
1198:../../Drivers/STM32N6xx_HAL_Driver/Src/stm32n6xx_hal.c ****   assert_param(IS_SYSCFG_QOS_CPU(QosValue));
 2235              		.loc 1 1198 3 view .LVU391
1199:../../Drivers/STM32N6xx_HAL_Driver/Src/stm32n6xx_hal.c **** 
1200:../../Drivers/STM32N6xx_HAL_Driver/Src/stm32n6xx_hal.c ****   MODIFY_REG(SYSCFG->NPUNICQOSCR, SYSCFG_NPUNICQOSCR_NPU1_ARQOSW, QosValue << 4U);
 2236              		.loc 1 1200 3 view .LVU392
 2237 0000 034A     		ldr	r2, .L223
 2238 0002 936A     		ldr	r3, [r2, #40]
 2239 0004 23F0F003 		bic	r3, r3, #240
 2240 0008 43EA0013 		orr	r3, r3, r0, lsl #4
 2241 000c 9362     		str	r3, [r2, #40]
1201:../../Drivers/STM32N6xx_HAL_Driver/Src/stm32n6xx_hal.c **** }
 2242              		.loc 1 1201 1 is_stmt 0 view .LVU393
 2243 000e 7047     		bx	lr
 2244              	.L224:
 2245              		.align	2
 2246              	.L223:
 2247 0010 00800056 		.word	1442873344
 2248              		.cfi_endproc
 2249              	.LFE926:
 2251              		.section	.text.HAL_SYSCFG_GetWriteQosNP1,"ax",%progbits
 2252              		.align	1
 2253              		.global	HAL_SYSCFG_GetWriteQosNP1
 2254              		.syntax unified
 2255              		.thumb
 2256              		.thumb_func
 2258              	HAL_SYSCFG_GetWriteQosNP1:
 2259              	.LVL77:
 2260              	.LFB927:
ARM GAS  C:\Users\SMART\AppData\Local\Temp\ccwDMaLv.s 			page 61


1202:../../Drivers/STM32N6xx_HAL_Driver/Src/stm32n6xx_hal.c **** 
1203:../../Drivers/STM32N6xx_HAL_Driver/Src/stm32n6xx_hal.c **** /**
1204:../../Drivers/STM32N6xx_HAL_Driver/Src/stm32n6xx_hal.c ****   * @brief  Get write QoS information for master port from NP1 NPUNIC
1205:../../Drivers/STM32N6xx_HAL_Driver/Src/stm32n6xx_hal.c ****   * @param  pQosValue Pointer to return write QOS value (0 to 15)
1206:../../Drivers/STM32N6xx_HAL_Driver/Src/stm32n6xx_hal.c ****   * @retval HAL status
1207:../../Drivers/STM32N6xx_HAL_Driver/Src/stm32n6xx_hal.c ****   */
1208:../../Drivers/STM32N6xx_HAL_Driver/Src/stm32n6xx_hal.c **** 
1209:../../Drivers/STM32N6xx_HAL_Driver/Src/stm32n6xx_hal.c **** HAL_StatusTypeDef HAL_SYSCFG_GetWriteQosNP1(uint32_t *pQosValue)
1210:../../Drivers/STM32N6xx_HAL_Driver/Src/stm32n6xx_hal.c **** {
 2261              		.loc 1 1210 1 is_stmt 1 view -0
 2262              		.cfi_startproc
 2263              		@ args = 0, pretend = 0, frame = 0
 2264              		@ frame_needed = 0, uses_anonymous_args = 0
 2265              		@ link register save eliminated.
1211:../../Drivers/STM32N6xx_HAL_Driver/Src/stm32n6xx_hal.c ****   /* Check null pointer */
1212:../../Drivers/STM32N6xx_HAL_Driver/Src/stm32n6xx_hal.c ****   if (pQosValue == NULL)
 2266              		.loc 1 1212 3 view .LVU395
 2267              		.loc 1 1212 6 is_stmt 0 view .LVU396
 2268 0000 30B1     		cbz	r0, .L227
1213:../../Drivers/STM32N6xx_HAL_Driver/Src/stm32n6xx_hal.c ****   {
1214:../../Drivers/STM32N6xx_HAL_Driver/Src/stm32n6xx_hal.c ****     return HAL_ERROR;
1215:../../Drivers/STM32N6xx_HAL_Driver/Src/stm32n6xx_hal.c ****   }
1216:../../Drivers/STM32N6xx_HAL_Driver/Src/stm32n6xx_hal.c **** 
1217:../../Drivers/STM32N6xx_HAL_Driver/Src/stm32n6xx_hal.c ****   /* Get the QOS */
1218:../../Drivers/STM32N6xx_HAL_Driver/Src/stm32n6xx_hal.c ****   *pQosValue = (READ_BIT(SYSCFG->NPUNICQOSCR, SYSCFG_NPUNICQOSCR_NPU1_ARQOSW) >> 4U);
 2269              		.loc 1 1218 3 is_stmt 1 view .LVU397
 2270              		.loc 1 1218 17 is_stmt 0 view .LVU398
 2271 0002 044B     		ldr	r3, .L228
 2272 0004 9B6A     		ldr	r3, [r3, #40]
 2273              		.loc 1 1218 79 view .LVU399
 2274 0006 C3F30313 		ubfx	r3, r3, #4, #4
 2275              		.loc 1 1218 14 view .LVU400
 2276 000a 0360     		str	r3, [r0]
1219:../../Drivers/STM32N6xx_HAL_Driver/Src/stm32n6xx_hal.c **** 
1220:../../Drivers/STM32N6xx_HAL_Driver/Src/stm32n6xx_hal.c ****   return HAL_OK;
 2277              		.loc 1 1220 3 is_stmt 1 view .LVU401
 2278              		.loc 1 1220 10 is_stmt 0 view .LVU402
 2279 000c 0020     		movs	r0, #0
 2280              	.LVL78:
 2281              		.loc 1 1220 10 view .LVU403
 2282 000e 7047     		bx	lr
 2283              	.LVL79:
 2284              	.L227:
1214:../../Drivers/STM32N6xx_HAL_Driver/Src/stm32n6xx_hal.c ****   }
 2285              		.loc 1 1214 12 view .LVU404
 2286 0010 0120     		movs	r0, #1
 2287              	.LVL80:
1221:../../Drivers/STM32N6xx_HAL_Driver/Src/stm32n6xx_hal.c **** }
 2288              		.loc 1 1221 1 view .LVU405
 2289 0012 7047     		bx	lr
 2290              	.L229:
 2291              		.align	2
 2292              	.L228:
 2293 0014 00800056 		.word	1442873344
 2294              		.cfi_endproc
 2295              	.LFE927:
 2297              		.section	.text.HAL_SYSCFG_SetReadQosNP1,"ax",%progbits
ARM GAS  C:\Users\SMART\AppData\Local\Temp\ccwDMaLv.s 			page 62


 2298              		.align	1
 2299              		.global	HAL_SYSCFG_SetReadQosNP1
 2300              		.syntax unified
 2301              		.thumb
 2302              		.thumb_func
 2304              	HAL_SYSCFG_SetReadQosNP1:
 2305              	.LVL81:
 2306              	.LFB928:
1222:../../Drivers/STM32N6xx_HAL_Driver/Src/stm32n6xx_hal.c **** 
1223:../../Drivers/STM32N6xx_HAL_Driver/Src/stm32n6xx_hal.c **** /**
1224:../../Drivers/STM32N6xx_HAL_Driver/Src/stm32n6xx_hal.c ****   * @brief  Set read QoS information for master port from NP1 NPUNIC
1225:../../Drivers/STM32N6xx_HAL_Driver/Src/stm32n6xx_hal.c ****   * @param  QosValue Read QoS value (0 to 15)
1226:../../Drivers/STM32N6xx_HAL_Driver/Src/stm32n6xx_hal.c ****   * @retval None
1227:../../Drivers/STM32N6xx_HAL_Driver/Src/stm32n6xx_hal.c ****   */
1228:../../Drivers/STM32N6xx_HAL_Driver/Src/stm32n6xx_hal.c **** void HAL_SYSCFG_SetReadQosNP1(uint32_t QosValue)
1229:../../Drivers/STM32N6xx_HAL_Driver/Src/stm32n6xx_hal.c **** {
 2307              		.loc 1 1229 1 is_stmt 1 view -0
 2308              		.cfi_startproc
 2309              		@ args = 0, pretend = 0, frame = 0
 2310              		@ frame_needed = 0, uses_anonymous_args = 0
 2311              		@ link register save eliminated.
1230:../../Drivers/STM32N6xx_HAL_Driver/Src/stm32n6xx_hal.c ****   /* Check the parameters */
1231:../../Drivers/STM32N6xx_HAL_Driver/Src/stm32n6xx_hal.c ****   assert_param(IS_SYSCFG_QOS_CPU(QosValue));
 2312              		.loc 1 1231 3 view .LVU407
1232:../../Drivers/STM32N6xx_HAL_Driver/Src/stm32n6xx_hal.c **** 
1233:../../Drivers/STM32N6xx_HAL_Driver/Src/stm32n6xx_hal.c ****   MODIFY_REG(SYSCFG->NPUNICQOSCR, SYSCFG_NPUNICQOSCR_NPU1_ARQOSR, QosValue);
 2313              		.loc 1 1233 3 view .LVU408
 2314 0000 034A     		ldr	r2, .L231
 2315 0002 936A     		ldr	r3, [r2, #40]
 2316 0004 23F00F03 		bic	r3, r3, #15
 2317 0008 0343     		orrs	r3, r3, r0
 2318 000a 9362     		str	r3, [r2, #40]
1234:../../Drivers/STM32N6xx_HAL_Driver/Src/stm32n6xx_hal.c **** }
 2319              		.loc 1 1234 1 is_stmt 0 view .LVU409
 2320 000c 7047     		bx	lr
 2321              	.L232:
 2322 000e 00BF     		.align	2
 2323              	.L231:
 2324 0010 00800056 		.word	1442873344
 2325              		.cfi_endproc
 2326              	.LFE928:
 2328              		.section	.text.HAL_SYSCFG_GetReadQosNP1,"ax",%progbits
 2329              		.align	1
 2330              		.global	HAL_SYSCFG_GetReadQosNP1
 2331              		.syntax unified
 2332              		.thumb
 2333              		.thumb_func
 2335              	HAL_SYSCFG_GetReadQosNP1:
 2336              	.LVL82:
 2337              	.LFB929:
1235:../../Drivers/STM32N6xx_HAL_Driver/Src/stm32n6xx_hal.c **** 
1236:../../Drivers/STM32N6xx_HAL_Driver/Src/stm32n6xx_hal.c **** /**
1237:../../Drivers/STM32N6xx_HAL_Driver/Src/stm32n6xx_hal.c ****   * @brief  Get read QoS information for master port from NP1 NPUNIC
1238:../../Drivers/STM32N6xx_HAL_Driver/Src/stm32n6xx_hal.c ****   * @param  pQosValue Pointer to return read QOS value (0 to 15)
1239:../../Drivers/STM32N6xx_HAL_Driver/Src/stm32n6xx_hal.c ****   * @retval HAL status
1240:../../Drivers/STM32N6xx_HAL_Driver/Src/stm32n6xx_hal.c ****   */
1241:../../Drivers/STM32N6xx_HAL_Driver/Src/stm32n6xx_hal.c **** HAL_StatusTypeDef HAL_SYSCFG_GetReadQosNP1(uint32_t *pQosValue)
ARM GAS  C:\Users\SMART\AppData\Local\Temp\ccwDMaLv.s 			page 63


1242:../../Drivers/STM32N6xx_HAL_Driver/Src/stm32n6xx_hal.c **** {
 2338              		.loc 1 1242 1 is_stmt 1 view -0
 2339              		.cfi_startproc
 2340              		@ args = 0, pretend = 0, frame = 0
 2341              		@ frame_needed = 0, uses_anonymous_args = 0
 2342              		@ link register save eliminated.
1243:../../Drivers/STM32N6xx_HAL_Driver/Src/stm32n6xx_hal.c ****   /* Check null pointer */
1244:../../Drivers/STM32N6xx_HAL_Driver/Src/stm32n6xx_hal.c ****   if (pQosValue == NULL)
 2343              		.loc 1 1244 3 view .LVU411
 2344              		.loc 1 1244 6 is_stmt 0 view .LVU412
 2345 0000 30B1     		cbz	r0, .L235
1245:../../Drivers/STM32N6xx_HAL_Driver/Src/stm32n6xx_hal.c ****   {
1246:../../Drivers/STM32N6xx_HAL_Driver/Src/stm32n6xx_hal.c ****     return HAL_ERROR;
1247:../../Drivers/STM32N6xx_HAL_Driver/Src/stm32n6xx_hal.c ****   }
1248:../../Drivers/STM32N6xx_HAL_Driver/Src/stm32n6xx_hal.c **** 
1249:../../Drivers/STM32N6xx_HAL_Driver/Src/stm32n6xx_hal.c ****   /* Get the QOS */
1250:../../Drivers/STM32N6xx_HAL_Driver/Src/stm32n6xx_hal.c ****   *pQosValue = READ_BIT(SYSCFG->NPUNICQOSCR, SYSCFG_NPUNICQOSCR_NPU1_ARQOSR);
 2346              		.loc 1 1250 3 is_stmt 1 view .LVU413
 2347              		.loc 1 1250 16 is_stmt 0 view .LVU414
 2348 0002 044B     		ldr	r3, .L236
 2349 0004 9B6A     		ldr	r3, [r3, #40]
 2350 0006 03F00F03 		and	r3, r3, #15
 2351              		.loc 1 1250 14 view .LVU415
 2352 000a 0360     		str	r3, [r0]
1251:../../Drivers/STM32N6xx_HAL_Driver/Src/stm32n6xx_hal.c **** 
1252:../../Drivers/STM32N6xx_HAL_Driver/Src/stm32n6xx_hal.c ****   return HAL_OK;
 2353              		.loc 1 1252 3 is_stmt 1 view .LVU416
 2354              		.loc 1 1252 10 is_stmt 0 view .LVU417
 2355 000c 0020     		movs	r0, #0
 2356              	.LVL83:
 2357              		.loc 1 1252 10 view .LVU418
 2358 000e 7047     		bx	lr
 2359              	.LVL84:
 2360              	.L235:
1246:../../Drivers/STM32N6xx_HAL_Driver/Src/stm32n6xx_hal.c ****   }
 2361              		.loc 1 1246 12 view .LVU419
 2362 0010 0120     		movs	r0, #1
 2363              	.LVL85:
1253:../../Drivers/STM32N6xx_HAL_Driver/Src/stm32n6xx_hal.c **** }
 2364              		.loc 1 1253 1 view .LVU420
 2365 0012 7047     		bx	lr
 2366              	.L237:
 2367              		.align	2
 2368              	.L236:
 2369 0014 00800056 		.word	1442873344
 2370              		.cfi_endproc
 2371              	.LFE929:
 2373              		.section	.text.HAL_SYSCFG_SetWriteQosNP2,"ax",%progbits
 2374              		.align	1
 2375              		.global	HAL_SYSCFG_SetWriteQosNP2
 2376              		.syntax unified
 2377              		.thumb
 2378              		.thumb_func
 2380              	HAL_SYSCFG_SetWriteQosNP2:
 2381              	.LVL86:
 2382              	.LFB930:
1254:../../Drivers/STM32N6xx_HAL_Driver/Src/stm32n6xx_hal.c **** 
ARM GAS  C:\Users\SMART\AppData\Local\Temp\ccwDMaLv.s 			page 64


1255:../../Drivers/STM32N6xx_HAL_Driver/Src/stm32n6xx_hal.c **** /**
1256:../../Drivers/STM32N6xx_HAL_Driver/Src/stm32n6xx_hal.c ****   * @brief  Set write QoS information for master port from NP2 NPUNIC
1257:../../Drivers/STM32N6xx_HAL_Driver/Src/stm32n6xx_hal.c ****   * @param  QosValue Write Qos value (0 to 15)
1258:../../Drivers/STM32N6xx_HAL_Driver/Src/stm32n6xx_hal.c ****   * @retval None
1259:../../Drivers/STM32N6xx_HAL_Driver/Src/stm32n6xx_hal.c ****   */
1260:../../Drivers/STM32N6xx_HAL_Driver/Src/stm32n6xx_hal.c **** void HAL_SYSCFG_SetWriteQosNP2(uint32_t QosValue)
1261:../../Drivers/STM32N6xx_HAL_Driver/Src/stm32n6xx_hal.c **** {
 2383              		.loc 1 1261 1 is_stmt 1 view -0
 2384              		.cfi_startproc
 2385              		@ args = 0, pretend = 0, frame = 0
 2386              		@ frame_needed = 0, uses_anonymous_args = 0
 2387              		@ link register save eliminated.
1262:../../Drivers/STM32N6xx_HAL_Driver/Src/stm32n6xx_hal.c ****   /* Check the parameters */
1263:../../Drivers/STM32N6xx_HAL_Driver/Src/stm32n6xx_hal.c ****   assert_param(IS_SYSCFG_QOS_CPU(QosValue));
 2388              		.loc 1 1263 3 view .LVU422
1264:../../Drivers/STM32N6xx_HAL_Driver/Src/stm32n6xx_hal.c **** 
1265:../../Drivers/STM32N6xx_HAL_Driver/Src/stm32n6xx_hal.c ****   MODIFY_REG(SYSCFG->NPUNICQOSCR, SYSCFG_NPUNICQOSCR_NPU2_ARQOSW, QosValue << 12U);
 2389              		.loc 1 1265 3 view .LVU423
 2390 0000 034A     		ldr	r2, .L239
 2391 0002 936A     		ldr	r3, [r2, #40]
 2392 0004 23F47043 		bic	r3, r3, #61440
 2393 0008 43EA0033 		orr	r3, r3, r0, lsl #12
 2394 000c 9362     		str	r3, [r2, #40]
1266:../../Drivers/STM32N6xx_HAL_Driver/Src/stm32n6xx_hal.c **** }
 2395              		.loc 1 1266 1 is_stmt 0 view .LVU424
 2396 000e 7047     		bx	lr
 2397              	.L240:
 2398              		.align	2
 2399              	.L239:
 2400 0010 00800056 		.word	1442873344
 2401              		.cfi_endproc
 2402              	.LFE930:
 2404              		.section	.text.HAL_SYSCFG_GetWriteQosNP2,"ax",%progbits
 2405              		.align	1
 2406              		.global	HAL_SYSCFG_GetWriteQosNP2
 2407              		.syntax unified
 2408              		.thumb
 2409              		.thumb_func
 2411              	HAL_SYSCFG_GetWriteQosNP2:
 2412              	.LVL87:
 2413              	.LFB931:
1267:../../Drivers/STM32N6xx_HAL_Driver/Src/stm32n6xx_hal.c **** 
1268:../../Drivers/STM32N6xx_HAL_Driver/Src/stm32n6xx_hal.c **** /**
1269:../../Drivers/STM32N6xx_HAL_Driver/Src/stm32n6xx_hal.c ****   * @brief  Get write QoS information for master port from NP2 NPUNIC
1270:../../Drivers/STM32N6xx_HAL_Driver/Src/stm32n6xx_hal.c ****   * @param  pQosValue Pointer to return write QOS value (0 to 15)
1271:../../Drivers/STM32N6xx_HAL_Driver/Src/stm32n6xx_hal.c ****   * @retval HAL status
1272:../../Drivers/STM32N6xx_HAL_Driver/Src/stm32n6xx_hal.c ****   */
1273:../../Drivers/STM32N6xx_HAL_Driver/Src/stm32n6xx_hal.c **** HAL_StatusTypeDef HAL_SYSCFG_GetWriteQosNP2(uint32_t *pQosValue)
1274:../../Drivers/STM32N6xx_HAL_Driver/Src/stm32n6xx_hal.c **** {
 2414              		.loc 1 1274 1 is_stmt 1 view -0
 2415              		.cfi_startproc
 2416              		@ args = 0, pretend = 0, frame = 0
 2417              		@ frame_needed = 0, uses_anonymous_args = 0
 2418              		@ link register save eliminated.
1275:../../Drivers/STM32N6xx_HAL_Driver/Src/stm32n6xx_hal.c ****   /* Check null pointer */
1276:../../Drivers/STM32N6xx_HAL_Driver/Src/stm32n6xx_hal.c ****   if (pQosValue == NULL)
 2419              		.loc 1 1276 3 view .LVU426
ARM GAS  C:\Users\SMART\AppData\Local\Temp\ccwDMaLv.s 			page 65


 2420              		.loc 1 1276 6 is_stmt 0 view .LVU427
 2421 0000 30B1     		cbz	r0, .L243
1277:../../Drivers/STM32N6xx_HAL_Driver/Src/stm32n6xx_hal.c ****   {
1278:../../Drivers/STM32N6xx_HAL_Driver/Src/stm32n6xx_hal.c ****     return HAL_ERROR;
1279:../../Drivers/STM32N6xx_HAL_Driver/Src/stm32n6xx_hal.c ****   }
1280:../../Drivers/STM32N6xx_HAL_Driver/Src/stm32n6xx_hal.c **** 
1281:../../Drivers/STM32N6xx_HAL_Driver/Src/stm32n6xx_hal.c ****   /* Get the QOS */
1282:../../Drivers/STM32N6xx_HAL_Driver/Src/stm32n6xx_hal.c ****   *pQosValue = (READ_BIT(SYSCFG->NPUNICQOSCR, SYSCFG_NPUNICQOSCR_NPU2_ARQOSW) >> 12U);
 2422              		.loc 1 1282 3 is_stmt 1 view .LVU428
 2423              		.loc 1 1282 17 is_stmt 0 view .LVU429
 2424 0002 044B     		ldr	r3, .L244
 2425 0004 9B6A     		ldr	r3, [r3, #40]
 2426              		.loc 1 1282 79 view .LVU430
 2427 0006 C3F30333 		ubfx	r3, r3, #12, #4
 2428              		.loc 1 1282 14 view .LVU431
 2429 000a 0360     		str	r3, [r0]
1283:../../Drivers/STM32N6xx_HAL_Driver/Src/stm32n6xx_hal.c **** 
1284:../../Drivers/STM32N6xx_HAL_Driver/Src/stm32n6xx_hal.c ****   return HAL_OK;
 2430              		.loc 1 1284 3 is_stmt 1 view .LVU432
 2431              		.loc 1 1284 10 is_stmt 0 view .LVU433
 2432 000c 0020     		movs	r0, #0
 2433              	.LVL88:
 2434              		.loc 1 1284 10 view .LVU434
 2435 000e 7047     		bx	lr
 2436              	.LVL89:
 2437              	.L243:
1278:../../Drivers/STM32N6xx_HAL_Driver/Src/stm32n6xx_hal.c ****   }
 2438              		.loc 1 1278 12 view .LVU435
 2439 0010 0120     		movs	r0, #1
 2440              	.LVL90:
1285:../../Drivers/STM32N6xx_HAL_Driver/Src/stm32n6xx_hal.c **** }
 2441              		.loc 1 1285 1 view .LVU436
 2442 0012 7047     		bx	lr
 2443              	.L245:
 2444              		.align	2
 2445              	.L244:
 2446 0014 00800056 		.word	1442873344
 2447              		.cfi_endproc
 2448              	.LFE931:
 2450              		.section	.text.HAL_SYSCFG_SetReadQosNP2,"ax",%progbits
 2451              		.align	1
 2452              		.global	HAL_SYSCFG_SetReadQosNP2
 2453              		.syntax unified
 2454              		.thumb
 2455              		.thumb_func
 2457              	HAL_SYSCFG_SetReadQosNP2:
 2458              	.LVL91:
 2459              	.LFB932:
1286:../../Drivers/STM32N6xx_HAL_Driver/Src/stm32n6xx_hal.c **** 
1287:../../Drivers/STM32N6xx_HAL_Driver/Src/stm32n6xx_hal.c **** /**
1288:../../Drivers/STM32N6xx_HAL_Driver/Src/stm32n6xx_hal.c ****   * @brief  Set read QoS information for master port from NP2 NPUNIC
1289:../../Drivers/STM32N6xx_HAL_Driver/Src/stm32n6xx_hal.c ****   * @param  QosValue Read Qos value (0 to 15)
1290:../../Drivers/STM32N6xx_HAL_Driver/Src/stm32n6xx_hal.c ****   * @retval None
1291:../../Drivers/STM32N6xx_HAL_Driver/Src/stm32n6xx_hal.c ****   */
1292:../../Drivers/STM32N6xx_HAL_Driver/Src/stm32n6xx_hal.c **** void HAL_SYSCFG_SetReadQosNP2(uint32_t QosValue)
1293:../../Drivers/STM32N6xx_HAL_Driver/Src/stm32n6xx_hal.c **** {
 2460              		.loc 1 1293 1 is_stmt 1 view -0
ARM GAS  C:\Users\SMART\AppData\Local\Temp\ccwDMaLv.s 			page 66


 2461              		.cfi_startproc
 2462              		@ args = 0, pretend = 0, frame = 0
 2463              		@ frame_needed = 0, uses_anonymous_args = 0
 2464              		@ link register save eliminated.
1294:../../Drivers/STM32N6xx_HAL_Driver/Src/stm32n6xx_hal.c ****   /* Check the parameters */
1295:../../Drivers/STM32N6xx_HAL_Driver/Src/stm32n6xx_hal.c ****   assert_param(IS_SYSCFG_QOS_CPU(QosValue));
 2465              		.loc 1 1295 3 view .LVU438
1296:../../Drivers/STM32N6xx_HAL_Driver/Src/stm32n6xx_hal.c **** 
1297:../../Drivers/STM32N6xx_HAL_Driver/Src/stm32n6xx_hal.c ****   MODIFY_REG(SYSCFG->NPUNICQOSCR, SYSCFG_NPUNICQOSCR_NPU2_ARQOSR, QosValue << 8U);
 2466              		.loc 1 1297 3 view .LVU439
 2467 0000 034A     		ldr	r2, .L247
 2468 0002 936A     		ldr	r3, [r2, #40]
 2469 0004 23F47063 		bic	r3, r3, #3840
 2470 0008 43EA0023 		orr	r3, r3, r0, lsl #8
 2471 000c 9362     		str	r3, [r2, #40]
1298:../../Drivers/STM32N6xx_HAL_Driver/Src/stm32n6xx_hal.c **** }
 2472              		.loc 1 1298 1 is_stmt 0 view .LVU440
 2473 000e 7047     		bx	lr
 2474              	.L248:
 2475              		.align	2
 2476              	.L247:
 2477 0010 00800056 		.word	1442873344
 2478              		.cfi_endproc
 2479              	.LFE932:
 2481              		.section	.text.HAL_SYSCFG_GetReadQosNP2,"ax",%progbits
 2482              		.align	1
 2483              		.global	HAL_SYSCFG_GetReadQosNP2
 2484              		.syntax unified
 2485              		.thumb
 2486              		.thumb_func
 2488              	HAL_SYSCFG_GetReadQosNP2:
 2489              	.LVL92:
 2490              	.LFB933:
1299:../../Drivers/STM32N6xx_HAL_Driver/Src/stm32n6xx_hal.c **** 
1300:../../Drivers/STM32N6xx_HAL_Driver/Src/stm32n6xx_hal.c **** /**
1301:../../Drivers/STM32N6xx_HAL_Driver/Src/stm32n6xx_hal.c ****   * @brief  Get read QoS information for master port from NP2 NPUNIC
1302:../../Drivers/STM32N6xx_HAL_Driver/Src/stm32n6xx_hal.c ****   * @param  pQosValue Pointer to return read QOS value (0 to 15)
1303:../../Drivers/STM32N6xx_HAL_Driver/Src/stm32n6xx_hal.c ****   * @retval HAL status
1304:../../Drivers/STM32N6xx_HAL_Driver/Src/stm32n6xx_hal.c ****   */
1305:../../Drivers/STM32N6xx_HAL_Driver/Src/stm32n6xx_hal.c **** HAL_StatusTypeDef HAL_SYSCFG_GetReadQosNP2(uint32_t *pQosValue)
1306:../../Drivers/STM32N6xx_HAL_Driver/Src/stm32n6xx_hal.c **** {
 2491              		.loc 1 1306 1 is_stmt 1 view -0
 2492              		.cfi_startproc
 2493              		@ args = 0, pretend = 0, frame = 0
 2494              		@ frame_needed = 0, uses_anonymous_args = 0
 2495              		@ link register save eliminated.
1307:../../Drivers/STM32N6xx_HAL_Driver/Src/stm32n6xx_hal.c ****   /* Check null pointer */
1308:../../Drivers/STM32N6xx_HAL_Driver/Src/stm32n6xx_hal.c ****   if (pQosValue == NULL)
 2496              		.loc 1 1308 3 view .LVU442
 2497              		.loc 1 1308 6 is_stmt 0 view .LVU443
 2498 0000 30B1     		cbz	r0, .L251
1309:../../Drivers/STM32N6xx_HAL_Driver/Src/stm32n6xx_hal.c ****   {
1310:../../Drivers/STM32N6xx_HAL_Driver/Src/stm32n6xx_hal.c ****     return HAL_ERROR;
1311:../../Drivers/STM32N6xx_HAL_Driver/Src/stm32n6xx_hal.c ****   }
1312:../../Drivers/STM32N6xx_HAL_Driver/Src/stm32n6xx_hal.c **** 
1313:../../Drivers/STM32N6xx_HAL_Driver/Src/stm32n6xx_hal.c ****   /* Get the QOS */
1314:../../Drivers/STM32N6xx_HAL_Driver/Src/stm32n6xx_hal.c ****   *pQosValue = (READ_BIT(SYSCFG->NPUNICQOSCR, SYSCFG_NPUNICQOSCR_NPU2_ARQOSR) >> 8U);
ARM GAS  C:\Users\SMART\AppData\Local\Temp\ccwDMaLv.s 			page 67


 2499              		.loc 1 1314 3 is_stmt 1 view .LVU444
 2500              		.loc 1 1314 17 is_stmt 0 view .LVU445
 2501 0002 044B     		ldr	r3, .L252
 2502 0004 9B6A     		ldr	r3, [r3, #40]
 2503              		.loc 1 1314 79 view .LVU446
 2504 0006 C3F30323 		ubfx	r3, r3, #8, #4
 2505              		.loc 1 1314 14 view .LVU447
 2506 000a 0360     		str	r3, [r0]
1315:../../Drivers/STM32N6xx_HAL_Driver/Src/stm32n6xx_hal.c **** 
1316:../../Drivers/STM32N6xx_HAL_Driver/Src/stm32n6xx_hal.c ****   return HAL_OK;
 2507              		.loc 1 1316 3 is_stmt 1 view .LVU448
 2508              		.loc 1 1316 10 is_stmt 0 view .LVU449
 2509 000c 0020     		movs	r0, #0
 2510              	.LVL93:
 2511              		.loc 1 1316 10 view .LVU450
 2512 000e 7047     		bx	lr
 2513              	.LVL94:
 2514              	.L251:
1310:../../Drivers/STM32N6xx_HAL_Driver/Src/stm32n6xx_hal.c ****   }
 2515              		.loc 1 1310 12 view .LVU451
 2516 0010 0120     		movs	r0, #1
 2517              	.LVL95:
1317:../../Drivers/STM32N6xx_HAL_Driver/Src/stm32n6xx_hal.c **** }
 2518              		.loc 1 1317 1 view .LVU452
 2519 0012 7047     		bx	lr
 2520              	.L253:
 2521              		.align	2
 2522              	.L252:
 2523 0014 00800056 		.word	1442873344
 2524              		.cfi_endproc
 2525              	.LFE933:
 2527              		.section	.text.HAL_SYSCFG_SetWriteQosCPUSS,"ax",%progbits
 2528              		.align	1
 2529              		.global	HAL_SYSCFG_SetWriteQosCPUSS
 2530              		.syntax unified
 2531              		.thumb
 2532              		.thumb_func
 2534              	HAL_SYSCFG_SetWriteQosCPUSS:
 2535              	.LVL96:
 2536              	.LFB934:
1318:../../Drivers/STM32N6xx_HAL_Driver/Src/stm32n6xx_hal.c **** 
1319:../../Drivers/STM32N6xx_HAL_Driver/Src/stm32n6xx_hal.c **** /**
1320:../../Drivers/STM32N6xx_HAL_Driver/Src/stm32n6xx_hal.c ****   * @brief  Set write QoS information for master port from CPUSS NPUNIC
1321:../../Drivers/STM32N6xx_HAL_Driver/Src/stm32n6xx_hal.c ****   * @param  QosValue Write QoS value (0 to 15)
1322:../../Drivers/STM32N6xx_HAL_Driver/Src/stm32n6xx_hal.c ****   * @retval None
1323:../../Drivers/STM32N6xx_HAL_Driver/Src/stm32n6xx_hal.c ****   */
1324:../../Drivers/STM32N6xx_HAL_Driver/Src/stm32n6xx_hal.c **** void HAL_SYSCFG_SetWriteQosCPUSS(uint32_t QosValue)
1325:../../Drivers/STM32N6xx_HAL_Driver/Src/stm32n6xx_hal.c **** {
 2537              		.loc 1 1325 1 is_stmt 1 view -0
 2538              		.cfi_startproc
 2539              		@ args = 0, pretend = 0, frame = 0
 2540              		@ frame_needed = 0, uses_anonymous_args = 0
 2541              		@ link register save eliminated.
1326:../../Drivers/STM32N6xx_HAL_Driver/Src/stm32n6xx_hal.c ****   /* Check the parameters */
1327:../../Drivers/STM32N6xx_HAL_Driver/Src/stm32n6xx_hal.c ****   assert_param(IS_SYSCFG_QOS_CPU(QosValue));
 2542              		.loc 1 1327 3 view .LVU454
1328:../../Drivers/STM32N6xx_HAL_Driver/Src/stm32n6xx_hal.c **** 
ARM GAS  C:\Users\SMART\AppData\Local\Temp\ccwDMaLv.s 			page 68


1329:../../Drivers/STM32N6xx_HAL_Driver/Src/stm32n6xx_hal.c ****   MODIFY_REG(SYSCFG->NPUNICQOSCR, SYSCFG_NPUNICQOSCR_CPUSS_ARQOSW, QosValue << 20U);
 2543              		.loc 1 1329 3 view .LVU455
 2544 0000 034A     		ldr	r2, .L255
 2545 0002 936A     		ldr	r3, [r2, #40]
 2546 0004 23F47003 		bic	r3, r3, #15728640
 2547 0008 43EA0053 		orr	r3, r3, r0, lsl #20
 2548 000c 9362     		str	r3, [r2, #40]
1330:../../Drivers/STM32N6xx_HAL_Driver/Src/stm32n6xx_hal.c **** }
 2549              		.loc 1 1330 1 is_stmt 0 view .LVU456
 2550 000e 7047     		bx	lr
 2551              	.L256:
 2552              		.align	2
 2553              	.L255:
 2554 0010 00800056 		.word	1442873344
 2555              		.cfi_endproc
 2556              	.LFE934:
 2558              		.section	.text.HAL_SYSCFG_GetwriteQosCPUSS,"ax",%progbits
 2559              		.align	1
 2560              		.global	HAL_SYSCFG_GetwriteQosCPUSS
 2561              		.syntax unified
 2562              		.thumb
 2563              		.thumb_func
 2565              	HAL_SYSCFG_GetwriteQosCPUSS:
 2566              	.LVL97:
 2567              	.LFB935:
1331:../../Drivers/STM32N6xx_HAL_Driver/Src/stm32n6xx_hal.c **** 
1332:../../Drivers/STM32N6xx_HAL_Driver/Src/stm32n6xx_hal.c **** /**
1333:../../Drivers/STM32N6xx_HAL_Driver/Src/stm32n6xx_hal.c ****   * @brief  Get write QoS information for master port from CPUSS NPUNIC
1334:../../Drivers/STM32N6xx_HAL_Driver/Src/stm32n6xx_hal.c ****   * @param  pQosValue Pointer to return write QOS value (0 to 15)
1335:../../Drivers/STM32N6xx_HAL_Driver/Src/stm32n6xx_hal.c ****   * @retval HAL status
1336:../../Drivers/STM32N6xx_HAL_Driver/Src/stm32n6xx_hal.c ****   */
1337:../../Drivers/STM32N6xx_HAL_Driver/Src/stm32n6xx_hal.c **** HAL_StatusTypeDef HAL_SYSCFG_GetwriteQosCPUSS(uint32_t *pQosValue)
1338:../../Drivers/STM32N6xx_HAL_Driver/Src/stm32n6xx_hal.c **** {
 2568              		.loc 1 1338 1 is_stmt 1 view -0
 2569              		.cfi_startproc
 2570              		@ args = 0, pretend = 0, frame = 0
 2571              		@ frame_needed = 0, uses_anonymous_args = 0
 2572              		@ link register save eliminated.
1339:../../Drivers/STM32N6xx_HAL_Driver/Src/stm32n6xx_hal.c ****   /* Check null pointer */
1340:../../Drivers/STM32N6xx_HAL_Driver/Src/stm32n6xx_hal.c ****   if (pQosValue == NULL)
 2573              		.loc 1 1340 3 view .LVU458
 2574              		.loc 1 1340 6 is_stmt 0 view .LVU459
 2575 0000 30B1     		cbz	r0, .L259
1341:../../Drivers/STM32N6xx_HAL_Driver/Src/stm32n6xx_hal.c ****   {
1342:../../Drivers/STM32N6xx_HAL_Driver/Src/stm32n6xx_hal.c ****     return HAL_ERROR;
1343:../../Drivers/STM32N6xx_HAL_Driver/Src/stm32n6xx_hal.c ****   }
1344:../../Drivers/STM32N6xx_HAL_Driver/Src/stm32n6xx_hal.c **** 
1345:../../Drivers/STM32N6xx_HAL_Driver/Src/stm32n6xx_hal.c ****   /* Get the QOS */
1346:../../Drivers/STM32N6xx_HAL_Driver/Src/stm32n6xx_hal.c ****   *pQosValue = (READ_BIT(SYSCFG->NPUNICQOSCR, SYSCFG_NPUNICQOSCR_CPUSS_ARQOSW) >> 20U);
 2576              		.loc 1 1346 3 is_stmt 1 view .LVU460
 2577              		.loc 1 1346 17 is_stmt 0 view .LVU461
 2578 0002 044B     		ldr	r3, .L260
 2579 0004 9B6A     		ldr	r3, [r3, #40]
 2580              		.loc 1 1346 80 view .LVU462
 2581 0006 C3F30353 		ubfx	r3, r3, #20, #4
 2582              		.loc 1 1346 14 view .LVU463
 2583 000a 0360     		str	r3, [r0]
ARM GAS  C:\Users\SMART\AppData\Local\Temp\ccwDMaLv.s 			page 69


1347:../../Drivers/STM32N6xx_HAL_Driver/Src/stm32n6xx_hal.c **** 
1348:../../Drivers/STM32N6xx_HAL_Driver/Src/stm32n6xx_hal.c ****   return HAL_OK;
 2584              		.loc 1 1348 3 is_stmt 1 view .LVU464
 2585              		.loc 1 1348 10 is_stmt 0 view .LVU465
 2586 000c 0020     		movs	r0, #0
 2587              	.LVL98:
 2588              		.loc 1 1348 10 view .LVU466
 2589 000e 7047     		bx	lr
 2590              	.LVL99:
 2591              	.L259:
1342:../../Drivers/STM32N6xx_HAL_Driver/Src/stm32n6xx_hal.c ****   }
 2592              		.loc 1 1342 12 view .LVU467
 2593 0010 0120     		movs	r0, #1
 2594              	.LVL100:
1349:../../Drivers/STM32N6xx_HAL_Driver/Src/stm32n6xx_hal.c **** }
 2595              		.loc 1 1349 1 view .LVU468
 2596 0012 7047     		bx	lr
 2597              	.L261:
 2598              		.align	2
 2599              	.L260:
 2600 0014 00800056 		.word	1442873344
 2601              		.cfi_endproc
 2602              	.LFE935:
 2604              		.section	.text.HAL_SYSCFG_SetReadQosCPUSS,"ax",%progbits
 2605              		.align	1
 2606              		.global	HAL_SYSCFG_SetReadQosCPUSS
 2607              		.syntax unified
 2608              		.thumb
 2609              		.thumb_func
 2611              	HAL_SYSCFG_SetReadQosCPUSS:
 2612              	.LVL101:
 2613              	.LFB936:
1350:../../Drivers/STM32N6xx_HAL_Driver/Src/stm32n6xx_hal.c **** 
1351:../../Drivers/STM32N6xx_HAL_Driver/Src/stm32n6xx_hal.c **** /**
1352:../../Drivers/STM32N6xx_HAL_Driver/Src/stm32n6xx_hal.c ****   * @brief  Set read QoS information for master port from CPUSS NPUNIC
1353:../../Drivers/STM32N6xx_HAL_Driver/Src/stm32n6xx_hal.c ****   * @param  QosValue Read QoS value (0 to 15)
1354:../../Drivers/STM32N6xx_HAL_Driver/Src/stm32n6xx_hal.c ****   * @retval None
1355:../../Drivers/STM32N6xx_HAL_Driver/Src/stm32n6xx_hal.c ****   */
1356:../../Drivers/STM32N6xx_HAL_Driver/Src/stm32n6xx_hal.c **** void HAL_SYSCFG_SetReadQosCPUSS(uint32_t QosValue)
1357:../../Drivers/STM32N6xx_HAL_Driver/Src/stm32n6xx_hal.c **** {
 2614              		.loc 1 1357 1 is_stmt 1 view -0
 2615              		.cfi_startproc
 2616              		@ args = 0, pretend = 0, frame = 0
 2617              		@ frame_needed = 0, uses_anonymous_args = 0
 2618              		@ link register save eliminated.
1358:../../Drivers/STM32N6xx_HAL_Driver/Src/stm32n6xx_hal.c ****   /* Check the parameters */
1359:../../Drivers/STM32N6xx_HAL_Driver/Src/stm32n6xx_hal.c ****   assert_param(IS_SYSCFG_QOS_CPU(QosValue));
 2619              		.loc 1 1359 3 view .LVU470
1360:../../Drivers/STM32N6xx_HAL_Driver/Src/stm32n6xx_hal.c **** 
1361:../../Drivers/STM32N6xx_HAL_Driver/Src/stm32n6xx_hal.c ****   MODIFY_REG(SYSCFG->NPUNICQOSCR, SYSCFG_NPUNICQOSCR_CPUSS_ARQOSR, QosValue << 16U);
 2620              		.loc 1 1361 3 view .LVU471
 2621 0000 034A     		ldr	r2, .L263
 2622 0002 936A     		ldr	r3, [r2, #40]
 2623 0004 23F47023 		bic	r3, r3, #983040
 2624 0008 43EA0043 		orr	r3, r3, r0, lsl #16
 2625 000c 9362     		str	r3, [r2, #40]
1362:../../Drivers/STM32N6xx_HAL_Driver/Src/stm32n6xx_hal.c **** }
ARM GAS  C:\Users\SMART\AppData\Local\Temp\ccwDMaLv.s 			page 70


 2626              		.loc 1 1362 1 is_stmt 0 view .LVU472
 2627 000e 7047     		bx	lr
 2628              	.L264:
 2629              		.align	2
 2630              	.L263:
 2631 0010 00800056 		.word	1442873344
 2632              		.cfi_endproc
 2633              	.LFE936:
 2635              		.section	.text.HAL_SYSCFG_GetReadQosCPUSS,"ax",%progbits
 2636              		.align	1
 2637              		.global	HAL_SYSCFG_GetReadQosCPUSS
 2638              		.syntax unified
 2639              		.thumb
 2640              		.thumb_func
 2642              	HAL_SYSCFG_GetReadQosCPUSS:
 2643              	.LVL102:
 2644              	.LFB937:
1363:../../Drivers/STM32N6xx_HAL_Driver/Src/stm32n6xx_hal.c **** 
1364:../../Drivers/STM32N6xx_HAL_Driver/Src/stm32n6xx_hal.c **** /**
1365:../../Drivers/STM32N6xx_HAL_Driver/Src/stm32n6xx_hal.c ****   * @brief  Get read QoS information for master port from CPUSS NPUNIC
1366:../../Drivers/STM32N6xx_HAL_Driver/Src/stm32n6xx_hal.c ****   * @param  pQosValue Pointer to return read QOS value (0 to 15)
1367:../../Drivers/STM32N6xx_HAL_Driver/Src/stm32n6xx_hal.c ****   * @retval HAL status
1368:../../Drivers/STM32N6xx_HAL_Driver/Src/stm32n6xx_hal.c ****   */
1369:../../Drivers/STM32N6xx_HAL_Driver/Src/stm32n6xx_hal.c **** HAL_StatusTypeDef HAL_SYSCFG_GetReadQosCPUSS(uint32_t *pQosValue)
1370:../../Drivers/STM32N6xx_HAL_Driver/Src/stm32n6xx_hal.c **** {
 2645              		.loc 1 1370 1 is_stmt 1 view -0
 2646              		.cfi_startproc
 2647              		@ args = 0, pretend = 0, frame = 0
 2648              		@ frame_needed = 0, uses_anonymous_args = 0
 2649              		@ link register save eliminated.
1371:../../Drivers/STM32N6xx_HAL_Driver/Src/stm32n6xx_hal.c ****   /* Check null pointer */
1372:../../Drivers/STM32N6xx_HAL_Driver/Src/stm32n6xx_hal.c ****   if (pQosValue == NULL)
 2650              		.loc 1 1372 3 view .LVU474
 2651              		.loc 1 1372 6 is_stmt 0 view .LVU475
 2652 0000 30B1     		cbz	r0, .L267
1373:../../Drivers/STM32N6xx_HAL_Driver/Src/stm32n6xx_hal.c ****   {
1374:../../Drivers/STM32N6xx_HAL_Driver/Src/stm32n6xx_hal.c ****     return HAL_ERROR;
1375:../../Drivers/STM32N6xx_HAL_Driver/Src/stm32n6xx_hal.c ****   }
1376:../../Drivers/STM32N6xx_HAL_Driver/Src/stm32n6xx_hal.c **** 
1377:../../Drivers/STM32N6xx_HAL_Driver/Src/stm32n6xx_hal.c ****   /* Get the QOS */
1378:../../Drivers/STM32N6xx_HAL_Driver/Src/stm32n6xx_hal.c ****   *pQosValue = (READ_BIT(SYSCFG->NPUNICQOSCR, SYSCFG_NPUNICQOSCR_CPUSS_ARQOSR) >> 16U);
 2653              		.loc 1 1378 3 is_stmt 1 view .LVU476
 2654              		.loc 1 1378 17 is_stmt 0 view .LVU477
 2655 0002 044B     		ldr	r3, .L268
 2656 0004 9B6A     		ldr	r3, [r3, #40]
 2657              		.loc 1 1378 80 view .LVU478
 2658 0006 C3F30343 		ubfx	r3, r3, #16, #4
 2659              		.loc 1 1378 14 view .LVU479
 2660 000a 0360     		str	r3, [r0]
1379:../../Drivers/STM32N6xx_HAL_Driver/Src/stm32n6xx_hal.c **** 
1380:../../Drivers/STM32N6xx_HAL_Driver/Src/stm32n6xx_hal.c ****   return HAL_OK;
 2661              		.loc 1 1380 3 is_stmt 1 view .LVU480
 2662              		.loc 1 1380 10 is_stmt 0 view .LVU481
 2663 000c 0020     		movs	r0, #0
 2664              	.LVL103:
 2665              		.loc 1 1380 10 view .LVU482
 2666 000e 7047     		bx	lr
ARM GAS  C:\Users\SMART\AppData\Local\Temp\ccwDMaLv.s 			page 71


 2667              	.LVL104:
 2668              	.L267:
1374:../../Drivers/STM32N6xx_HAL_Driver/Src/stm32n6xx_hal.c ****   }
 2669              		.loc 1 1374 12 view .LVU483
 2670 0010 0120     		movs	r0, #1
 2671              	.LVL105:
1381:../../Drivers/STM32N6xx_HAL_Driver/Src/stm32n6xx_hal.c **** }
 2672              		.loc 1 1381 1 view .LVU484
 2673 0012 7047     		bx	lr
 2674              	.L269:
 2675              		.align	2
 2676              	.L268:
 2677 0014 00800056 		.word	1442873344
 2678              		.cfi_endproc
 2679              	.LFE937:
 2681              		.section	.text.HAL_SYSCFG_EnableSDMMCEarlyWRRESP,"ax",%progbits
 2682              		.align	1
 2683              		.global	HAL_SYSCFG_EnableSDMMCEarlyWRRESP
 2684              		.syntax unified
 2685              		.thumb
 2686              		.thumb_func
 2688              	HAL_SYSCFG_EnableSDMMCEarlyWRRESP:
 2689              	.LVL106:
 2690              	.LFB938:
1382:../../Drivers/STM32N6xx_HAL_Driver/Src/stm32n6xx_hal.c **** #endif /* defined(SYSCFG_NPUNICQOSCR_NPU1_ARQOSR) */
1383:../../Drivers/STM32N6xx_HAL_Driver/Src/stm32n6xx_hal.c **** 
1384:../../Drivers/STM32N6xx_HAL_Driver/Src/stm32n6xx_hal.c **** /**
1385:../../Drivers/STM32N6xx_HAL_Driver/Src/stm32n6xx_hal.c ****   * @brief  Enable SDMMC early-write response.
1386:../../Drivers/STM32N6xx_HAL_Driver/Src/stm32n6xx_hal.c ****   * @param  Sdmmc Selected SDMMC instance(s).
1387:../../Drivers/STM32N6xx_HAL_Driver/Src/stm32n6xx_hal.c ****   *               This parameter can be a one of @ref SYSCFG_SDMMCId
1388:../../Drivers/STM32N6xx_HAL_Driver/Src/stm32n6xx_hal.c ****   * @retval None
1389:../../Drivers/STM32N6xx_HAL_Driver/Src/stm32n6xx_hal.c ****   */
1390:../../Drivers/STM32N6xx_HAL_Driver/Src/stm32n6xx_hal.c **** void HAL_SYSCFG_EnableSDMMCEarlyWRRESP(uint32_t Sdmmc)
1391:../../Drivers/STM32N6xx_HAL_Driver/Src/stm32n6xx_hal.c **** {
 2691              		.loc 1 1391 1 is_stmt 1 view -0
 2692              		.cfi_startproc
 2693              		@ args = 0, pretend = 0, frame = 0
 2694              		@ frame_needed = 0, uses_anonymous_args = 0
 2695              		@ link register save eliminated.
1392:../../Drivers/STM32N6xx_HAL_Driver/Src/stm32n6xx_hal.c ****   /* Check the parameters */
1393:../../Drivers/STM32N6xx_HAL_Driver/Src/stm32n6xx_hal.c ****   assert_param(IS_SYSCFG_SDMMC(Sdmmc));
 2696              		.loc 1 1393 3 view .LVU486
1394:../../Drivers/STM32N6xx_HAL_Driver/Src/stm32n6xx_hal.c **** 
1395:../../Drivers/STM32N6xx_HAL_Driver/Src/stm32n6xx_hal.c ****   SET_BIT(SYSCFG->ICNEWRCR, Sdmmc);
 2697              		.loc 1 1395 3 view .LVU487
 2698 0000 024A     		ldr	r2, .L271
 2699 0002 536B     		ldr	r3, [r2, #52]
 2700 0004 0343     		orrs	r3, r3, r0
 2701 0006 5363     		str	r3, [r2, #52]
1396:../../Drivers/STM32N6xx_HAL_Driver/Src/stm32n6xx_hal.c **** }
 2702              		.loc 1 1396 1 is_stmt 0 view .LVU488
 2703 0008 7047     		bx	lr
 2704              	.L272:
 2705 000a 00BF     		.align	2
 2706              	.L271:
 2707 000c 00800056 		.word	1442873344
 2708              		.cfi_endproc
ARM GAS  C:\Users\SMART\AppData\Local\Temp\ccwDMaLv.s 			page 72


 2709              	.LFE938:
 2711              		.section	.text.HAL_SYSCFG_DisableSDMMCEarlyWRRSP,"ax",%progbits
 2712              		.align	1
 2713              		.global	HAL_SYSCFG_DisableSDMMCEarlyWRRSP
 2714              		.syntax unified
 2715              		.thumb
 2716              		.thumb_func
 2718              	HAL_SYSCFG_DisableSDMMCEarlyWRRSP:
 2719              	.LVL107:
 2720              	.LFB939:
1397:../../Drivers/STM32N6xx_HAL_Driver/Src/stm32n6xx_hal.c **** 
1398:../../Drivers/STM32N6xx_HAL_Driver/Src/stm32n6xx_hal.c **** /**
1399:../../Drivers/STM32N6xx_HAL_Driver/Src/stm32n6xx_hal.c ****   * @brief  Disable SDMMC early-write response.
1400:../../Drivers/STM32N6xx_HAL_Driver/Src/stm32n6xx_hal.c ****   * @param  Sdmmc Selected SDMMC instance(s).
1401:../../Drivers/STM32N6xx_HAL_Driver/Src/stm32n6xx_hal.c ****   *               This parameter can be a one of @ref SYSCFG_SDMMCId
1402:../../Drivers/STM32N6xx_HAL_Driver/Src/stm32n6xx_hal.c ****   * @retval None
1403:../../Drivers/STM32N6xx_HAL_Driver/Src/stm32n6xx_hal.c ****   */
1404:../../Drivers/STM32N6xx_HAL_Driver/Src/stm32n6xx_hal.c **** void HAL_SYSCFG_DisableSDMMCEarlyWRRSP(uint32_t Sdmmc)
1405:../../Drivers/STM32N6xx_HAL_Driver/Src/stm32n6xx_hal.c **** {
 2721              		.loc 1 1405 1 is_stmt 1 view -0
 2722              		.cfi_startproc
 2723              		@ args = 0, pretend = 0, frame = 0
 2724              		@ frame_needed = 0, uses_anonymous_args = 0
 2725              		@ link register save eliminated.
1406:../../Drivers/STM32N6xx_HAL_Driver/Src/stm32n6xx_hal.c ****   /* Check the parameters */
1407:../../Drivers/STM32N6xx_HAL_Driver/Src/stm32n6xx_hal.c ****   assert_param(IS_SYSCFG_SDMMC(Sdmmc));
 2726              		.loc 1 1407 3 view .LVU490
1408:../../Drivers/STM32N6xx_HAL_Driver/Src/stm32n6xx_hal.c **** 
1409:../../Drivers/STM32N6xx_HAL_Driver/Src/stm32n6xx_hal.c ****   CLEAR_BIT(SYSCFG->ICNEWRCR, Sdmmc);
 2727              		.loc 1 1409 3 view .LVU491
 2728 0000 024A     		ldr	r2, .L274
 2729 0002 536B     		ldr	r3, [r2, #52]
 2730 0004 23EA0003 		bic	r3, r3, r0
 2731 0008 5363     		str	r3, [r2, #52]
1410:../../Drivers/STM32N6xx_HAL_Driver/Src/stm32n6xx_hal.c **** }
 2732              		.loc 1 1410 1 is_stmt 0 view .LVU492
 2733 000a 7047     		bx	lr
 2734              	.L275:
 2735              		.align	2
 2736              	.L274:
 2737 000c 00800056 		.word	1442873344
 2738              		.cfi_endproc
 2739              	.LFE939:
 2741              		.section	.text.HAL_SYSCFG_EnableUSBEarlyEarlyWRRESP,"ax",%progbits
 2742              		.align	1
 2743              		.global	HAL_SYSCFG_EnableUSBEarlyEarlyWRRESP
 2744              		.syntax unified
 2745              		.thumb
 2746              		.thumb_func
 2748              	HAL_SYSCFG_EnableUSBEarlyEarlyWRRESP:
 2749              	.LVL108:
 2750              	.LFB940:
1411:../../Drivers/STM32N6xx_HAL_Driver/Src/stm32n6xx_hal.c **** 
1412:../../Drivers/STM32N6xx_HAL_Driver/Src/stm32n6xx_hal.c **** /**
1413:../../Drivers/STM32N6xx_HAL_Driver/Src/stm32n6xx_hal.c ****   * @brief  Enable USB early-write response.
1414:../../Drivers/STM32N6xx_HAL_Driver/Src/stm32n6xx_hal.c ****   * @param  Usb Selected USB instance(s).
1415:../../Drivers/STM32N6xx_HAL_Driver/Src/stm32n6xx_hal.c ****   *             This parameter can be a one of @ref SYSCFG_USBId
ARM GAS  C:\Users\SMART\AppData\Local\Temp\ccwDMaLv.s 			page 73


1416:../../Drivers/STM32N6xx_HAL_Driver/Src/stm32n6xx_hal.c ****   * @retval None
1417:../../Drivers/STM32N6xx_HAL_Driver/Src/stm32n6xx_hal.c ****   */
1418:../../Drivers/STM32N6xx_HAL_Driver/Src/stm32n6xx_hal.c **** void HAL_SYSCFG_EnableUSBEarlyEarlyWRRESP(uint32_t Usb)
1419:../../Drivers/STM32N6xx_HAL_Driver/Src/stm32n6xx_hal.c **** {
 2751              		.loc 1 1419 1 is_stmt 1 view -0
 2752              		.cfi_startproc
 2753              		@ args = 0, pretend = 0, frame = 0
 2754              		@ frame_needed = 0, uses_anonymous_args = 0
 2755              		@ link register save eliminated.
1420:../../Drivers/STM32N6xx_HAL_Driver/Src/stm32n6xx_hal.c ****   /* Check the parameters */
1421:../../Drivers/STM32N6xx_HAL_Driver/Src/stm32n6xx_hal.c ****   assert_param(IS_SYSCFG_USB(Usb));
 2756              		.loc 1 1421 3 view .LVU494
1422:../../Drivers/STM32N6xx_HAL_Driver/Src/stm32n6xx_hal.c **** 
1423:../../Drivers/STM32N6xx_HAL_Driver/Src/stm32n6xx_hal.c ****   SET_BIT(SYSCFG->ICNEWRCR, Usb);
 2757              		.loc 1 1423 3 view .LVU495
 2758 0000 024A     		ldr	r2, .L277
 2759 0002 536B     		ldr	r3, [r2, #52]
 2760 0004 0343     		orrs	r3, r3, r0
 2761 0006 5363     		str	r3, [r2, #52]
1424:../../Drivers/STM32N6xx_HAL_Driver/Src/stm32n6xx_hal.c **** }
 2762              		.loc 1 1424 1 is_stmt 0 view .LVU496
 2763 0008 7047     		bx	lr
 2764              	.L278:
 2765 000a 00BF     		.align	2
 2766              	.L277:
 2767 000c 00800056 		.word	1442873344
 2768              		.cfi_endproc
 2769              	.LFE940:
 2771              		.section	.text.HAL_SYSCFG_DisableUSBEarlyEarlyWRRESP,"ax",%progbits
 2772              		.align	1
 2773              		.global	HAL_SYSCFG_DisableUSBEarlyEarlyWRRESP
 2774              		.syntax unified
 2775              		.thumb
 2776              		.thumb_func
 2778              	HAL_SYSCFG_DisableUSBEarlyEarlyWRRESP:
 2779              	.LVL109:
 2780              	.LFB941:
1425:../../Drivers/STM32N6xx_HAL_Driver/Src/stm32n6xx_hal.c **** 
1426:../../Drivers/STM32N6xx_HAL_Driver/Src/stm32n6xx_hal.c **** /**
1427:../../Drivers/STM32N6xx_HAL_Driver/Src/stm32n6xx_hal.c ****   * @brief  Disable USB early-write response.
1428:../../Drivers/STM32N6xx_HAL_Driver/Src/stm32n6xx_hal.c ****   * @param  Usb Selected USB instance(s).
1429:../../Drivers/STM32N6xx_HAL_Driver/Src/stm32n6xx_hal.c ****   *             This parameter can be a one of @ref SYSCFG_USBId
1430:../../Drivers/STM32N6xx_HAL_Driver/Src/stm32n6xx_hal.c ****   * @retval None
1431:../../Drivers/STM32N6xx_HAL_Driver/Src/stm32n6xx_hal.c ****   */
1432:../../Drivers/STM32N6xx_HAL_Driver/Src/stm32n6xx_hal.c **** void HAL_SYSCFG_DisableUSBEarlyEarlyWRRESP(uint32_t Usb)
1433:../../Drivers/STM32N6xx_HAL_Driver/Src/stm32n6xx_hal.c **** {
 2781              		.loc 1 1433 1 is_stmt 1 view -0
 2782              		.cfi_startproc
 2783              		@ args = 0, pretend = 0, frame = 0
 2784              		@ frame_needed = 0, uses_anonymous_args = 0
 2785              		@ link register save eliminated.
1434:../../Drivers/STM32N6xx_HAL_Driver/Src/stm32n6xx_hal.c ****   /* Check the parameters */
1435:../../Drivers/STM32N6xx_HAL_Driver/Src/stm32n6xx_hal.c ****   assert_param(IS_SYSCFG_USB(Usb));
 2786              		.loc 1 1435 3 view .LVU498
1436:../../Drivers/STM32N6xx_HAL_Driver/Src/stm32n6xx_hal.c **** 
1437:../../Drivers/STM32N6xx_HAL_Driver/Src/stm32n6xx_hal.c ****   CLEAR_BIT(SYSCFG->ICNEWRCR, Usb);
 2787              		.loc 1 1437 3 view .LVU499
ARM GAS  C:\Users\SMART\AppData\Local\Temp\ccwDMaLv.s 			page 74


 2788 0000 024A     		ldr	r2, .L280
 2789 0002 536B     		ldr	r3, [r2, #52]
 2790 0004 23EA0003 		bic	r3, r3, r0
 2791 0008 5363     		str	r3, [r2, #52]
1438:../../Drivers/STM32N6xx_HAL_Driver/Src/stm32n6xx_hal.c **** }
 2792              		.loc 1 1438 1 is_stmt 0 view .LVU500
 2793 000a 7047     		bx	lr
 2794              	.L281:
 2795              		.align	2
 2796              	.L280:
 2797 000c 00800056 		.word	1442873344
 2798              		.cfi_endproc
 2799              	.LFE941:
 2801              		.section	.text.HAL_SYSCFG_EnablexPUClockGating,"ax",%progbits
 2802              		.align	1
 2803              		.global	HAL_SYSCFG_EnablexPUClockGating
 2804              		.syntax unified
 2805              		.thumb
 2806              		.thumb_func
 2808              	HAL_SYSCFG_EnablexPUClockGating:
 2809              	.LVL110:
 2810              	.LFB942:
1439:../../Drivers/STM32N6xx_HAL_Driver/Src/stm32n6xx_hal.c **** 
1440:../../Drivers/STM32N6xx_HAL_Driver/Src/stm32n6xx_hal.c **** /**
1441:../../Drivers/STM32N6xx_HAL_Driver/Src/stm32n6xx_hal.c ****   * @brief  Enable xPU clock gating.
1442:../../Drivers/STM32N6xx_HAL_Driver/Src/stm32n6xx_hal.c ****   * @param  Xpu Selected CPU(s).
1443:../../Drivers/STM32N6xx_HAL_Driver/Src/stm32n6xx_hal.c ****   *             This parameter can be a one of @ref SYSCFG_XPUId
1444:../../Drivers/STM32N6xx_HAL_Driver/Src/stm32n6xx_hal.c ****   * @retval None
1445:../../Drivers/STM32N6xx_HAL_Driver/Src/stm32n6xx_hal.c ****   */
1446:../../Drivers/STM32N6xx_HAL_Driver/Src/stm32n6xx_hal.c **** void HAL_SYSCFG_EnablexPUClockGating(uint32_t Xpu)
1447:../../Drivers/STM32N6xx_HAL_Driver/Src/stm32n6xx_hal.c **** {
 2811              		.loc 1 1447 1 is_stmt 1 view -0
 2812              		.cfi_startproc
 2813              		@ args = 0, pretend = 0, frame = 0
 2814              		@ frame_needed = 0, uses_anonymous_args = 0
 2815              		@ link register save eliminated.
1448:../../Drivers/STM32N6xx_HAL_Driver/Src/stm32n6xx_hal.c ****   /* Check the parameters */
1449:../../Drivers/STM32N6xx_HAL_Driver/Src/stm32n6xx_hal.c ****   assert_param(IS_SYSCFG_CPU_CLK_GATING(Xpu));
 2816              		.loc 1 1449 3 view .LVU502
1450:../../Drivers/STM32N6xx_HAL_Driver/Src/stm32n6xx_hal.c **** 
1451:../../Drivers/STM32N6xx_HAL_Driver/Src/stm32n6xx_hal.c ****   SET_BIT(SYSCFG->ICNCGCR, Xpu);
 2817              		.loc 1 1451 3 view .LVU503
 2818 0000 024A     		ldr	r2, .L283
 2819 0002 936B     		ldr	r3, [r2, #56]
 2820 0004 0343     		orrs	r3, r3, r0
 2821 0006 9363     		str	r3, [r2, #56]
1452:../../Drivers/STM32N6xx_HAL_Driver/Src/stm32n6xx_hal.c **** }
 2822              		.loc 1 1452 1 is_stmt 0 view .LVU504
 2823 0008 7047     		bx	lr
 2824              	.L284:
 2825 000a 00BF     		.align	2
 2826              	.L283:
 2827 000c 00800056 		.word	1442873344
 2828              		.cfi_endproc
 2829              	.LFE942:
 2831              		.section	.text.HAL_SYSCFG_DisablexPUClockGating,"ax",%progbits
 2832              		.align	1
ARM GAS  C:\Users\SMART\AppData\Local\Temp\ccwDMaLv.s 			page 75


 2833              		.global	HAL_SYSCFG_DisablexPUClockGating
 2834              		.syntax unified
 2835              		.thumb
 2836              		.thumb_func
 2838              	HAL_SYSCFG_DisablexPUClockGating:
 2839              	.LVL111:
 2840              	.LFB943:
1453:../../Drivers/STM32N6xx_HAL_Driver/Src/stm32n6xx_hal.c **** 
1454:../../Drivers/STM32N6xx_HAL_Driver/Src/stm32n6xx_hal.c **** /**
1455:../../Drivers/STM32N6xx_HAL_Driver/Src/stm32n6xx_hal.c ****   * @brief  Disable xPU clock gating.
1456:../../Drivers/STM32N6xx_HAL_Driver/Src/stm32n6xx_hal.c ****   * @param  Xpu Selected CPU(s).
1457:../../Drivers/STM32N6xx_HAL_Driver/Src/stm32n6xx_hal.c ****   *             This parameter can be a one of @ref SYSCFG_XPUId
1458:../../Drivers/STM32N6xx_HAL_Driver/Src/stm32n6xx_hal.c ****   * @retval None
1459:../../Drivers/STM32N6xx_HAL_Driver/Src/stm32n6xx_hal.c ****   */
1460:../../Drivers/STM32N6xx_HAL_Driver/Src/stm32n6xx_hal.c **** void HAL_SYSCFG_DisablexPUClockGating(uint32_t Xpu)
1461:../../Drivers/STM32N6xx_HAL_Driver/Src/stm32n6xx_hal.c **** {
 2841              		.loc 1 1461 1 is_stmt 1 view -0
 2842              		.cfi_startproc
 2843              		@ args = 0, pretend = 0, frame = 0
 2844              		@ frame_needed = 0, uses_anonymous_args = 0
 2845              		@ link register save eliminated.
1462:../../Drivers/STM32N6xx_HAL_Driver/Src/stm32n6xx_hal.c ****   /* Check the parameters */
1463:../../Drivers/STM32N6xx_HAL_Driver/Src/stm32n6xx_hal.c ****   assert_param(IS_SYSCFG_CPU_CLK_GATING(Xpu));
 2846              		.loc 1 1463 3 view .LVU506
1464:../../Drivers/STM32N6xx_HAL_Driver/Src/stm32n6xx_hal.c **** 
1465:../../Drivers/STM32N6xx_HAL_Driver/Src/stm32n6xx_hal.c ****   CLEAR_BIT(SYSCFG->ICNCGCR, Xpu);
 2847              		.loc 1 1465 3 view .LVU507
 2848 0000 024A     		ldr	r2, .L286
 2849 0002 936B     		ldr	r3, [r2, #56]
 2850 0004 23EA0003 		bic	r3, r3, r0
 2851 0008 9363     		str	r3, [r2, #56]
1466:../../Drivers/STM32N6xx_HAL_Driver/Src/stm32n6xx_hal.c **** }
 2852              		.loc 1 1466 1 is_stmt 0 view .LVU508
 2853 000a 7047     		bx	lr
 2854              	.L287:
 2855              		.align	2
 2856              	.L286:
 2857 000c 00800056 		.word	1442873344
 2858              		.cfi_endproc
 2859              	.LFE943:
 2861              		.section	.text.HAL_SYSCFG_EnableVDDIO2CompensationCell,"ax",%progbits
 2862              		.align	1
 2863              		.global	HAL_SYSCFG_EnableVDDIO2CompensationCell
 2864              		.syntax unified
 2865              		.thumb
 2866              		.thumb_func
 2868              	HAL_SYSCFG_EnableVDDIO2CompensationCell:
 2869              	.LFB944:
1467:../../Drivers/STM32N6xx_HAL_Driver/Src/stm32n6xx_hal.c **** 
1468:../../Drivers/STM32N6xx_HAL_Driver/Src/stm32n6xx_hal.c **** /**
1469:../../Drivers/STM32N6xx_HAL_Driver/Src/stm32n6xx_hal.c ****   * @brief  Enable the VDDIO2 compensation cell.
1470:../../Drivers/STM32N6xx_HAL_Driver/Src/stm32n6xx_hal.c ****   * @note   This function is deprecated, please refer to Errata Sheet ES0620.
1471:../../Drivers/STM32N6xx_HAL_Driver/Src/stm32n6xx_hal.c ****   *         I/O compensation cells must remain disabled.
1472:../../Drivers/STM32N6xx_HAL_Driver/Src/stm32n6xx_hal.c ****   * @retval None
1473:../../Drivers/STM32N6xx_HAL_Driver/Src/stm32n6xx_hal.c ****   */
1474:../../Drivers/STM32N6xx_HAL_Driver/Src/stm32n6xx_hal.c **** void HAL_SYSCFG_EnableVDDIO2CompensationCell(void)
1475:../../Drivers/STM32N6xx_HAL_Driver/Src/stm32n6xx_hal.c **** {
ARM GAS  C:\Users\SMART\AppData\Local\Temp\ccwDMaLv.s 			page 76


 2870              		.loc 1 1475 1 is_stmt 1 view -0
 2871              		.cfi_startproc
 2872              		@ args = 0, pretend = 0, frame = 0
 2873              		@ frame_needed = 0, uses_anonymous_args = 0
 2874              		@ link register save eliminated.
1476:../../Drivers/STM32N6xx_HAL_Driver/Src/stm32n6xx_hal.c ****   SET_BIT(SYSCFG->VDDIO2CCCR, SYSCFG_VDDIO2CCCR_EN);
 2875              		.loc 1 1476 3 view .LVU510
 2876 0000 024A     		ldr	r2, .L289
 2877 0002 536D     		ldr	r3, [r2, #84]
 2878 0004 43F48073 		orr	r3, r3, #256
 2879 0008 5365     		str	r3, [r2, #84]
1477:../../Drivers/STM32N6xx_HAL_Driver/Src/stm32n6xx_hal.c **** }
 2880              		.loc 1 1477 1 is_stmt 0 view .LVU511
 2881 000a 7047     		bx	lr
 2882              	.L290:
 2883              		.align	2
 2884              	.L289:
 2885 000c 00800056 		.word	1442873344
 2886              		.cfi_endproc
 2887              	.LFE944:
 2889              		.section	.text.HAL_SYSCFG_DisableVDDIO2CompensationCell,"ax",%progbits
 2890              		.align	1
 2891              		.global	HAL_SYSCFG_DisableVDDIO2CompensationCell
 2892              		.syntax unified
 2893              		.thumb
 2894              		.thumb_func
 2896              	HAL_SYSCFG_DisableVDDIO2CompensationCell:
 2897              	.LFB945:
1478:../../Drivers/STM32N6xx_HAL_Driver/Src/stm32n6xx_hal.c **** 
1479:../../Drivers/STM32N6xx_HAL_Driver/Src/stm32n6xx_hal.c **** /**
1480:../../Drivers/STM32N6xx_HAL_Driver/Src/stm32n6xx_hal.c ****   * @brief  Disable the VDDIO2 compensation cell.
1481:../../Drivers/STM32N6xx_HAL_Driver/Src/stm32n6xx_hal.c ****   * @retval None
1482:../../Drivers/STM32N6xx_HAL_Driver/Src/stm32n6xx_hal.c ****   */
1483:../../Drivers/STM32N6xx_HAL_Driver/Src/stm32n6xx_hal.c **** void HAL_SYSCFG_DisableVDDIO2CompensationCell(void)
1484:../../Drivers/STM32N6xx_HAL_Driver/Src/stm32n6xx_hal.c **** {
 2898              		.loc 1 1484 1 is_stmt 1 view -0
 2899              		.cfi_startproc
 2900              		@ args = 0, pretend = 0, frame = 0
 2901              		@ frame_needed = 0, uses_anonymous_args = 0
 2902              		@ link register save eliminated.
1485:../../Drivers/STM32N6xx_HAL_Driver/Src/stm32n6xx_hal.c ****   CLEAR_BIT(SYSCFG->VDDIO2CCCR, SYSCFG_VDDIO2CCCR_EN);
 2903              		.loc 1 1485 3 view .LVU513
 2904 0000 024A     		ldr	r2, .L292
 2905 0002 536D     		ldr	r3, [r2, #84]
 2906 0004 23F48073 		bic	r3, r3, #256
 2907 0008 5365     		str	r3, [r2, #84]
1486:../../Drivers/STM32N6xx_HAL_Driver/Src/stm32n6xx_hal.c **** }
 2908              		.loc 1 1486 1 is_stmt 0 view .LVU514
 2909 000a 7047     		bx	lr
 2910              	.L293:
 2911              		.align	2
 2912              	.L292:
 2913 000c 00800056 		.word	1442873344
 2914              		.cfi_endproc
 2915              	.LFE945:
 2917              		.section	.text.HAL_SYSCFG_EnableVDDIO3CompensationCell,"ax",%progbits
 2918              		.align	1
ARM GAS  C:\Users\SMART\AppData\Local\Temp\ccwDMaLv.s 			page 77


 2919              		.global	HAL_SYSCFG_EnableVDDIO3CompensationCell
 2920              		.syntax unified
 2921              		.thumb
 2922              		.thumb_func
 2924              	HAL_SYSCFG_EnableVDDIO3CompensationCell:
 2925              	.LFB946:
1487:../../Drivers/STM32N6xx_HAL_Driver/Src/stm32n6xx_hal.c **** 
1488:../../Drivers/STM32N6xx_HAL_Driver/Src/stm32n6xx_hal.c **** /**
1489:../../Drivers/STM32N6xx_HAL_Driver/Src/stm32n6xx_hal.c ****   * @brief  Enable the VDDIO3 compensation cell.
1490:../../Drivers/STM32N6xx_HAL_Driver/Src/stm32n6xx_hal.c ****   * @note   This function is deprecated, please refer to Errata Sheet ES0620.
1491:../../Drivers/STM32N6xx_HAL_Driver/Src/stm32n6xx_hal.c ****   *         I/O compensation cells must remain disabled.
1492:../../Drivers/STM32N6xx_HAL_Driver/Src/stm32n6xx_hal.c ****   * @retval None
1493:../../Drivers/STM32N6xx_HAL_Driver/Src/stm32n6xx_hal.c ****   */
1494:../../Drivers/STM32N6xx_HAL_Driver/Src/stm32n6xx_hal.c **** void HAL_SYSCFG_EnableVDDIO3CompensationCell(void)
1495:../../Drivers/STM32N6xx_HAL_Driver/Src/stm32n6xx_hal.c **** {
 2926              		.loc 1 1495 1 is_stmt 1 view -0
 2927              		.cfi_startproc
 2928              		@ args = 0, pretend = 0, frame = 0
 2929              		@ frame_needed = 0, uses_anonymous_args = 0
 2930              		@ link register save eliminated.
1496:../../Drivers/STM32N6xx_HAL_Driver/Src/stm32n6xx_hal.c ****   SET_BIT(SYSCFG->VDDIO3CCCR, SYSCFG_VDDIO3CCCR_EN);
 2931              		.loc 1 1496 3 view .LVU516
 2932 0000 024A     		ldr	r2, .L295
 2933 0002 D36D     		ldr	r3, [r2, #92]
 2934 0004 43F48073 		orr	r3, r3, #256
 2935 0008 D365     		str	r3, [r2, #92]
1497:../../Drivers/STM32N6xx_HAL_Driver/Src/stm32n6xx_hal.c **** }
 2936              		.loc 1 1497 1 is_stmt 0 view .LVU517
 2937 000a 7047     		bx	lr
 2938              	.L296:
 2939              		.align	2
 2940              	.L295:
 2941 000c 00800056 		.word	1442873344
 2942              		.cfi_endproc
 2943              	.LFE946:
 2945              		.section	.text.HAL_SYSCFG_DisableVDDIO3CompensationCell,"ax",%progbits
 2946              		.align	1
 2947              		.global	HAL_SYSCFG_DisableVDDIO3CompensationCell
 2948              		.syntax unified
 2949              		.thumb
 2950              		.thumb_func
 2952              	HAL_SYSCFG_DisableVDDIO3CompensationCell:
 2953              	.LFB947:
1498:../../Drivers/STM32N6xx_HAL_Driver/Src/stm32n6xx_hal.c **** 
1499:../../Drivers/STM32N6xx_HAL_Driver/Src/stm32n6xx_hal.c **** /**
1500:../../Drivers/STM32N6xx_HAL_Driver/Src/stm32n6xx_hal.c ****   * @brief  Disable the VDDIO3 compensation cell.
1501:../../Drivers/STM32N6xx_HAL_Driver/Src/stm32n6xx_hal.c ****   * @retval None
1502:../../Drivers/STM32N6xx_HAL_Driver/Src/stm32n6xx_hal.c ****   */
1503:../../Drivers/STM32N6xx_HAL_Driver/Src/stm32n6xx_hal.c **** void HAL_SYSCFG_DisableVDDIO3CompensationCell(void)
1504:../../Drivers/STM32N6xx_HAL_Driver/Src/stm32n6xx_hal.c **** {
 2954              		.loc 1 1504 1 is_stmt 1 view -0
 2955              		.cfi_startproc
 2956              		@ args = 0, pretend = 0, frame = 0
 2957              		@ frame_needed = 0, uses_anonymous_args = 0
 2958              		@ link register save eliminated.
1505:../../Drivers/STM32N6xx_HAL_Driver/Src/stm32n6xx_hal.c ****   CLEAR_BIT(SYSCFG->VDDIO3CCCR, SYSCFG_VDDIO3CCCR_EN);
 2959              		.loc 1 1505 3 view .LVU519
ARM GAS  C:\Users\SMART\AppData\Local\Temp\ccwDMaLv.s 			page 78


 2960 0000 024A     		ldr	r2, .L298
 2961 0002 D36D     		ldr	r3, [r2, #92]
 2962 0004 23F48073 		bic	r3, r3, #256
 2963 0008 D365     		str	r3, [r2, #92]
1506:../../Drivers/STM32N6xx_HAL_Driver/Src/stm32n6xx_hal.c **** }
 2964              		.loc 1 1506 1 is_stmt 0 view .LVU520
 2965 000a 7047     		bx	lr
 2966              	.L299:
 2967              		.align	2
 2968              	.L298:
 2969 000c 00800056 		.word	1442873344
 2970              		.cfi_endproc
 2971              	.LFE947:
 2973              		.section	.text.HAL_SYSCFG_EnableVDDIO4CompensationCell,"ax",%progbits
 2974              		.align	1
 2975              		.global	HAL_SYSCFG_EnableVDDIO4CompensationCell
 2976              		.syntax unified
 2977              		.thumb
 2978              		.thumb_func
 2980              	HAL_SYSCFG_EnableVDDIO4CompensationCell:
 2981              	.LFB948:
1507:../../Drivers/STM32N6xx_HAL_Driver/Src/stm32n6xx_hal.c **** 
1508:../../Drivers/STM32N6xx_HAL_Driver/Src/stm32n6xx_hal.c **** /**
1509:../../Drivers/STM32N6xx_HAL_Driver/Src/stm32n6xx_hal.c ****   * @brief  Enable the VDDIO4 compensation cell.
1510:../../Drivers/STM32N6xx_HAL_Driver/Src/stm32n6xx_hal.c ****   * @note   This function is deprecated, please refer to Errata Sheet ES0620.
1511:../../Drivers/STM32N6xx_HAL_Driver/Src/stm32n6xx_hal.c ****   *         I/O compensation cells must remain disabled.
1512:../../Drivers/STM32N6xx_HAL_Driver/Src/stm32n6xx_hal.c ****   * @retval None
1513:../../Drivers/STM32N6xx_HAL_Driver/Src/stm32n6xx_hal.c ****   */
1514:../../Drivers/STM32N6xx_HAL_Driver/Src/stm32n6xx_hal.c **** void HAL_SYSCFG_EnableVDDIO4CompensationCell(void)
1515:../../Drivers/STM32N6xx_HAL_Driver/Src/stm32n6xx_hal.c **** {
 2982              		.loc 1 1515 1 is_stmt 1 view -0
 2983              		.cfi_startproc
 2984              		@ args = 0, pretend = 0, frame = 0
 2985              		@ frame_needed = 0, uses_anonymous_args = 0
 2986              		@ link register save eliminated.
1516:../../Drivers/STM32N6xx_HAL_Driver/Src/stm32n6xx_hal.c ****   SET_BIT(SYSCFG->VDDIO4CCCR, SYSCFG_VDDIO4CCCR_EN);
 2987              		.loc 1 1516 3 view .LVU522
 2988 0000 024A     		ldr	r2, .L301
 2989 0002 536C     		ldr	r3, [r2, #68]
 2990 0004 43F48073 		orr	r3, r3, #256
 2991 0008 5364     		str	r3, [r2, #68]
1517:../../Drivers/STM32N6xx_HAL_Driver/Src/stm32n6xx_hal.c **** }
 2992              		.loc 1 1517 1 is_stmt 0 view .LVU523
 2993 000a 7047     		bx	lr
 2994              	.L302:
 2995              		.align	2
 2996              	.L301:
 2997 000c 00800056 		.word	1442873344
 2998              		.cfi_endproc
 2999              	.LFE948:
 3001              		.section	.text.HAL_SYSCFG_DisableVDDIO4CompensationCell,"ax",%progbits
 3002              		.align	1
 3003              		.global	HAL_SYSCFG_DisableVDDIO4CompensationCell
 3004              		.syntax unified
 3005              		.thumb
 3006              		.thumb_func
 3008              	HAL_SYSCFG_DisableVDDIO4CompensationCell:
ARM GAS  C:\Users\SMART\AppData\Local\Temp\ccwDMaLv.s 			page 79


 3009              	.LFB949:
1518:../../Drivers/STM32N6xx_HAL_Driver/Src/stm32n6xx_hal.c **** 
1519:../../Drivers/STM32N6xx_HAL_Driver/Src/stm32n6xx_hal.c **** /**
1520:../../Drivers/STM32N6xx_HAL_Driver/Src/stm32n6xx_hal.c ****   * @brief  Disable the VDDIO4 compensation cell.
1521:../../Drivers/STM32N6xx_HAL_Driver/Src/stm32n6xx_hal.c ****   * @retval None
1522:../../Drivers/STM32N6xx_HAL_Driver/Src/stm32n6xx_hal.c ****   */
1523:../../Drivers/STM32N6xx_HAL_Driver/Src/stm32n6xx_hal.c **** void HAL_SYSCFG_DisableVDDIO4CompensationCell(void)
1524:../../Drivers/STM32N6xx_HAL_Driver/Src/stm32n6xx_hal.c **** {
 3010              		.loc 1 1524 1 is_stmt 1 view -0
 3011              		.cfi_startproc
 3012              		@ args = 0, pretend = 0, frame = 0
 3013              		@ frame_needed = 0, uses_anonymous_args = 0
 3014              		@ link register save eliminated.
1525:../../Drivers/STM32N6xx_HAL_Driver/Src/stm32n6xx_hal.c ****   CLEAR_BIT(SYSCFG->VDDIO4CCCR, SYSCFG_VDDIO4CCCR_EN);
 3015              		.loc 1 1525 3 view .LVU525
 3016 0000 024A     		ldr	r2, .L304
 3017 0002 536C     		ldr	r3, [r2, #68]
 3018 0004 23F48073 		bic	r3, r3, #256
 3019 0008 5364     		str	r3, [r2, #68]
1526:../../Drivers/STM32N6xx_HAL_Driver/Src/stm32n6xx_hal.c **** }
 3020              		.loc 1 1526 1 is_stmt 0 view .LVU526
 3021 000a 7047     		bx	lr
 3022              	.L305:
 3023              		.align	2
 3024              	.L304:
 3025 000c 00800056 		.word	1442873344
 3026              		.cfi_endproc
 3027              	.LFE949:
 3029              		.section	.text.HAL_SYSCFG_EnableVDDIO5CompensationCell,"ax",%progbits
 3030              		.align	1
 3031              		.global	HAL_SYSCFG_EnableVDDIO5CompensationCell
 3032              		.syntax unified
 3033              		.thumb
 3034              		.thumb_func
 3036              	HAL_SYSCFG_EnableVDDIO5CompensationCell:
 3037              	.LFB950:
1527:../../Drivers/STM32N6xx_HAL_Driver/Src/stm32n6xx_hal.c **** 
1528:../../Drivers/STM32N6xx_HAL_Driver/Src/stm32n6xx_hal.c **** /**
1529:../../Drivers/STM32N6xx_HAL_Driver/Src/stm32n6xx_hal.c ****   * @brief  Enable the VDDIO5 compensation cell.
1530:../../Drivers/STM32N6xx_HAL_Driver/Src/stm32n6xx_hal.c ****   * @note   This function is deprecated, please refer to Errata Sheet ES0620.
1531:../../Drivers/STM32N6xx_HAL_Driver/Src/stm32n6xx_hal.c ****   *         I/O compensation cells must remain disabled.
1532:../../Drivers/STM32N6xx_HAL_Driver/Src/stm32n6xx_hal.c ****   * @retval None
1533:../../Drivers/STM32N6xx_HAL_Driver/Src/stm32n6xx_hal.c ****   */
1534:../../Drivers/STM32N6xx_HAL_Driver/Src/stm32n6xx_hal.c **** void HAL_SYSCFG_EnableVDDIO5CompensationCell(void)
1535:../../Drivers/STM32N6xx_HAL_Driver/Src/stm32n6xx_hal.c **** {
 3038              		.loc 1 1535 1 is_stmt 1 view -0
 3039              		.cfi_startproc
 3040              		@ args = 0, pretend = 0, frame = 0
 3041              		@ frame_needed = 0, uses_anonymous_args = 0
 3042              		@ link register save eliminated.
1536:../../Drivers/STM32N6xx_HAL_Driver/Src/stm32n6xx_hal.c ****   SET_BIT(SYSCFG->VDDIO5CCCR, SYSCFG_VDDIO5CCCR_EN);
 3043              		.loc 1 1536 3 view .LVU528
 3044 0000 024A     		ldr	r2, .L307
 3045 0002 D36C     		ldr	r3, [r2, #76]
 3046 0004 43F48073 		orr	r3, r3, #256
 3047 0008 D364     		str	r3, [r2, #76]
1537:../../Drivers/STM32N6xx_HAL_Driver/Src/stm32n6xx_hal.c **** }
ARM GAS  C:\Users\SMART\AppData\Local\Temp\ccwDMaLv.s 			page 80


 3048              		.loc 1 1537 1 is_stmt 0 view .LVU529
 3049 000a 7047     		bx	lr
 3050              	.L308:
 3051              		.align	2
 3052              	.L307:
 3053 000c 00800056 		.word	1442873344
 3054              		.cfi_endproc
 3055              	.LFE950:
 3057              		.section	.text.HAL_SYSCFG_DisableVDDIO5CompensationCell,"ax",%progbits
 3058              		.align	1
 3059              		.global	HAL_SYSCFG_DisableVDDIO5CompensationCell
 3060              		.syntax unified
 3061              		.thumb
 3062              		.thumb_func
 3064              	HAL_SYSCFG_DisableVDDIO5CompensationCell:
 3065              	.LFB951:
1538:../../Drivers/STM32N6xx_HAL_Driver/Src/stm32n6xx_hal.c **** 
1539:../../Drivers/STM32N6xx_HAL_Driver/Src/stm32n6xx_hal.c **** /**
1540:../../Drivers/STM32N6xx_HAL_Driver/Src/stm32n6xx_hal.c ****   * @brief  Disable the VDDIO5 compensation cell.
1541:../../Drivers/STM32N6xx_HAL_Driver/Src/stm32n6xx_hal.c ****   * @retval None
1542:../../Drivers/STM32N6xx_HAL_Driver/Src/stm32n6xx_hal.c ****   */
1543:../../Drivers/STM32N6xx_HAL_Driver/Src/stm32n6xx_hal.c **** void HAL_SYSCFG_DisableVDDIO5CompensationCell(void)
1544:../../Drivers/STM32N6xx_HAL_Driver/Src/stm32n6xx_hal.c **** {
 3066              		.loc 1 1544 1 is_stmt 1 view -0
 3067              		.cfi_startproc
 3068              		@ args = 0, pretend = 0, frame = 0
 3069              		@ frame_needed = 0, uses_anonymous_args = 0
 3070              		@ link register save eliminated.
1545:../../Drivers/STM32N6xx_HAL_Driver/Src/stm32n6xx_hal.c ****   CLEAR_BIT(SYSCFG->VDDIO5CCCR, SYSCFG_VDDIO5CCCR_EN);
 3071              		.loc 1 1545 3 view .LVU531
 3072 0000 024A     		ldr	r2, .L310
 3073 0002 D36C     		ldr	r3, [r2, #76]
 3074 0004 23F48073 		bic	r3, r3, #256
 3075 0008 D364     		str	r3, [r2, #76]
1546:../../Drivers/STM32N6xx_HAL_Driver/Src/stm32n6xx_hal.c **** }
 3076              		.loc 1 1546 1 is_stmt 0 view .LVU532
 3077 000a 7047     		bx	lr
 3078              	.L311:
 3079              		.align	2
 3080              	.L310:
 3081 000c 00800056 		.word	1442873344
 3082              		.cfi_endproc
 3083              	.LFE951:
 3085              		.section	.text.HAL_SYSCFG_ConfigVDDIOCompensationCell,"ax",%progbits
 3086              		.align	1
 3087              		.global	HAL_SYSCFG_ConfigVDDIOCompensationCell
 3088              		.syntax unified
 3089              		.thumb
 3090              		.thumb_func
 3092              	HAL_SYSCFG_ConfigVDDIOCompensationCell:
 3093              	.LVL112:
 3094              	.LFB952:
1547:../../Drivers/STM32N6xx_HAL_Driver/Src/stm32n6xx_hal.c **** 
1548:../../Drivers/STM32N6xx_HAL_Driver/Src/stm32n6xx_hal.c **** /**
1549:../../Drivers/STM32N6xx_HAL_Driver/Src/stm32n6xx_hal.c ****   * @brief  Configure the code selection for the compensation cell
1550:../../Drivers/STM32N6xx_HAL_Driver/Src/stm32n6xx_hal.c ****   * @param  Selection specifies the concerned compensation cell
1551:../../Drivers/STM32N6xx_HAL_Driver/Src/stm32n6xx_hal.c ****   *         This parameter can one of the following values:
ARM GAS  C:\Users\SMART\AppData\Local\Temp\ccwDMaLv.s 			page 81


1552:../../Drivers/STM32N6xx_HAL_Driver/Src/stm32n6xx_hal.c ****   *            @arg SYSCFG_IO_VDDIO2_CELL Compensation cell for the VDDIO2
1553:../../Drivers/STM32N6xx_HAL_Driver/Src/stm32n6xx_hal.c ****   *            @arg SYSCFG_IO_VDDIO3_CELL Compensation cell for the VDDIO3
1554:../../Drivers/STM32N6xx_HAL_Driver/Src/stm32n6xx_hal.c ****   *            @arg SYSCFG_IO_VDDIO4_CELL Compensation cell for the VDDIO4
1555:../../Drivers/STM32N6xx_HAL_Driver/Src/stm32n6xx_hal.c ****   *            @arg SYSCFG_IO_VDDIO5_CELL Compensation cell for the VDDIO5
1556:../../Drivers/STM32N6xx_HAL_Driver/Src/stm32n6xx_hal.c ****   * @param  Code code selection to be applied for the I/O compensation cell
1557:../../Drivers/STM32N6xx_HAL_Driver/Src/stm32n6xx_hal.c ****   *         This parameter can be one of the following values:
1558:../../Drivers/STM32N6xx_HAL_Driver/Src/stm32n6xx_hal.c ****   *            @arg SYSCFG_IO_CELL_CODE  Code from the cell (available in the SYSCFG_VDDIOxCCSR)
1559:../../Drivers/STM32N6xx_HAL_Driver/Src/stm32n6xx_hal.c ****   *            @arg SYSCFG_IO_REGISTER_CODE Code from the compensation cell code register ((SYSCFG_
1560:../../Drivers/STM32N6xx_HAL_Driver/Src/stm32n6xx_hal.c ****   * @param  NmosValue In case SYSCFG_IO_REGISTER_CODE is selected, it  provides the Nmos value
1561:../../Drivers/STM32N6xx_HAL_Driver/Src/stm32n6xx_hal.c ****   *                   to apply in range 0 to 15 else this parameter is not used
1562:../../Drivers/STM32N6xx_HAL_Driver/Src/stm32n6xx_hal.c ****   * @param  PmosValue In case SYSCFG_IO_REGISTER_CODE is selected, it  provides the Pmos value
1563:../../Drivers/STM32N6xx_HAL_Driver/Src/stm32n6xx_hal.c ****   *                   to apply in range 0 to 15 else this parameter is not used
1564:../../Drivers/STM32N6xx_HAL_Driver/Src/stm32n6xx_hal.c ****   * @retval HAL status
1565:../../Drivers/STM32N6xx_HAL_Driver/Src/stm32n6xx_hal.c ****   */
1566:../../Drivers/STM32N6xx_HAL_Driver/Src/stm32n6xx_hal.c **** HAL_StatusTypeDef HAL_SYSCFG_ConfigVDDIOCompensationCell(uint32_t Selection, uint32_t Code, uint32_
1567:../../Drivers/STM32N6xx_HAL_Driver/Src/stm32n6xx_hal.c ****                                                          uint32_t PmosValue)
1568:../../Drivers/STM32N6xx_HAL_Driver/Src/stm32n6xx_hal.c **** {
 3095              		.loc 1 1568 1 is_stmt 1 view -0
 3096              		.cfi_startproc
 3097              		@ args = 0, pretend = 0, frame = 0
 3098              		@ frame_needed = 0, uses_anonymous_args = 0
 3099              		@ link register save eliminated.
1569:../../Drivers/STM32N6xx_HAL_Driver/Src/stm32n6xx_hal.c ****   HAL_StatusTypeDef status = HAL_OK;
 3100              		.loc 1 1569 3 view .LVU534
1570:../../Drivers/STM32N6xx_HAL_Driver/Src/stm32n6xx_hal.c **** 
1571:../../Drivers/STM32N6xx_HAL_Driver/Src/stm32n6xx_hal.c ****   /* Check the parameters */
1572:../../Drivers/STM32N6xx_HAL_Driver/Src/stm32n6xx_hal.c ****   assert_param(IS_SYSCFG_COMPENSATION_CELL(Selection));
 3101              		.loc 1 1572 3 view .LVU535
1573:../../Drivers/STM32N6xx_HAL_Driver/Src/stm32n6xx_hal.c ****   assert_param(IS_SYSCFG_IO_COMPENSATION_CODE(Code));
 3102              		.loc 1 1573 3 view .LVU536
1574:../../Drivers/STM32N6xx_HAL_Driver/Src/stm32n6xx_hal.c **** 
1575:../../Drivers/STM32N6xx_HAL_Driver/Src/stm32n6xx_hal.c ****   if (Code == SYSCFG_IO_REGISTER_CODE)
 3103              		.loc 1 1575 3 view .LVU537
 3104              		.loc 1 1575 6 is_stmt 0 view .LVU538
 3105 0000 0129     		cmp	r1, #1
 3106 0002 05D0     		beq	.L329
1576:../../Drivers/STM32N6xx_HAL_Driver/Src/stm32n6xx_hal.c ****   {
1577:../../Drivers/STM32N6xx_HAL_Driver/Src/stm32n6xx_hal.c ****     /* Check the parameters */
1578:../../Drivers/STM32N6xx_HAL_Driver/Src/stm32n6xx_hal.c ****     assert_param(IS_SYSCFG_IO_COMPENSATION_CELL_NMOS_VALUE(NmosValue));
1579:../../Drivers/STM32N6xx_HAL_Driver/Src/stm32n6xx_hal.c ****     assert_param(IS_SYSCFG_IO_COMPENSATION_CELL_PMOS_VALUE(PmosValue));
1580:../../Drivers/STM32N6xx_HAL_Driver/Src/stm32n6xx_hal.c **** 
1581:../../Drivers/STM32N6xx_HAL_Driver/Src/stm32n6xx_hal.c ****     /* Reject forbidden Nmos = 0 and Pmos = 15 */
1582:../../Drivers/STM32N6xx_HAL_Driver/Src/stm32n6xx_hal.c ****     if ((NmosValue == 0U) || (PmosValue == 0xFU))
1583:../../Drivers/STM32N6xx_HAL_Driver/Src/stm32n6xx_hal.c ****     {
1584:../../Drivers/STM32N6xx_HAL_Driver/Src/stm32n6xx_hal.c ****       status = HAL_ERROR;
1585:../../Drivers/STM32N6xx_HAL_Driver/Src/stm32n6xx_hal.c ****     }
1586:../../Drivers/STM32N6xx_HAL_Driver/Src/stm32n6xx_hal.c ****     else
1587:../../Drivers/STM32N6xx_HAL_Driver/Src/stm32n6xx_hal.c ****     {
1588:../../Drivers/STM32N6xx_HAL_Driver/Src/stm32n6xx_hal.c ****       switch (Selection)
1589:../../Drivers/STM32N6xx_HAL_Driver/Src/stm32n6xx_hal.c ****       {
1590:../../Drivers/STM32N6xx_HAL_Driver/Src/stm32n6xx_hal.c ****         case SYSCFG_IO_VDDIO2_CELL:
1591:../../Drivers/STM32N6xx_HAL_Driver/Src/stm32n6xx_hal.c ****         {
1592:../../Drivers/STM32N6xx_HAL_Driver/Src/stm32n6xx_hal.c ****           MODIFY_REG(SYSCFG->VDDIO2CCCR, 0x2FFU, ((NmosValue | (PmosValue << (4U))) | SYSCFG_VDDIO2
1593:../../Drivers/STM32N6xx_HAL_Driver/Src/stm32n6xx_hal.c ****           break;
1594:../../Drivers/STM32N6xx_HAL_Driver/Src/stm32n6xx_hal.c ****         }
1595:../../Drivers/STM32N6xx_HAL_Driver/Src/stm32n6xx_hal.c ****         case SYSCFG_IO_VDDIO3_CELL:
1596:../../Drivers/STM32N6xx_HAL_Driver/Src/stm32n6xx_hal.c ****         {
ARM GAS  C:\Users\SMART\AppData\Local\Temp\ccwDMaLv.s 			page 82


1597:../../Drivers/STM32N6xx_HAL_Driver/Src/stm32n6xx_hal.c ****           MODIFY_REG(SYSCFG->VDDIO3CCCR, 0x2FFU, ((NmosValue | (PmosValue << (4U))) | SYSCFG_VDDIO3
1598:../../Drivers/STM32N6xx_HAL_Driver/Src/stm32n6xx_hal.c ****           break;
1599:../../Drivers/STM32N6xx_HAL_Driver/Src/stm32n6xx_hal.c ****         }
1600:../../Drivers/STM32N6xx_HAL_Driver/Src/stm32n6xx_hal.c ****         case SYSCFG_IO_VDDIO4_CELL:
1601:../../Drivers/STM32N6xx_HAL_Driver/Src/stm32n6xx_hal.c ****         {
1602:../../Drivers/STM32N6xx_HAL_Driver/Src/stm32n6xx_hal.c ****           MODIFY_REG(SYSCFG->VDDIO4CCCR, 0x2FFU, ((NmosValue) | (PmosValue << (4U)) | SYSCFG_VDDIO4
1603:../../Drivers/STM32N6xx_HAL_Driver/Src/stm32n6xx_hal.c ****           break;
1604:../../Drivers/STM32N6xx_HAL_Driver/Src/stm32n6xx_hal.c ****         }
1605:../../Drivers/STM32N6xx_HAL_Driver/Src/stm32n6xx_hal.c ****         case SYSCFG_IO_VDDIO5_CELL:
1606:../../Drivers/STM32N6xx_HAL_Driver/Src/stm32n6xx_hal.c ****         {
1607:../../Drivers/STM32N6xx_HAL_Driver/Src/stm32n6xx_hal.c ****           MODIFY_REG(SYSCFG->VDDIO5CCCR, 0x2FFU, ((NmosValue | (PmosValue << (4U))) | SYSCFG_VDDIO5
1608:../../Drivers/STM32N6xx_HAL_Driver/Src/stm32n6xx_hal.c ****           break;
1609:../../Drivers/STM32N6xx_HAL_Driver/Src/stm32n6xx_hal.c ****         }
1610:../../Drivers/STM32N6xx_HAL_Driver/Src/stm32n6xx_hal.c ****         default:
1611:../../Drivers/STM32N6xx_HAL_Driver/Src/stm32n6xx_hal.c ****         {
1612:../../Drivers/STM32N6xx_HAL_Driver/Src/stm32n6xx_hal.c ****           /* Update error status */
1613:../../Drivers/STM32N6xx_HAL_Driver/Src/stm32n6xx_hal.c ****           status = HAL_ERROR;
1614:../../Drivers/STM32N6xx_HAL_Driver/Src/stm32n6xx_hal.c ****           break;
1615:../../Drivers/STM32N6xx_HAL_Driver/Src/stm32n6xx_hal.c ****         }
1616:../../Drivers/STM32N6xx_HAL_Driver/Src/stm32n6xx_hal.c ****       }
1617:../../Drivers/STM32N6xx_HAL_Driver/Src/stm32n6xx_hal.c ****     }
1618:../../Drivers/STM32N6xx_HAL_Driver/Src/stm32n6xx_hal.c ****   }
1619:../../Drivers/STM32N6xx_HAL_Driver/Src/stm32n6xx_hal.c ****   else
1620:../../Drivers/STM32N6xx_HAL_Driver/Src/stm32n6xx_hal.c ****   {
1621:../../Drivers/STM32N6xx_HAL_Driver/Src/stm32n6xx_hal.c ****     switch (Selection)
 3107              		.loc 1 1621 5 is_stmt 1 view .LVU539
 3108 0004 0328     		cmp	r0, #3
 3109 0006 67D8     		bhi	.L328
 3110 0008 DFE800F0 		tbb	[pc, r0]
 3111              	.LVL113:
 3112              	.L321:
 3113 000c 44       		.byte	(.L324-.L321)/2
 3114 000d 4B       		.byte	(.L323-.L321)/2
 3115 000e 52       		.byte	(.L322-.L321)/2
 3116 000f 59       		.byte	(.L320-.L321)/2
 3117              		.p2align 1
 3118              	.L329:
1578:../../Drivers/STM32N6xx_HAL_Driver/Src/stm32n6xx_hal.c ****     assert_param(IS_SYSCFG_IO_COMPENSATION_CELL_PMOS_VALUE(PmosValue));
 3119              		.loc 1 1578 5 view .LVU540
1579:../../Drivers/STM32N6xx_HAL_Driver/Src/stm32n6xx_hal.c **** 
 3120              		.loc 1 1579 5 view .LVU541
1582:../../Drivers/STM32N6xx_HAL_Driver/Src/stm32n6xx_hal.c ****     {
 3121              		.loc 1 1582 5 view .LVU542
1582:../../Drivers/STM32N6xx_HAL_Driver/Src/stm32n6xx_hal.c ****     {
 3122              		.loc 1 1582 8 is_stmt 0 view .LVU543
 3123 0010 002A     		cmp	r2, #0
 3124 0012 5BD0     		beq	.L325
1582:../../Drivers/STM32N6xx_HAL_Driver/Src/stm32n6xx_hal.c ****     {
 3125              		.loc 1 1582 27 discriminator 1 view .LVU544
 3126 0014 0F2B     		cmp	r3, #15
 3127 0016 5BD0     		beq	.L326
1588:../../Drivers/STM32N6xx_HAL_Driver/Src/stm32n6xx_hal.c ****       {
 3128              		.loc 1 1588 7 is_stmt 1 view .LVU545
 3129 0018 0328     		cmp	r0, #3
 3130 001a 5BD8     		bhi	.L327
 3131 001c DFE800F0 		tbb	[pc, r0]
 3132              	.LVL114:
ARM GAS  C:\Users\SMART\AppData\Local\Temp\ccwDMaLv.s 			page 83


 3133              	.L316:
 3134 0020 02       		.byte	(.L319-.L316)/2
 3135 0021 10       		.byte	(.L318-.L316)/2
 3136 0022 1E       		.byte	(.L317-.L316)/2
 3137 0023 2C       		.byte	(.L315-.L316)/2
 3138              		.p2align 1
 3139              	.L319:
1592:../../Drivers/STM32N6xx_HAL_Driver/Src/stm32n6xx_hal.c ****           break;
 3140              		.loc 1 1592 11 view .LVU546
 3141 0024 2D48     		ldr	r0, .L330
 3142              	.LVL115:
1592:../../Drivers/STM32N6xx_HAL_Driver/Src/stm32n6xx_hal.c ****           break;
 3143              		.loc 1 1592 11 is_stmt 0 view .LVU547
 3144 0026 416D     		ldr	r1, [r0, #84]
 3145 0028 21F43F71 		bic	r1, r1, #764
 3146 002c 21F00301 		bic	r1, r1, #3
 3147 0030 42EA0313 		orr	r3, r2, r3, lsl #4
 3148              	.LVL116:
1592:../../Drivers/STM32N6xx_HAL_Driver/Src/stm32n6xx_hal.c ****           break;
 3149              		.loc 1 1592 11 view .LVU548
 3150 0034 1943     		orrs	r1, r1, r3
 3151 0036 41F40071 		orr	r1, r1, #512
 3152 003a 4165     		str	r1, [r0, #84]
1593:../../Drivers/STM32N6xx_HAL_Driver/Src/stm32n6xx_hal.c ****         }
 3153              		.loc 1 1593 11 is_stmt 1 view .LVU549
1569:../../Drivers/STM32N6xx_HAL_Driver/Src/stm32n6xx_hal.c **** 
 3154              		.loc 1 1569 21 is_stmt 0 view .LVU550
 3155 003c 0020     		movs	r0, #0
1593:../../Drivers/STM32N6xx_HAL_Driver/Src/stm32n6xx_hal.c ****         }
 3156              		.loc 1 1593 11 view .LVU551
 3157 003e 7047     		bx	lr
 3158              	.LVL117:
 3159              	.L318:
1597:../../Drivers/STM32N6xx_HAL_Driver/Src/stm32n6xx_hal.c ****           break;
 3160              		.loc 1 1597 11 is_stmt 1 view .LVU552
 3161 0040 2648     		ldr	r0, .L330
 3162              	.LVL118:
1597:../../Drivers/STM32N6xx_HAL_Driver/Src/stm32n6xx_hal.c ****           break;
 3163              		.loc 1 1597 11 is_stmt 0 view .LVU553
 3164 0042 C16D     		ldr	r1, [r0, #92]
 3165 0044 21F43F71 		bic	r1, r1, #764
 3166 0048 21F00301 		bic	r1, r1, #3
 3167 004c 42EA0313 		orr	r3, r2, r3, lsl #4
 3168              	.LVL119:
1597:../../Drivers/STM32N6xx_HAL_Driver/Src/stm32n6xx_hal.c ****           break;
 3169              		.loc 1 1597 11 view .LVU554
 3170 0050 1943     		orrs	r1, r1, r3
 3171 0052 41F40071 		orr	r1, r1, #512
 3172 0056 C165     		str	r1, [r0, #92]
1598:../../Drivers/STM32N6xx_HAL_Driver/Src/stm32n6xx_hal.c ****         }
 3173              		.loc 1 1598 11 is_stmt 1 view .LVU555
1569:../../Drivers/STM32N6xx_HAL_Driver/Src/stm32n6xx_hal.c **** 
 3174              		.loc 1 1569 21 is_stmt 0 view .LVU556
 3175 0058 0020     		movs	r0, #0
1598:../../Drivers/STM32N6xx_HAL_Driver/Src/stm32n6xx_hal.c ****         }
 3176              		.loc 1 1598 11 view .LVU557
 3177 005a 7047     		bx	lr
ARM GAS  C:\Users\SMART\AppData\Local\Temp\ccwDMaLv.s 			page 84


 3178              	.LVL120:
 3179              	.L317:
1602:../../Drivers/STM32N6xx_HAL_Driver/Src/stm32n6xx_hal.c ****           break;
 3180              		.loc 1 1602 11 is_stmt 1 view .LVU558
 3181 005c 1F48     		ldr	r0, .L330
 3182              	.LVL121:
1602:../../Drivers/STM32N6xx_HAL_Driver/Src/stm32n6xx_hal.c ****           break;
 3183              		.loc 1 1602 11 is_stmt 0 view .LVU559
 3184 005e 416C     		ldr	r1, [r0, #68]
 3185 0060 21F43F71 		bic	r1, r1, #764
 3186 0064 21F00301 		bic	r1, r1, #3
 3187 0068 42EA0313 		orr	r3, r2, r3, lsl #4
 3188              	.LVL122:
1602:../../Drivers/STM32N6xx_HAL_Driver/Src/stm32n6xx_hal.c ****           break;
 3189              		.loc 1 1602 11 view .LVU560
 3190 006c 1943     		orrs	r1, r1, r3
 3191 006e 41F40071 		orr	r1, r1, #512
 3192 0072 4164     		str	r1, [r0, #68]
1603:../../Drivers/STM32N6xx_HAL_Driver/Src/stm32n6xx_hal.c ****         }
 3193              		.loc 1 1603 11 is_stmt 1 view .LVU561
1569:../../Drivers/STM32N6xx_HAL_Driver/Src/stm32n6xx_hal.c **** 
 3194              		.loc 1 1569 21 is_stmt 0 view .LVU562
 3195 0074 0020     		movs	r0, #0
1603:../../Drivers/STM32N6xx_HAL_Driver/Src/stm32n6xx_hal.c ****         }
 3196              		.loc 1 1603 11 view .LVU563
 3197 0076 7047     		bx	lr
 3198              	.LVL123:
 3199              	.L315:
1607:../../Drivers/STM32N6xx_HAL_Driver/Src/stm32n6xx_hal.c ****           break;
 3200              		.loc 1 1607 11 is_stmt 1 view .LVU564
 3201 0078 1848     		ldr	r0, .L330
 3202              	.LVL124:
1607:../../Drivers/STM32N6xx_HAL_Driver/Src/stm32n6xx_hal.c ****           break;
 3203              		.loc 1 1607 11 is_stmt 0 view .LVU565
 3204 007a C16C     		ldr	r1, [r0, #76]
 3205 007c 21F43F71 		bic	r1, r1, #764
 3206 0080 21F00301 		bic	r1, r1, #3
 3207 0084 42EA0312 		orr	r2, r2, r3, lsl #4
 3208              	.LVL125:
1607:../../Drivers/STM32N6xx_HAL_Driver/Src/stm32n6xx_hal.c ****           break;
 3209              		.loc 1 1607 11 view .LVU566
 3210 0088 1143     		orrs	r1, r1, r2
 3211 008a 41F40071 		orr	r1, r1, #512
 3212 008e C164     		str	r1, [r0, #76]
1608:../../Drivers/STM32N6xx_HAL_Driver/Src/stm32n6xx_hal.c ****         }
 3213              		.loc 1 1608 11 is_stmt 1 view .LVU567
1569:../../Drivers/STM32N6xx_HAL_Driver/Src/stm32n6xx_hal.c **** 
 3214              		.loc 1 1569 21 is_stmt 0 view .LVU568
 3215 0090 0020     		movs	r0, #0
1608:../../Drivers/STM32N6xx_HAL_Driver/Src/stm32n6xx_hal.c ****         }
 3216              		.loc 1 1608 11 view .LVU569
 3217 0092 7047     		bx	lr
 3218              	.LVL126:
 3219              	.L324:
1622:../../Drivers/STM32N6xx_HAL_Driver/Src/stm32n6xx_hal.c ****     {
1623:../../Drivers/STM32N6xx_HAL_Driver/Src/stm32n6xx_hal.c **** 
1624:../../Drivers/STM32N6xx_HAL_Driver/Src/stm32n6xx_hal.c ****       case SYSCFG_IO_VDDIO2_CELL:
ARM GAS  C:\Users\SMART\AppData\Local\Temp\ccwDMaLv.s 			page 85


1625:../../Drivers/STM32N6xx_HAL_Driver/Src/stm32n6xx_hal.c ****       {
1626:../../Drivers/STM32N6xx_HAL_Driver/Src/stm32n6xx_hal.c ****         MODIFY_REG(SYSCFG->VDDIO2CCCR, SYSCFG_VDDIO2CCCR_CS, 0U);
 3220              		.loc 1 1626 9 is_stmt 1 view .LVU570
 3221 0094 114A     		ldr	r2, .L330
 3222              	.LVL127:
 3223              		.loc 1 1626 9 is_stmt 0 view .LVU571
 3224 0096 536D     		ldr	r3, [r2, #84]
 3225 0098 23F40073 		bic	r3, r3, #512
 3226 009c 5365     		str	r3, [r2, #84]
1627:../../Drivers/STM32N6xx_HAL_Driver/Src/stm32n6xx_hal.c ****         break;
 3227              		.loc 1 1627 9 is_stmt 1 view .LVU572
1569:../../Drivers/STM32N6xx_HAL_Driver/Src/stm32n6xx_hal.c **** 
 3228              		.loc 1 1569 21 is_stmt 0 view .LVU573
 3229 009e 0020     		movs	r0, #0
 3230              	.LVL128:
 3231              		.loc 1 1627 9 view .LVU574
 3232 00a0 7047     		bx	lr
 3233              	.LVL129:
 3234              	.L323:
1628:../../Drivers/STM32N6xx_HAL_Driver/Src/stm32n6xx_hal.c ****       }
1629:../../Drivers/STM32N6xx_HAL_Driver/Src/stm32n6xx_hal.c ****       case SYSCFG_IO_VDDIO3_CELL:
1630:../../Drivers/STM32N6xx_HAL_Driver/Src/stm32n6xx_hal.c ****       {
1631:../../Drivers/STM32N6xx_HAL_Driver/Src/stm32n6xx_hal.c ****         MODIFY_REG(SYSCFG->VDDIO3CCCR, SYSCFG_VDDIO3CCCR_CS, 0U);
 3235              		.loc 1 1631 9 is_stmt 1 view .LVU575
 3236 00a2 0E4A     		ldr	r2, .L330
 3237              	.LVL130:
 3238              		.loc 1 1631 9 is_stmt 0 view .LVU576
 3239 00a4 D36D     		ldr	r3, [r2, #92]
 3240 00a6 23F40073 		bic	r3, r3, #512
 3241 00aa D365     		str	r3, [r2, #92]
1632:../../Drivers/STM32N6xx_HAL_Driver/Src/stm32n6xx_hal.c ****         break;
 3242              		.loc 1 1632 9 is_stmt 1 view .LVU577
1569:../../Drivers/STM32N6xx_HAL_Driver/Src/stm32n6xx_hal.c **** 
 3243              		.loc 1 1569 21 is_stmt 0 view .LVU578
 3244 00ac 0020     		movs	r0, #0
 3245              	.LVL131:
 3246              		.loc 1 1632 9 view .LVU579
 3247 00ae 7047     		bx	lr
 3248              	.LVL132:
 3249              	.L322:
1633:../../Drivers/STM32N6xx_HAL_Driver/Src/stm32n6xx_hal.c ****       }
1634:../../Drivers/STM32N6xx_HAL_Driver/Src/stm32n6xx_hal.c ****       case SYSCFG_IO_VDDIO4_CELL:
1635:../../Drivers/STM32N6xx_HAL_Driver/Src/stm32n6xx_hal.c ****       {
1636:../../Drivers/STM32N6xx_HAL_Driver/Src/stm32n6xx_hal.c ****         MODIFY_REG(SYSCFG->VDDIO4CCCR, SYSCFG_VDDIO4CCCR_CS, 0U);
 3250              		.loc 1 1636 9 is_stmt 1 view .LVU580
 3251 00b0 0A4A     		ldr	r2, .L330
 3252              	.LVL133:
 3253              		.loc 1 1636 9 is_stmt 0 view .LVU581
 3254 00b2 536C     		ldr	r3, [r2, #68]
 3255 00b4 23F40073 		bic	r3, r3, #512
 3256 00b8 5364     		str	r3, [r2, #68]
1637:../../Drivers/STM32N6xx_HAL_Driver/Src/stm32n6xx_hal.c ****         break;
 3257              		.loc 1 1637 9 is_stmt 1 view .LVU582
1569:../../Drivers/STM32N6xx_HAL_Driver/Src/stm32n6xx_hal.c **** 
 3258              		.loc 1 1569 21 is_stmt 0 view .LVU583
 3259 00ba 0020     		movs	r0, #0
 3260              	.LVL134:
ARM GAS  C:\Users\SMART\AppData\Local\Temp\ccwDMaLv.s 			page 86


 3261              		.loc 1 1637 9 view .LVU584
 3262 00bc 7047     		bx	lr
 3263              	.LVL135:
 3264              	.L320:
1638:../../Drivers/STM32N6xx_HAL_Driver/Src/stm32n6xx_hal.c ****       }
1639:../../Drivers/STM32N6xx_HAL_Driver/Src/stm32n6xx_hal.c ****       case SYSCFG_IO_VDDIO5_CELL:
1640:../../Drivers/STM32N6xx_HAL_Driver/Src/stm32n6xx_hal.c ****       {
1641:../../Drivers/STM32N6xx_HAL_Driver/Src/stm32n6xx_hal.c ****         MODIFY_REG(SYSCFG->VDDIO5CCCR, SYSCFG_VDDIO5CCCR_CS, 0U);
 3265              		.loc 1 1641 9 is_stmt 1 view .LVU585
 3266 00be 074A     		ldr	r2, .L330
 3267              	.LVL136:
 3268              		.loc 1 1641 9 is_stmt 0 view .LVU586
 3269 00c0 D36C     		ldr	r3, [r2, #76]
 3270 00c2 23F40073 		bic	r3, r3, #512
 3271 00c6 D364     		str	r3, [r2, #76]
1642:../../Drivers/STM32N6xx_HAL_Driver/Src/stm32n6xx_hal.c ****         break;
 3272              		.loc 1 1642 9 is_stmt 1 view .LVU587
1569:../../Drivers/STM32N6xx_HAL_Driver/Src/stm32n6xx_hal.c **** 
 3273              		.loc 1 1569 21 is_stmt 0 view .LVU588
 3274 00c8 0020     		movs	r0, #0
 3275              	.LVL137:
 3276              		.loc 1 1642 9 view .LVU589
 3277 00ca 7047     		bx	lr
 3278              	.LVL138:
 3279              	.L325:
1584:../../Drivers/STM32N6xx_HAL_Driver/Src/stm32n6xx_hal.c ****     }
 3280              		.loc 1 1584 14 view .LVU590
 3281 00cc 0120     		movs	r0, #1
 3282              	.LVL139:
1584:../../Drivers/STM32N6xx_HAL_Driver/Src/stm32n6xx_hal.c ****     }
 3283              		.loc 1 1584 14 view .LVU591
 3284 00ce 7047     		bx	lr
 3285              	.LVL140:
 3286              	.L326:
1584:../../Drivers/STM32N6xx_HAL_Driver/Src/stm32n6xx_hal.c ****     }
 3287              		.loc 1 1584 14 view .LVU592
 3288 00d0 0120     		movs	r0, #1
 3289              	.LVL141:
1584:../../Drivers/STM32N6xx_HAL_Driver/Src/stm32n6xx_hal.c ****     }
 3290              		.loc 1 1584 14 view .LVU593
 3291 00d2 7047     		bx	lr
 3292              	.LVL142:
 3293              	.L327:
1588:../../Drivers/STM32N6xx_HAL_Driver/Src/stm32n6xx_hal.c ****       {
 3294              		.loc 1 1588 7 view .LVU594
 3295 00d4 0120     		movs	r0, #1
 3296              	.LVL143:
1588:../../Drivers/STM32N6xx_HAL_Driver/Src/stm32n6xx_hal.c ****       {
 3297              		.loc 1 1588 7 view .LVU595
 3298 00d6 7047     		bx	lr
 3299              	.LVL144:
 3300              	.L328:
1621:../../Drivers/STM32N6xx_HAL_Driver/Src/stm32n6xx_hal.c ****     {
 3301              		.loc 1 1621 5 view .LVU596
 3302 00d8 0120     		movs	r0, #1
 3303              	.LVL145:
1643:../../Drivers/STM32N6xx_HAL_Driver/Src/stm32n6xx_hal.c ****       }
ARM GAS  C:\Users\SMART\AppData\Local\Temp\ccwDMaLv.s 			page 87


1644:../../Drivers/STM32N6xx_HAL_Driver/Src/stm32n6xx_hal.c ****       default:
1645:../../Drivers/STM32N6xx_HAL_Driver/Src/stm32n6xx_hal.c ****       {
1646:../../Drivers/STM32N6xx_HAL_Driver/Src/stm32n6xx_hal.c ****         /* Update error status */
1647:../../Drivers/STM32N6xx_HAL_Driver/Src/stm32n6xx_hal.c ****         status = HAL_ERROR;
1648:../../Drivers/STM32N6xx_HAL_Driver/Src/stm32n6xx_hal.c ****         break;
1649:../../Drivers/STM32N6xx_HAL_Driver/Src/stm32n6xx_hal.c ****       }
1650:../../Drivers/STM32N6xx_HAL_Driver/Src/stm32n6xx_hal.c ****     }
1651:../../Drivers/STM32N6xx_HAL_Driver/Src/stm32n6xx_hal.c ****   }
1652:../../Drivers/STM32N6xx_HAL_Driver/Src/stm32n6xx_hal.c ****   return status;
 3304              		.loc 1 1652 3 is_stmt 1 view .LVU597
1653:../../Drivers/STM32N6xx_HAL_Driver/Src/stm32n6xx_hal.c **** }
 3305              		.loc 1 1653 1 is_stmt 0 view .LVU598
 3306 00da 7047     		bx	lr
 3307              	.L331:
 3308              		.align	2
 3309              	.L330:
 3310 00dc 00800056 		.word	1442873344
 3311              		.cfi_endproc
 3312              	.LFE952:
 3314              		.section	.text.HAL_SYSCFG_GetVDDIOCompensationCell,"ax",%progbits
 3315              		.align	1
 3316              		.global	HAL_SYSCFG_GetVDDIOCompensationCell
 3317              		.syntax unified
 3318              		.thumb
 3319              		.thumb_func
 3321              	HAL_SYSCFG_GetVDDIOCompensationCell:
 3322              	.LVL146:
 3323              	.LFB953:
1654:../../Drivers/STM32N6xx_HAL_Driver/Src/stm32n6xx_hal.c **** 
1655:../../Drivers/STM32N6xx_HAL_Driver/Src/stm32n6xx_hal.c **** /**
1656:../../Drivers/STM32N6xx_HAL_Driver/Src/stm32n6xx_hal.c ****   * @brief  Get the code selection for the compensation cell
1657:../../Drivers/STM32N6xx_HAL_Driver/Src/stm32n6xx_hal.c ****   * @param  Selection specifies the concerned compensation cell
1658:../../Drivers/STM32N6xx_HAL_Driver/Src/stm32n6xx_hal.c ****   *         This parameter can one of the following values:
1659:../../Drivers/STM32N6xx_HAL_Driver/Src/stm32n6xx_hal.c ****   *            @arg SYSCFG_IO_VDDIO2_CELL Compensation cell for the VDDIO2
1660:../../Drivers/STM32N6xx_HAL_Driver/Src/stm32n6xx_hal.c ****   *            @arg SYSCFG_IO_VDDIO3_CELL Compensation cell for the VDDIO3
1661:../../Drivers/STM32N6xx_HAL_Driver/Src/stm32n6xx_hal.c ****   *            @arg SYSCFG_IO_VDDIO4_CELL Compensation cell for the VDDIO4
1662:../../Drivers/STM32N6xx_HAL_Driver/Src/stm32n6xx_hal.c ****   *            @arg SYSCFG_IO_VDDIO5_CELL Compensation cell for the VDDIO5
1663:../../Drivers/STM32N6xx_HAL_Driver/Src/stm32n6xx_hal.c ****   * @param  pCode pointer to code selection
1664:../../Drivers/STM32N6xx_HAL_Driver/Src/stm32n6xx_hal.c ****   *         This parameter can be one of the following values:
1665:../../Drivers/STM32N6xx_HAL_Driver/Src/stm32n6xx_hal.c ****   *            @arg SYSCFG_IO_CELL_CODE  Code from the cell (available in the SYSCFG_VDDIOxCCSR)
1666:../../Drivers/STM32N6xx_HAL_Driver/Src/stm32n6xx_hal.c ****   *            @arg SYSCFG_IO_REGISTER_CODE Code from the compensation cell code register ((SYSCFG_
1667:../../Drivers/STM32N6xx_HAL_Driver/Src/stm32n6xx_hal.c ****   * @param  pNmosValue pointer to the Nmos value in range 0 to 15
1668:../../Drivers/STM32N6xx_HAL_Driver/Src/stm32n6xx_hal.c ****   * @param  pPmosValue pointer to the Pmos value in range 0 to 15
1669:../../Drivers/STM32N6xx_HAL_Driver/Src/stm32n6xx_hal.c ****   * @retval  HAL_OK (all values available) or HAL_ERROR (check parameters)
1670:../../Drivers/STM32N6xx_HAL_Driver/Src/stm32n6xx_hal.c ****   */
1671:../../Drivers/STM32N6xx_HAL_Driver/Src/stm32n6xx_hal.c **** HAL_StatusTypeDef HAL_SYSCFG_GetVDDIOCompensationCell(uint32_t Selection, const uint32_t *pCode, ui
1672:../../Drivers/STM32N6xx_HAL_Driver/Src/stm32n6xx_hal.c ****                                                       uint32_t *pPmosValue)
1673:../../Drivers/STM32N6xx_HAL_Driver/Src/stm32n6xx_hal.c **** {
 3324              		.loc 1 1673 1 is_stmt 1 view -0
 3325              		.cfi_startproc
 3326              		@ args = 0, pretend = 0, frame = 0
 3327              		@ frame_needed = 0, uses_anonymous_args = 0
 3328              		@ link register save eliminated.
1674:../../Drivers/STM32N6xx_HAL_Driver/Src/stm32n6xx_hal.c ****   HAL_StatusTypeDef status = HAL_ERROR;
 3329              		.loc 1 1674 3 view .LVU600
1675:../../Drivers/STM32N6xx_HAL_Driver/Src/stm32n6xx_hal.c ****   uint32_t values = 0;
 3330              		.loc 1 1675 3 view .LVU601
ARM GAS  C:\Users\SMART\AppData\Local\Temp\ccwDMaLv.s 			page 88


1676:../../Drivers/STM32N6xx_HAL_Driver/Src/stm32n6xx_hal.c **** 
1677:../../Drivers/STM32N6xx_HAL_Driver/Src/stm32n6xx_hal.c ****   /* Check the parameters */
1678:../../Drivers/STM32N6xx_HAL_Driver/Src/stm32n6xx_hal.c ****   assert_param(IS_SYSCFG_COMPENSATION_CELL(Selection));
 3331              		.loc 1 1678 3 view .LVU602
1679:../../Drivers/STM32N6xx_HAL_Driver/Src/stm32n6xx_hal.c ****   assert_param(IS_SYSCFG_IO_COMPENSATION_CODE(*pCode));
 3332              		.loc 1 1679 3 view .LVU603
1680:../../Drivers/STM32N6xx_HAL_Driver/Src/stm32n6xx_hal.c **** 
1681:../../Drivers/STM32N6xx_HAL_Driver/Src/stm32n6xx_hal.c ****   if ((pCode != NULL) && (pNmosValue != NULL) && (pPmosValue != NULL))
 3333              		.loc 1 1681 3 view .LVU604
 3334              		.loc 1 1681 6 is_stmt 0 view .LVU605
 3335 0000 0029     		cmp	r1, #0
 3336 0002 48D0     		beq	.L346
 3337              		.loc 1 1681 23 discriminator 1 view .LVU606
 3338 0004 002A     		cmp	r2, #0
 3339 0006 48D0     		beq	.L347
 3340              		.loc 1 1681 47 discriminator 2 view .LVU607
 3341 0008 002B     		cmp	r3, #0
 3342 000a 48D0     		beq	.L348
1673:../../Drivers/STM32N6xx_HAL_Driver/Src/stm32n6xx_hal.c ****   HAL_StatusTypeDef status = HAL_ERROR;
 3343              		.loc 1 1673 1 view .LVU608
 3344 000c 10B4     		push	{r4}
 3345              	.LCFI5:
 3346              		.cfi_def_cfa_offset 4
 3347              		.cfi_offset 4, -4
1682:../../Drivers/STM32N6xx_HAL_Driver/Src/stm32n6xx_hal.c ****   {
1683:../../Drivers/STM32N6xx_HAL_Driver/Src/stm32n6xx_hal.c ****     status = HAL_OK;
 3348              		.loc 1 1683 5 is_stmt 1 view .LVU609
 3349              	.LVL147:
1684:../../Drivers/STM32N6xx_HAL_Driver/Src/stm32n6xx_hal.c **** 
1685:../../Drivers/STM32N6xx_HAL_Driver/Src/stm32n6xx_hal.c ****     if (*pCode == SYSCFG_IO_REGISTER_CODE)
 3350              		.loc 1 1685 5 view .LVU610
 3351              		.loc 1 1685 9 is_stmt 0 view .LVU611
 3352 000e 0968     		ldr	r1, [r1]
 3353              	.LVL148:
 3354              		.loc 1 1685 8 view .LVU612
 3355 0010 0129     		cmp	r1, #1
 3356 0012 05D0     		beq	.L355
1686:../../Drivers/STM32N6xx_HAL_Driver/Src/stm32n6xx_hal.c ****     {
1687:../../Drivers/STM32N6xx_HAL_Driver/Src/stm32n6xx_hal.c ****       switch (Selection)
1688:../../Drivers/STM32N6xx_HAL_Driver/Src/stm32n6xx_hal.c ****       {
1689:../../Drivers/STM32N6xx_HAL_Driver/Src/stm32n6xx_hal.c ****         case SYSCFG_IO_VDDIO2_CELL:
1690:../../Drivers/STM32N6xx_HAL_Driver/Src/stm32n6xx_hal.c ****         {
1691:../../Drivers/STM32N6xx_HAL_Driver/Src/stm32n6xx_hal.c ****           values = READ_REG(SYSCFG->VDDIO2CCCR) & 0xFFU;
1692:../../Drivers/STM32N6xx_HAL_Driver/Src/stm32n6xx_hal.c ****           break;
1693:../../Drivers/STM32N6xx_HAL_Driver/Src/stm32n6xx_hal.c ****         }
1694:../../Drivers/STM32N6xx_HAL_Driver/Src/stm32n6xx_hal.c ****         case SYSCFG_IO_VDDIO3_CELL:
1695:../../Drivers/STM32N6xx_HAL_Driver/Src/stm32n6xx_hal.c ****         {
1696:../../Drivers/STM32N6xx_HAL_Driver/Src/stm32n6xx_hal.c ****           values = READ_REG(SYSCFG->VDDIO3CCCR) & 0xFFU;
1697:../../Drivers/STM32N6xx_HAL_Driver/Src/stm32n6xx_hal.c ****           break;
1698:../../Drivers/STM32N6xx_HAL_Driver/Src/stm32n6xx_hal.c ****         }
1699:../../Drivers/STM32N6xx_HAL_Driver/Src/stm32n6xx_hal.c ****         case SYSCFG_IO_VDDIO4_CELL:
1700:../../Drivers/STM32N6xx_HAL_Driver/Src/stm32n6xx_hal.c ****         {
1701:../../Drivers/STM32N6xx_HAL_Driver/Src/stm32n6xx_hal.c ****           values = READ_REG(SYSCFG->VDDIO4CCCR) & 0xFFU;
1702:../../Drivers/STM32N6xx_HAL_Driver/Src/stm32n6xx_hal.c ****           break;
1703:../../Drivers/STM32N6xx_HAL_Driver/Src/stm32n6xx_hal.c ****         }
1704:../../Drivers/STM32N6xx_HAL_Driver/Src/stm32n6xx_hal.c ****         case SYSCFG_IO_VDDIO5_CELL:
1705:../../Drivers/STM32N6xx_HAL_Driver/Src/stm32n6xx_hal.c ****         {
ARM GAS  C:\Users\SMART\AppData\Local\Temp\ccwDMaLv.s 			page 89


1706:../../Drivers/STM32N6xx_HAL_Driver/Src/stm32n6xx_hal.c ****           values = READ_REG(SYSCFG->VDDIO5CCCR) & 0xFFU;
1707:../../Drivers/STM32N6xx_HAL_Driver/Src/stm32n6xx_hal.c ****           break;
1708:../../Drivers/STM32N6xx_HAL_Driver/Src/stm32n6xx_hal.c ****         }
1709:../../Drivers/STM32N6xx_HAL_Driver/Src/stm32n6xx_hal.c ****         default:
1710:../../Drivers/STM32N6xx_HAL_Driver/Src/stm32n6xx_hal.c ****         {
1711:../../Drivers/STM32N6xx_HAL_Driver/Src/stm32n6xx_hal.c ****           /* Update error status */
1712:../../Drivers/STM32N6xx_HAL_Driver/Src/stm32n6xx_hal.c ****           status = HAL_ERROR;
1713:../../Drivers/STM32N6xx_HAL_Driver/Src/stm32n6xx_hal.c ****           break;
1714:../../Drivers/STM32N6xx_HAL_Driver/Src/stm32n6xx_hal.c ****         }
1715:../../Drivers/STM32N6xx_HAL_Driver/Src/stm32n6xx_hal.c ****       }
1716:../../Drivers/STM32N6xx_HAL_Driver/Src/stm32n6xx_hal.c ****     }
1717:../../Drivers/STM32N6xx_HAL_Driver/Src/stm32n6xx_hal.c ****     else
1718:../../Drivers/STM32N6xx_HAL_Driver/Src/stm32n6xx_hal.c ****     {
1719:../../Drivers/STM32N6xx_HAL_Driver/Src/stm32n6xx_hal.c ****       switch (Selection)
 3357              		.loc 1 1719 7 is_stmt 1 view .LVU613
 3358 0014 0328     		cmp	r0, #3
 3359 0016 3BD8     		bhi	.L350
 3360 0018 DFE800F0 		tbb	[pc, r0]
 3361              	.L342:
 3362 001c 1C       		.byte	(.L345-.L342)/2
 3363 001d 28       		.byte	(.L344-.L342)/2
 3364 001e 2D       		.byte	(.L343-.L342)/2
 3365 001f 32       		.byte	(.L341-.L342)/2
 3366              		.p2align 1
 3367              	.L355:
1687:../../Drivers/STM32N6xx_HAL_Driver/Src/stm32n6xx_hal.c ****       {
 3368              		.loc 1 1687 7 view .LVU614
 3369 0020 0328     		cmp	r0, #3
 3370 0022 32D8     		bhi	.L349
 3371 0024 DFE800F0 		tbb	[pc, r0]
 3372              	.L337:
 3373 0028 02       		.byte	(.L340-.L337)/2
 3374 0029 07       		.byte	(.L339-.L337)/2
 3375 002a 0C       		.byte	(.L338-.L337)/2
 3376 002b 11       		.byte	(.L336-.L337)/2
 3377              		.p2align 1
 3378              	.L340:
1691:../../Drivers/STM32N6xx_HAL_Driver/Src/stm32n6xx_hal.c ****           break;
 3379              		.loc 1 1691 11 view .LVU615
1691:../../Drivers/STM32N6xx_HAL_Driver/Src/stm32n6xx_hal.c ****           break;
 3380              		.loc 1 1691 20 is_stmt 0 view .LVU616
 3381 002c 1D49     		ldr	r1, .L356
 3382 002e 496D     		ldr	r1, [r1, #84]
1691:../../Drivers/STM32N6xx_HAL_Driver/Src/stm32n6xx_hal.c ****           break;
 3383              		.loc 1 1691 18 view .LVU617
 3384 0030 C9B2     		uxtb	r1, r1
 3385              	.LVL149:
1692:../../Drivers/STM32N6xx_HAL_Driver/Src/stm32n6xx_hal.c ****         }
 3386              		.loc 1 1692 11 is_stmt 1 view .LVU618
1683:../../Drivers/STM32N6xx_HAL_Driver/Src/stm32n6xx_hal.c **** 
 3387              		.loc 1 1683 12 is_stmt 0 view .LVU619
 3388 0032 0020     		movs	r0, #0
 3389              	.LVL150:
1692:../../Drivers/STM32N6xx_HAL_Driver/Src/stm32n6xx_hal.c ****         }
 3390              		.loc 1 1692 11 view .LVU620
 3391 0034 12E0     		b	.L335
 3392              	.LVL151:
ARM GAS  C:\Users\SMART\AppData\Local\Temp\ccwDMaLv.s 			page 90


 3393              	.L339:
1696:../../Drivers/STM32N6xx_HAL_Driver/Src/stm32n6xx_hal.c ****           break;
 3394              		.loc 1 1696 11 is_stmt 1 view .LVU621
1696:../../Drivers/STM32N6xx_HAL_Driver/Src/stm32n6xx_hal.c ****           break;
 3395              		.loc 1 1696 20 is_stmt 0 view .LVU622
 3396 0036 1B49     		ldr	r1, .L356
 3397 0038 C96D     		ldr	r1, [r1, #92]
1696:../../Drivers/STM32N6xx_HAL_Driver/Src/stm32n6xx_hal.c ****           break;
 3398              		.loc 1 1696 18 view .LVU623
 3399 003a C9B2     		uxtb	r1, r1
 3400              	.LVL152:
1697:../../Drivers/STM32N6xx_HAL_Driver/Src/stm32n6xx_hal.c ****         }
 3401              		.loc 1 1697 11 is_stmt 1 view .LVU624
1683:../../Drivers/STM32N6xx_HAL_Driver/Src/stm32n6xx_hal.c **** 
 3402              		.loc 1 1683 12 is_stmt 0 view .LVU625
 3403 003c 0020     		movs	r0, #0
 3404              	.LVL153:
1697:../../Drivers/STM32N6xx_HAL_Driver/Src/stm32n6xx_hal.c ****         }
 3405              		.loc 1 1697 11 view .LVU626
 3406 003e 0DE0     		b	.L335
 3407              	.LVL154:
 3408              	.L338:
1701:../../Drivers/STM32N6xx_HAL_Driver/Src/stm32n6xx_hal.c ****           break;
 3409              		.loc 1 1701 11 is_stmt 1 view .LVU627
1701:../../Drivers/STM32N6xx_HAL_Driver/Src/stm32n6xx_hal.c ****           break;
 3410              		.loc 1 1701 20 is_stmt 0 view .LVU628
 3411 0040 1849     		ldr	r1, .L356
 3412 0042 496C     		ldr	r1, [r1, #68]
1701:../../Drivers/STM32N6xx_HAL_Driver/Src/stm32n6xx_hal.c ****           break;
 3413              		.loc 1 1701 18 view .LVU629
 3414 0044 C9B2     		uxtb	r1, r1
 3415              	.LVL155:
1702:../../Drivers/STM32N6xx_HAL_Driver/Src/stm32n6xx_hal.c ****         }
 3416              		.loc 1 1702 11 is_stmt 1 view .LVU630
1683:../../Drivers/STM32N6xx_HAL_Driver/Src/stm32n6xx_hal.c **** 
 3417              		.loc 1 1683 12 is_stmt 0 view .LVU631
 3418 0046 0020     		movs	r0, #0
 3419              	.LVL156:
1702:../../Drivers/STM32N6xx_HAL_Driver/Src/stm32n6xx_hal.c ****         }
 3420              		.loc 1 1702 11 view .LVU632
 3421 0048 08E0     		b	.L335
 3422              	.LVL157:
 3423              	.L336:
1706:../../Drivers/STM32N6xx_HAL_Driver/Src/stm32n6xx_hal.c ****           break;
 3424              		.loc 1 1706 11 is_stmt 1 view .LVU633
1706:../../Drivers/STM32N6xx_HAL_Driver/Src/stm32n6xx_hal.c ****           break;
 3425              		.loc 1 1706 20 is_stmt 0 view .LVU634
 3426 004a 1649     		ldr	r1, .L356
 3427 004c C96C     		ldr	r1, [r1, #76]
1706:../../Drivers/STM32N6xx_HAL_Driver/Src/stm32n6xx_hal.c ****           break;
 3428              		.loc 1 1706 18 view .LVU635
 3429 004e C9B2     		uxtb	r1, r1
 3430              	.LVL158:
1707:../../Drivers/STM32N6xx_HAL_Driver/Src/stm32n6xx_hal.c ****         }
 3431              		.loc 1 1707 11 is_stmt 1 view .LVU636
1683:../../Drivers/STM32N6xx_HAL_Driver/Src/stm32n6xx_hal.c **** 
 3432              		.loc 1 1683 12 is_stmt 0 view .LVU637
ARM GAS  C:\Users\SMART\AppData\Local\Temp\ccwDMaLv.s 			page 91


 3433 0050 0020     		movs	r0, #0
 3434              	.LVL159:
1707:../../Drivers/STM32N6xx_HAL_Driver/Src/stm32n6xx_hal.c ****         }
 3435              		.loc 1 1707 11 view .LVU638
 3436 0052 03E0     		b	.L335
 3437              	.LVL160:
 3438              	.L345:
1720:../../Drivers/STM32N6xx_HAL_Driver/Src/stm32n6xx_hal.c ****       {
1721:../../Drivers/STM32N6xx_HAL_Driver/Src/stm32n6xx_hal.c ****         case SYSCFG_IO_VDDIO2_CELL:
1722:../../Drivers/STM32N6xx_HAL_Driver/Src/stm32n6xx_hal.c ****         {
1723:../../Drivers/STM32N6xx_HAL_Driver/Src/stm32n6xx_hal.c ****           values = READ_REG(SYSCFG->VDDIO2CCSR) & 0xFFU;
 3439              		.loc 1 1723 11 is_stmt 1 view .LVU639
 3440              		.loc 1 1723 20 is_stmt 0 view .LVU640
 3441 0054 1349     		ldr	r1, .L356
 3442 0056 896D     		ldr	r1, [r1, #88]
 3443              		.loc 1 1723 18 view .LVU641
 3444 0058 C9B2     		uxtb	r1, r1
 3445              	.LVL161:
1724:../../Drivers/STM32N6xx_HAL_Driver/Src/stm32n6xx_hal.c ****           break;
 3446              		.loc 1 1724 11 is_stmt 1 view .LVU642
1683:../../Drivers/STM32N6xx_HAL_Driver/Src/stm32n6xx_hal.c **** 
 3447              		.loc 1 1683 12 is_stmt 0 view .LVU643
 3448 005a 0020     		movs	r0, #0
 3449              	.LVL162:
 3450              	.L335:
1725:../../Drivers/STM32N6xx_HAL_Driver/Src/stm32n6xx_hal.c ****         }
1726:../../Drivers/STM32N6xx_HAL_Driver/Src/stm32n6xx_hal.c ****         case SYSCFG_IO_VDDIO3_CELL:
1727:../../Drivers/STM32N6xx_HAL_Driver/Src/stm32n6xx_hal.c ****         {
1728:../../Drivers/STM32N6xx_HAL_Driver/Src/stm32n6xx_hal.c ****           values = READ_REG(SYSCFG->VDDIO3CCSR) & 0xFFU;
1729:../../Drivers/STM32N6xx_HAL_Driver/Src/stm32n6xx_hal.c ****           break;
1730:../../Drivers/STM32N6xx_HAL_Driver/Src/stm32n6xx_hal.c ****         }
1731:../../Drivers/STM32N6xx_HAL_Driver/Src/stm32n6xx_hal.c ****         case SYSCFG_IO_VDDIO4_CELL:
1732:../../Drivers/STM32N6xx_HAL_Driver/Src/stm32n6xx_hal.c ****         {
1733:../../Drivers/STM32N6xx_HAL_Driver/Src/stm32n6xx_hal.c ****           values = READ_REG(SYSCFG->VDDIO4CCSR) & 0xFFU;
1734:../../Drivers/STM32N6xx_HAL_Driver/Src/stm32n6xx_hal.c ****           break;
1735:../../Drivers/STM32N6xx_HAL_Driver/Src/stm32n6xx_hal.c ****         }
1736:../../Drivers/STM32N6xx_HAL_Driver/Src/stm32n6xx_hal.c ****         case SYSCFG_IO_VDDIO5_CELL:
1737:../../Drivers/STM32N6xx_HAL_Driver/Src/stm32n6xx_hal.c ****         {
1738:../../Drivers/STM32N6xx_HAL_Driver/Src/stm32n6xx_hal.c ****           values = READ_REG(SYSCFG->VDDIO5CCSR) & 0xFFU;
1739:../../Drivers/STM32N6xx_HAL_Driver/Src/stm32n6xx_hal.c ****           break;
1740:../../Drivers/STM32N6xx_HAL_Driver/Src/stm32n6xx_hal.c ****         }
1741:../../Drivers/STM32N6xx_HAL_Driver/Src/stm32n6xx_hal.c ****         default:
1742:../../Drivers/STM32N6xx_HAL_Driver/Src/stm32n6xx_hal.c ****         {
1743:../../Drivers/STM32N6xx_HAL_Driver/Src/stm32n6xx_hal.c ****           /* Update error status */
1744:../../Drivers/STM32N6xx_HAL_Driver/Src/stm32n6xx_hal.c ****           status = HAL_ERROR;
1745:../../Drivers/STM32N6xx_HAL_Driver/Src/stm32n6xx_hal.c ****           break;
1746:../../Drivers/STM32N6xx_HAL_Driver/Src/stm32n6xx_hal.c ****         }
1747:../../Drivers/STM32N6xx_HAL_Driver/Src/stm32n6xx_hal.c ****       }
1748:../../Drivers/STM32N6xx_HAL_Driver/Src/stm32n6xx_hal.c ****     }
1749:../../Drivers/STM32N6xx_HAL_Driver/Src/stm32n6xx_hal.c ****     *pNmosValue = (values & 0xFU);
 3451              		.loc 1 1749 5 is_stmt 1 view .LVU644
 3452              		.loc 1 1749 27 is_stmt 0 view .LVU645
 3453 005c 01F00F04 		and	r4, r1, #15
 3454              		.loc 1 1749 17 view .LVU646
 3455 0060 1460     		str	r4, [r2]
1750:../../Drivers/STM32N6xx_HAL_Driver/Src/stm32n6xx_hal.c ****     *pPmosValue = ((values & 0xF0U) >> 4U);
 3456              		.loc 1 1750 5 is_stmt 1 view .LVU647
ARM GAS  C:\Users\SMART\AppData\Local\Temp\ccwDMaLv.s 			page 92


 3457              		.loc 1 1750 37 is_stmt 0 view .LVU648
 3458 0062 0909     		lsrs	r1, r1, #4
 3459              	.LVL163:
 3460              		.loc 1 1750 17 view .LVU649
 3461 0064 1960     		str	r1, [r3]
1751:../../Drivers/STM32N6xx_HAL_Driver/Src/stm32n6xx_hal.c ****   }
1752:../../Drivers/STM32N6xx_HAL_Driver/Src/stm32n6xx_hal.c ****   return status;
 3462              		.loc 1 1752 3 is_stmt 1 view .LVU650
1753:../../Drivers/STM32N6xx_HAL_Driver/Src/stm32n6xx_hal.c **** }
 3463              		.loc 1 1753 1 is_stmt 0 view .LVU651
 3464 0066 5DF8044B 		ldr	r4, [sp], #4
 3465              	.LCFI6:
 3466              		.cfi_remember_state
 3467              		.cfi_restore 4
 3468              		.cfi_def_cfa_offset 0
 3469 006a 7047     		bx	lr
 3470              	.LVL164:
 3471              	.L344:
 3472              	.LCFI7:
 3473              		.cfi_restore_state
1728:../../Drivers/STM32N6xx_HAL_Driver/Src/stm32n6xx_hal.c ****           break;
 3474              		.loc 1 1728 11 is_stmt 1 view .LVU652
1728:../../Drivers/STM32N6xx_HAL_Driver/Src/stm32n6xx_hal.c ****           break;
 3475              		.loc 1 1728 20 is_stmt 0 view .LVU653
 3476 006c 0D49     		ldr	r1, .L356
 3477 006e 096E     		ldr	r1, [r1, #96]
1728:../../Drivers/STM32N6xx_HAL_Driver/Src/stm32n6xx_hal.c ****           break;
 3478              		.loc 1 1728 18 view .LVU654
 3479 0070 C9B2     		uxtb	r1, r1
 3480              	.LVL165:
1729:../../Drivers/STM32N6xx_HAL_Driver/Src/stm32n6xx_hal.c ****         }
 3481              		.loc 1 1729 11 is_stmt 1 view .LVU655
1683:../../Drivers/STM32N6xx_HAL_Driver/Src/stm32n6xx_hal.c **** 
 3482              		.loc 1 1683 12 is_stmt 0 view .LVU656
 3483 0072 0020     		movs	r0, #0
 3484              	.LVL166:
1729:../../Drivers/STM32N6xx_HAL_Driver/Src/stm32n6xx_hal.c ****         }
 3485              		.loc 1 1729 11 view .LVU657
 3486 0074 F2E7     		b	.L335
 3487              	.LVL167:
 3488              	.L343:
1733:../../Drivers/STM32N6xx_HAL_Driver/Src/stm32n6xx_hal.c ****           break;
 3489              		.loc 1 1733 11 is_stmt 1 view .LVU658
1733:../../Drivers/STM32N6xx_HAL_Driver/Src/stm32n6xx_hal.c ****           break;
 3490              		.loc 1 1733 20 is_stmt 0 view .LVU659
 3491 0076 0B49     		ldr	r1, .L356
 3492 0078 896C     		ldr	r1, [r1, #72]
1733:../../Drivers/STM32N6xx_HAL_Driver/Src/stm32n6xx_hal.c ****           break;
 3493              		.loc 1 1733 18 view .LVU660
 3494 007a C9B2     		uxtb	r1, r1
 3495              	.LVL168:
1734:../../Drivers/STM32N6xx_HAL_Driver/Src/stm32n6xx_hal.c ****         }
 3496              		.loc 1 1734 11 is_stmt 1 view .LVU661
1683:../../Drivers/STM32N6xx_HAL_Driver/Src/stm32n6xx_hal.c **** 
 3497              		.loc 1 1683 12 is_stmt 0 view .LVU662
 3498 007c 0020     		movs	r0, #0
 3499              	.LVL169:
ARM GAS  C:\Users\SMART\AppData\Local\Temp\ccwDMaLv.s 			page 93


1734:../../Drivers/STM32N6xx_HAL_Driver/Src/stm32n6xx_hal.c ****         }
 3500              		.loc 1 1734 11 view .LVU663
 3501 007e EDE7     		b	.L335
 3502              	.LVL170:
 3503              	.L341:
1738:../../Drivers/STM32N6xx_HAL_Driver/Src/stm32n6xx_hal.c ****           break;
 3504              		.loc 1 1738 11 is_stmt 1 view .LVU664
1738:../../Drivers/STM32N6xx_HAL_Driver/Src/stm32n6xx_hal.c ****           break;
 3505              		.loc 1 1738 20 is_stmt 0 view .LVU665
 3506 0080 0849     		ldr	r1, .L356
 3507 0082 096D     		ldr	r1, [r1, #80]
1738:../../Drivers/STM32N6xx_HAL_Driver/Src/stm32n6xx_hal.c ****           break;
 3508              		.loc 1 1738 18 view .LVU666
 3509 0084 C9B2     		uxtb	r1, r1
 3510              	.LVL171:
1739:../../Drivers/STM32N6xx_HAL_Driver/Src/stm32n6xx_hal.c ****         }
 3511              		.loc 1 1739 11 is_stmt 1 view .LVU667
1683:../../Drivers/STM32N6xx_HAL_Driver/Src/stm32n6xx_hal.c **** 
 3512              		.loc 1 1683 12 is_stmt 0 view .LVU668
 3513 0086 0020     		movs	r0, #0
 3514              	.LVL172:
1739:../../Drivers/STM32N6xx_HAL_Driver/Src/stm32n6xx_hal.c ****         }
 3515              		.loc 1 1739 11 view .LVU669
 3516 0088 E8E7     		b	.L335
 3517              	.LVL173:
 3518              	.L349:
1687:../../Drivers/STM32N6xx_HAL_Driver/Src/stm32n6xx_hal.c ****       {
 3519              		.loc 1 1687 7 view .LVU670
 3520 008a 0021     		movs	r1, #0
 3521 008c 0120     		movs	r0, #1
 3522              	.LVL174:
1687:../../Drivers/STM32N6xx_HAL_Driver/Src/stm32n6xx_hal.c ****       {
 3523              		.loc 1 1687 7 view .LVU671
 3524 008e E5E7     		b	.L335
 3525              	.LVL175:
 3526              	.L350:
1719:../../Drivers/STM32N6xx_HAL_Driver/Src/stm32n6xx_hal.c ****       {
 3527              		.loc 1 1719 7 view .LVU672
 3528 0090 0021     		movs	r1, #0
 3529 0092 0120     		movs	r0, #1
 3530              	.LVL176:
1719:../../Drivers/STM32N6xx_HAL_Driver/Src/stm32n6xx_hal.c ****       {
 3531              		.loc 1 1719 7 view .LVU673
 3532 0094 E2E7     		b	.L335
 3533              	.LVL177:
 3534              	.L346:
 3535              	.LCFI8:
 3536              		.cfi_def_cfa_offset 0
 3537              		.cfi_restore 4
1674:../../Drivers/STM32N6xx_HAL_Driver/Src/stm32n6xx_hal.c ****   uint32_t values = 0;
 3538              		.loc 1 1674 21 view .LVU674
 3539 0096 0120     		movs	r0, #1
 3540              	.LVL178:
1674:../../Drivers/STM32N6xx_HAL_Driver/Src/stm32n6xx_hal.c ****   uint32_t values = 0;
 3541              		.loc 1 1674 21 view .LVU675
 3542 0098 7047     		bx	lr
 3543              	.LVL179:
ARM GAS  C:\Users\SMART\AppData\Local\Temp\ccwDMaLv.s 			page 94


 3544              	.L347:
1674:../../Drivers/STM32N6xx_HAL_Driver/Src/stm32n6xx_hal.c ****   uint32_t values = 0;
 3545              		.loc 1 1674 21 view .LVU676
 3546 009a 0120     		movs	r0, #1
 3547              	.LVL180:
1674:../../Drivers/STM32N6xx_HAL_Driver/Src/stm32n6xx_hal.c ****   uint32_t values = 0;
 3548              		.loc 1 1674 21 view .LVU677
 3549 009c 7047     		bx	lr
 3550              	.LVL181:
 3551              	.L348:
1674:../../Drivers/STM32N6xx_HAL_Driver/Src/stm32n6xx_hal.c ****   uint32_t values = 0;
 3552              		.loc 1 1674 21 view .LVU678
 3553 009e 0120     		movs	r0, #1
 3554              	.LVL182:
1752:../../Drivers/STM32N6xx_HAL_Driver/Src/stm32n6xx_hal.c **** }
 3555              		.loc 1 1752 3 is_stmt 1 view .LVU679
 3556              		.loc 1 1753 1 is_stmt 0 view .LVU680
 3557 00a0 7047     		bx	lr
 3558              	.L357:
 3559 00a2 00BF     		.align	2
 3560              	.L356:
 3561 00a4 00800056 		.word	1442873344
 3562              		.cfi_endproc
 3563              	.LFE953:
 3565              		.section	.text.HAL_SYSCFG_GetCompVDDIO2CellReadyStatus,"ax",%progbits
 3566              		.align	1
 3567              		.global	HAL_SYSCFG_GetCompVDDIO2CellReadyStatus
 3568              		.syntax unified
 3569              		.thumb
 3570              		.thumb_func
 3572              	HAL_SYSCFG_GetCompVDDIO2CellReadyStatus:
 3573              	.LFB954:
1754:../../Drivers/STM32N6xx_HAL_Driver/Src/stm32n6xx_hal.c **** 
1755:../../Drivers/STM32N6xx_HAL_Driver/Src/stm32n6xx_hal.c **** /**
1756:../../Drivers/STM32N6xx_HAL_Driver/Src/stm32n6xx_hal.c ****   * @brief  Get the compensation cell ready status of VDDIO2.
1757:../../Drivers/STM32N6xx_HAL_Driver/Src/stm32n6xx_hal.c ****   * @retval Ready status (0 (not ready) or !=0 (ready))
1758:../../Drivers/STM32N6xx_HAL_Driver/Src/stm32n6xx_hal.c ****   */
1759:../../Drivers/STM32N6xx_HAL_Driver/Src/stm32n6xx_hal.c **** uint32_t HAL_SYSCFG_GetCompVDDIO2CellReadyStatus(void)
1760:../../Drivers/STM32N6xx_HAL_Driver/Src/stm32n6xx_hal.c **** {
 3574              		.loc 1 1760 1 is_stmt 1 view -0
 3575              		.cfi_startproc
 3576              		@ args = 0, pretend = 0, frame = 0
 3577              		@ frame_needed = 0, uses_anonymous_args = 0
 3578              		@ link register save eliminated.
1761:../../Drivers/STM32N6xx_HAL_Driver/Src/stm32n6xx_hal.c ****   return READ_BIT(SYSCFG->VDDIO2CCSR, SYSCFG_VDDIO2CCSR_READY);
 3579              		.loc 1 1761 3 view .LVU682
 3580              		.loc 1 1761 10 is_stmt 0 view .LVU683
 3581 0000 024B     		ldr	r3, .L359
 3582 0002 986D     		ldr	r0, [r3, #88]
1762:../../Drivers/STM32N6xx_HAL_Driver/Src/stm32n6xx_hal.c **** }
 3583              		.loc 1 1762 1 view .LVU684
 3584 0004 00F48070 		and	r0, r0, #256
 3585 0008 7047     		bx	lr
 3586              	.L360:
 3587 000a 00BF     		.align	2
 3588              	.L359:
 3589 000c 00800056 		.word	1442873344
ARM GAS  C:\Users\SMART\AppData\Local\Temp\ccwDMaLv.s 			page 95


 3590              		.cfi_endproc
 3591              	.LFE954:
 3593              		.section	.text.HAL_SYSCFG_GetCompVDDIO3CellReadyStatus,"ax",%progbits
 3594              		.align	1
 3595              		.global	HAL_SYSCFG_GetCompVDDIO3CellReadyStatus
 3596              		.syntax unified
 3597              		.thumb
 3598              		.thumb_func
 3600              	HAL_SYSCFG_GetCompVDDIO3CellReadyStatus:
 3601              	.LFB955:
1763:../../Drivers/STM32N6xx_HAL_Driver/Src/stm32n6xx_hal.c **** 
1764:../../Drivers/STM32N6xx_HAL_Driver/Src/stm32n6xx_hal.c **** /**
1765:../../Drivers/STM32N6xx_HAL_Driver/Src/stm32n6xx_hal.c ****   * @brief  Get the compensation cell ready status of VDDIO3.
1766:../../Drivers/STM32N6xx_HAL_Driver/Src/stm32n6xx_hal.c ****   * @retval Ready status (0 (not ready) or !=0 (ready))
1767:../../Drivers/STM32N6xx_HAL_Driver/Src/stm32n6xx_hal.c ****   */
1768:../../Drivers/STM32N6xx_HAL_Driver/Src/stm32n6xx_hal.c **** uint32_t HAL_SYSCFG_GetCompVDDIO3CellReadyStatus(void)
1769:../../Drivers/STM32N6xx_HAL_Driver/Src/stm32n6xx_hal.c **** {
 3602              		.loc 1 1769 1 is_stmt 1 view -0
 3603              		.cfi_startproc
 3604              		@ args = 0, pretend = 0, frame = 0
 3605              		@ frame_needed = 0, uses_anonymous_args = 0
 3606              		@ link register save eliminated.
1770:../../Drivers/STM32N6xx_HAL_Driver/Src/stm32n6xx_hal.c ****   return READ_BIT(SYSCFG->VDDIO3CCSR, SYSCFG_VDDIO3CCSR_READY);
 3607              		.loc 1 1770 3 view .LVU686
 3608              		.loc 1 1770 10 is_stmt 0 view .LVU687
 3609 0000 024B     		ldr	r3, .L362
 3610 0002 186E     		ldr	r0, [r3, #96]
1771:../../Drivers/STM32N6xx_HAL_Driver/Src/stm32n6xx_hal.c **** }
 3611              		.loc 1 1771 1 view .LVU688
 3612 0004 00F48070 		and	r0, r0, #256
 3613 0008 7047     		bx	lr
 3614              	.L363:
 3615 000a 00BF     		.align	2
 3616              	.L362:
 3617 000c 00800056 		.word	1442873344
 3618              		.cfi_endproc
 3619              	.LFE955:
 3621              		.section	.text.HAL_SYSCFG_GetCompVDDIO4CellReadyStatus,"ax",%progbits
 3622              		.align	1
 3623              		.global	HAL_SYSCFG_GetCompVDDIO4CellReadyStatus
 3624              		.syntax unified
 3625              		.thumb
 3626              		.thumb_func
 3628              	HAL_SYSCFG_GetCompVDDIO4CellReadyStatus:
 3629              	.LFB956:
1772:../../Drivers/STM32N6xx_HAL_Driver/Src/stm32n6xx_hal.c **** 
1773:../../Drivers/STM32N6xx_HAL_Driver/Src/stm32n6xx_hal.c **** /**
1774:../../Drivers/STM32N6xx_HAL_Driver/Src/stm32n6xx_hal.c ****   * @brief Get the compensation cell ready status of VDDIO4.
1775:../../Drivers/STM32N6xx_HAL_Driver/Src/stm32n6xx_hal.c ****   * @retval Ready status (0 (not ready) or !=0 (ready))
1776:../../Drivers/STM32N6xx_HAL_Driver/Src/stm32n6xx_hal.c ****   */
1777:../../Drivers/STM32N6xx_HAL_Driver/Src/stm32n6xx_hal.c **** uint32_t HAL_SYSCFG_GetCompVDDIO4CellReadyStatus(void)
1778:../../Drivers/STM32N6xx_HAL_Driver/Src/stm32n6xx_hal.c **** {
 3630              		.loc 1 1778 1 is_stmt 1 view -0
 3631              		.cfi_startproc
 3632              		@ args = 0, pretend = 0, frame = 0
 3633              		@ frame_needed = 0, uses_anonymous_args = 0
 3634              		@ link register save eliminated.
ARM GAS  C:\Users\SMART\AppData\Local\Temp\ccwDMaLv.s 			page 96


1779:../../Drivers/STM32N6xx_HAL_Driver/Src/stm32n6xx_hal.c ****   return READ_BIT(SYSCFG->VDDIO4CCSR, SYSCFG_VDDIO4CCSR_READY);
 3635              		.loc 1 1779 3 view .LVU690
 3636              		.loc 1 1779 10 is_stmt 0 view .LVU691
 3637 0000 024B     		ldr	r3, .L365
 3638 0002 986C     		ldr	r0, [r3, #72]
1780:../../Drivers/STM32N6xx_HAL_Driver/Src/stm32n6xx_hal.c **** }
 3639              		.loc 1 1780 1 view .LVU692
 3640 0004 00F48070 		and	r0, r0, #256
 3641 0008 7047     		bx	lr
 3642              	.L366:
 3643 000a 00BF     		.align	2
 3644              	.L365:
 3645 000c 00800056 		.word	1442873344
 3646              		.cfi_endproc
 3647              	.LFE956:
 3649              		.section	.text.HAL_SYSCFG_GetCompVDDIO5CellReadyStatus,"ax",%progbits
 3650              		.align	1
 3651              		.global	HAL_SYSCFG_GetCompVDDIO5CellReadyStatus
 3652              		.syntax unified
 3653              		.thumb
 3654              		.thumb_func
 3656              	HAL_SYSCFG_GetCompVDDIO5CellReadyStatus:
 3657              	.LFB957:
1781:../../Drivers/STM32N6xx_HAL_Driver/Src/stm32n6xx_hal.c **** 
1782:../../Drivers/STM32N6xx_HAL_Driver/Src/stm32n6xx_hal.c **** /**
1783:../../Drivers/STM32N6xx_HAL_Driver/Src/stm32n6xx_hal.c ****   * @brief Get the compensation cell ready status of VDDIO5.
1784:../../Drivers/STM32N6xx_HAL_Driver/Src/stm32n6xx_hal.c ****   * @retval Ready status (0 (not ready) or !=0 (ready))
1785:../../Drivers/STM32N6xx_HAL_Driver/Src/stm32n6xx_hal.c ****   */
1786:../../Drivers/STM32N6xx_HAL_Driver/Src/stm32n6xx_hal.c **** uint32_t HAL_SYSCFG_GetCompVDDIO5CellReadyStatus(void)
1787:../../Drivers/STM32N6xx_HAL_Driver/Src/stm32n6xx_hal.c **** {
 3658              		.loc 1 1787 1 is_stmt 1 view -0
 3659              		.cfi_startproc
 3660              		@ args = 0, pretend = 0, frame = 0
 3661              		@ frame_needed = 0, uses_anonymous_args = 0
 3662              		@ link register save eliminated.
1788:../../Drivers/STM32N6xx_HAL_Driver/Src/stm32n6xx_hal.c ****   return READ_BIT(SYSCFG->VDDIO5CCSR, SYSCFG_VDDIO5CCSR_READY);
 3663              		.loc 1 1788 3 view .LVU694
 3664              		.loc 1 1788 10 is_stmt 0 view .LVU695
 3665 0000 024B     		ldr	r3, .L368
 3666 0002 186D     		ldr	r0, [r3, #80]
1789:../../Drivers/STM32N6xx_HAL_Driver/Src/stm32n6xx_hal.c **** }
 3667              		.loc 1 1789 1 view .LVU696
 3668 0004 00F48070 		and	r0, r0, #256
 3669 0008 7047     		bx	lr
 3670              	.L369:
 3671 000a 00BF     		.align	2
 3672              	.L368:
 3673 000c 00800056 		.word	1442873344
 3674              		.cfi_endproc
 3675              	.LFE957:
 3677              		.section	.text.HAL_SYSCFG_ConfigVDDCompensationCell,"ax",%progbits
 3678              		.align	1
 3679              		.global	HAL_SYSCFG_ConfigVDDCompensationCell
 3680              		.syntax unified
 3681              		.thumb
 3682              		.thumb_func
 3684              	HAL_SYSCFG_ConfigVDDCompensationCell:
ARM GAS  C:\Users\SMART\AppData\Local\Temp\ccwDMaLv.s 			page 97


 3685              	.LVL183:
 3686              	.LFB958:
1790:../../Drivers/STM32N6xx_HAL_Driver/Src/stm32n6xx_hal.c **** 
1791:../../Drivers/STM32N6xx_HAL_Driver/Src/stm32n6xx_hal.c **** /**
1792:../../Drivers/STM32N6xx_HAL_Driver/Src/stm32n6xx_hal.c ****   * @brief  Configure the code selection for the compensation cell of VDD
1793:../../Drivers/STM32N6xx_HAL_Driver/Src/stm32n6xx_hal.c ****   * @param  Code code selection to be applied for the I/O compensation cell
1794:../../Drivers/STM32N6xx_HAL_Driver/Src/stm32n6xx_hal.c ****   *         This parameter can be one of the following values:
1795:../../Drivers/STM32N6xx_HAL_Driver/Src/stm32n6xx_hal.c ****   *            @arg SYSCFG_IO_CELL_CODE  Code from the cell (available in the SYSCFG_VDDIOxCCSR)
1796:../../Drivers/STM32N6xx_HAL_Driver/Src/stm32n6xx_hal.c ****   *            @arg SYSCFG_IO_REGISTER_CODE Code from the compensation cell code register ((SYSCFG_
1797:../../Drivers/STM32N6xx_HAL_Driver/Src/stm32n6xx_hal.c ****   * @param  NmosValue In case SYSCFG_IO_REGISTER_CODE is selected, it  provides the Nmos value
1798:../../Drivers/STM32N6xx_HAL_Driver/Src/stm32n6xx_hal.c ****   *                   to apply in range 0 to 15 else this parameter is not used
1799:../../Drivers/STM32N6xx_HAL_Driver/Src/stm32n6xx_hal.c ****   * @param  PmosValue In case SYSCFG_IO_REGISTER_CODE is selected, it  provides the Pmos value
1800:../../Drivers/STM32N6xx_HAL_Driver/Src/stm32n6xx_hal.c ****   *                   to apply in range 0 to 15 else this parameter is not used
1801:../../Drivers/STM32N6xx_HAL_Driver/Src/stm32n6xx_hal.c ****   * @retval HAL status
1802:../../Drivers/STM32N6xx_HAL_Driver/Src/stm32n6xx_hal.c ****   */
1803:../../Drivers/STM32N6xx_HAL_Driver/Src/stm32n6xx_hal.c **** 
1804:../../Drivers/STM32N6xx_HAL_Driver/Src/stm32n6xx_hal.c **** HAL_StatusTypeDef HAL_SYSCFG_ConfigVDDCompensationCell(uint32_t Code, uint32_t NmosValue, uint32_t 
1805:../../Drivers/STM32N6xx_HAL_Driver/Src/stm32n6xx_hal.c **** {
 3687              		.loc 1 1805 1 is_stmt 1 view -0
 3688              		.cfi_startproc
 3689              		@ args = 0, pretend = 0, frame = 0
 3690              		@ frame_needed = 0, uses_anonymous_args = 0
 3691              		@ link register save eliminated.
1806:../../Drivers/STM32N6xx_HAL_Driver/Src/stm32n6xx_hal.c ****   HAL_StatusTypeDef status;
 3692              		.loc 1 1806 3 view .LVU698
1807:../../Drivers/STM32N6xx_HAL_Driver/Src/stm32n6xx_hal.c **** 
1808:../../Drivers/STM32N6xx_HAL_Driver/Src/stm32n6xx_hal.c ****   /* Check the parameters */
1809:../../Drivers/STM32N6xx_HAL_Driver/Src/stm32n6xx_hal.c ****   assert_param(IS_SYSCFG_IO_COMPENSATION_CODE(Code));
 3693              		.loc 1 1809 3 view .LVU699
1810:../../Drivers/STM32N6xx_HAL_Driver/Src/stm32n6xx_hal.c **** 
1811:../../Drivers/STM32N6xx_HAL_Driver/Src/stm32n6xx_hal.c ****   if (Code == SYSCFG_IO_REGISTER_CODE)
 3694              		.loc 1 1811 3 view .LVU700
 3695              		.loc 1 1811 6 is_stmt 0 view .LVU701
 3696 0000 0128     		cmp	r0, #1
 3697 0002 06D0     		beq	.L373
1812:../../Drivers/STM32N6xx_HAL_Driver/Src/stm32n6xx_hal.c ****   {
1813:../../Drivers/STM32N6xx_HAL_Driver/Src/stm32n6xx_hal.c ****     /* Check the parameters */
1814:../../Drivers/STM32N6xx_HAL_Driver/Src/stm32n6xx_hal.c ****     assert_param(IS_SYSCFG_IO_COMPENSATION_CELL_NMOS_VALUE(NmosValue));
1815:../../Drivers/STM32N6xx_HAL_Driver/Src/stm32n6xx_hal.c ****     assert_param(IS_SYSCFG_IO_COMPENSATION_CELL_PMOS_VALUE(PmosValue));
1816:../../Drivers/STM32N6xx_HAL_Driver/Src/stm32n6xx_hal.c **** 
1817:../../Drivers/STM32N6xx_HAL_Driver/Src/stm32n6xx_hal.c ****     MODIFY_REG(SYSCFG->VDDCCCR, 0xFFU, ((NmosValue | (PmosValue << (4U))) | SYSCFG_VDDCCCR_CS));
1818:../../Drivers/STM32N6xx_HAL_Driver/Src/stm32n6xx_hal.c **** 
1819:../../Drivers/STM32N6xx_HAL_Driver/Src/stm32n6xx_hal.c ****     status = HAL_OK;
1820:../../Drivers/STM32N6xx_HAL_Driver/Src/stm32n6xx_hal.c ****   }
1821:../../Drivers/STM32N6xx_HAL_Driver/Src/stm32n6xx_hal.c ****   else
1822:../../Drivers/STM32N6xx_HAL_Driver/Src/stm32n6xx_hal.c ****   {
1823:../../Drivers/STM32N6xx_HAL_Driver/Src/stm32n6xx_hal.c ****     MODIFY_REG(SYSCFG->VDDCCCR, 0x200U, 0U);
 3698              		.loc 1 1823 5 is_stmt 1 view .LVU702
 3699 0004 084A     		ldr	r2, .L374
 3700              	.LVL184:
 3701              		.loc 1 1823 5 is_stmt 0 view .LVU703
 3702 0006 536E     		ldr	r3, [r2, #100]
 3703 0008 23F40073 		bic	r3, r3, #512
 3704 000c 5366     		str	r3, [r2, #100]
1824:../../Drivers/STM32N6xx_HAL_Driver/Src/stm32n6xx_hal.c ****     status = HAL_OK;
 3705              		.loc 1 1824 5 is_stmt 1 view .LVU704
 3706              	.LVL185:
ARM GAS  C:\Users\SMART\AppData\Local\Temp\ccwDMaLv.s 			page 98


 3707              	.L372:
1825:../../Drivers/STM32N6xx_HAL_Driver/Src/stm32n6xx_hal.c ****   }
1826:../../Drivers/STM32N6xx_HAL_Driver/Src/stm32n6xx_hal.c ****   return status;
 3708              		.loc 1 1826 3 view .LVU705
1827:../../Drivers/STM32N6xx_HAL_Driver/Src/stm32n6xx_hal.c **** }
 3709              		.loc 1 1827 1 is_stmt 0 view .LVU706
 3710 000e 0020     		movs	r0, #0
 3711 0010 7047     		bx	lr
 3712              	.LVL186:
 3713              	.L373:
1814:../../Drivers/STM32N6xx_HAL_Driver/Src/stm32n6xx_hal.c ****     assert_param(IS_SYSCFG_IO_COMPENSATION_CELL_PMOS_VALUE(PmosValue));
 3714              		.loc 1 1814 5 is_stmt 1 view .LVU707
1815:../../Drivers/STM32N6xx_HAL_Driver/Src/stm32n6xx_hal.c **** 
 3715              		.loc 1 1815 5 view .LVU708
1817:../../Drivers/STM32N6xx_HAL_Driver/Src/stm32n6xx_hal.c **** 
 3716              		.loc 1 1817 5 view .LVU709
 3717 0012 0548     		ldr	r0, .L374
 3718              	.LVL187:
1817:../../Drivers/STM32N6xx_HAL_Driver/Src/stm32n6xx_hal.c **** 
 3719              		.loc 1 1817 5 is_stmt 0 view .LVU710
 3720 0014 436E     		ldr	r3, [r0, #100]
 3721 0016 23F0FF03 		bic	r3, r3, #255
 3722 001a 41EA0211 		orr	r1, r1, r2, lsl #4
 3723              	.LVL188:
1817:../../Drivers/STM32N6xx_HAL_Driver/Src/stm32n6xx_hal.c **** 
 3724              		.loc 1 1817 5 view .LVU711
 3725 001e 0B43     		orrs	r3, r3, r1
 3726 0020 43F40073 		orr	r3, r3, #512
 3727 0024 4366     		str	r3, [r0, #100]
1819:../../Drivers/STM32N6xx_HAL_Driver/Src/stm32n6xx_hal.c ****   }
 3728              		.loc 1 1819 5 is_stmt 1 view .LVU712
 3729              	.LVL189:
1819:../../Drivers/STM32N6xx_HAL_Driver/Src/stm32n6xx_hal.c ****   }
 3730              		.loc 1 1819 5 is_stmt 0 view .LVU713
 3731 0026 F2E7     		b	.L372
 3732              	.L375:
 3733              		.align	2
 3734              	.L374:
 3735 0028 00800056 		.word	1442873344
 3736              		.cfi_endproc
 3737              	.LFE958:
 3739              		.section	.text.HAL_SYSCFG_EnableVDDCompensationCell,"ax",%progbits
 3740              		.align	1
 3741              		.global	HAL_SYSCFG_EnableVDDCompensationCell
 3742              		.syntax unified
 3743              		.thumb
 3744              		.thumb_func
 3746              	HAL_SYSCFG_EnableVDDCompensationCell:
 3747              	.LFB959:
1828:../../Drivers/STM32N6xx_HAL_Driver/Src/stm32n6xx_hal.c **** 
1829:../../Drivers/STM32N6xx_HAL_Driver/Src/stm32n6xx_hal.c **** /**
1830:../../Drivers/STM32N6xx_HAL_Driver/Src/stm32n6xx_hal.c ****   * @brief  Enable the VDD compensation cell.
1831:../../Drivers/STM32N6xx_HAL_Driver/Src/stm32n6xx_hal.c ****   * @note   This function is deprecated, please refer to Errata Sheet ES0620.
1832:../../Drivers/STM32N6xx_HAL_Driver/Src/stm32n6xx_hal.c ****   *         I/O compensation cells must remain disabled. 
1833:../../Drivers/STM32N6xx_HAL_Driver/Src/stm32n6xx_hal.c ****   * @retval None
1834:../../Drivers/STM32N6xx_HAL_Driver/Src/stm32n6xx_hal.c ****   */
1835:../../Drivers/STM32N6xx_HAL_Driver/Src/stm32n6xx_hal.c **** void HAL_SYSCFG_EnableVDDCompensationCell(void)
ARM GAS  C:\Users\SMART\AppData\Local\Temp\ccwDMaLv.s 			page 99


1836:../../Drivers/STM32N6xx_HAL_Driver/Src/stm32n6xx_hal.c **** {
 3748              		.loc 1 1836 1 is_stmt 1 view -0
 3749              		.cfi_startproc
 3750              		@ args = 0, pretend = 0, frame = 0
 3751              		@ frame_needed = 0, uses_anonymous_args = 0
 3752              		@ link register save eliminated.
1837:../../Drivers/STM32N6xx_HAL_Driver/Src/stm32n6xx_hal.c ****   SET_BIT(SYSCFG->VDDCCCR, SYSCFG_VDDCCCR_EN);
 3753              		.loc 1 1837 3 view .LVU715
 3754 0000 024A     		ldr	r2, .L377
 3755 0002 536E     		ldr	r3, [r2, #100]
 3756 0004 43F48073 		orr	r3, r3, #256
 3757 0008 5366     		str	r3, [r2, #100]
1838:../../Drivers/STM32N6xx_HAL_Driver/Src/stm32n6xx_hal.c **** }
 3758              		.loc 1 1838 1 is_stmt 0 view .LVU716
 3759 000a 7047     		bx	lr
 3760              	.L378:
 3761              		.align	2
 3762              	.L377:
 3763 000c 00800056 		.word	1442873344
 3764              		.cfi_endproc
 3765              	.LFE959:
 3767              		.section	.text.HAL_SYSCFG_DisableVDDCompensationCell,"ax",%progbits
 3768              		.align	1
 3769              		.global	HAL_SYSCFG_DisableVDDCompensationCell
 3770              		.syntax unified
 3771              		.thumb
 3772              		.thumb_func
 3774              	HAL_SYSCFG_DisableVDDCompensationCell:
 3775              	.LFB960:
1839:../../Drivers/STM32N6xx_HAL_Driver/Src/stm32n6xx_hal.c **** 
1840:../../Drivers/STM32N6xx_HAL_Driver/Src/stm32n6xx_hal.c **** /**
1841:../../Drivers/STM32N6xx_HAL_Driver/Src/stm32n6xx_hal.c ****   * @brief  Disable the VDD compensation cell.
1842:../../Drivers/STM32N6xx_HAL_Driver/Src/stm32n6xx_hal.c ****   * @retval None
1843:../../Drivers/STM32N6xx_HAL_Driver/Src/stm32n6xx_hal.c ****   */
1844:../../Drivers/STM32N6xx_HAL_Driver/Src/stm32n6xx_hal.c **** void HAL_SYSCFG_DisableVDDCompensationCell(void)
1845:../../Drivers/STM32N6xx_HAL_Driver/Src/stm32n6xx_hal.c **** {
 3776              		.loc 1 1845 1 is_stmt 1 view -0
 3777              		.cfi_startproc
 3778              		@ args = 0, pretend = 0, frame = 0
 3779              		@ frame_needed = 0, uses_anonymous_args = 0
 3780              		@ link register save eliminated.
1846:../../Drivers/STM32N6xx_HAL_Driver/Src/stm32n6xx_hal.c ****   CLEAR_BIT(SYSCFG->VDDCCCR, SYSCFG_VDDCCCR_EN);
 3781              		.loc 1 1846 3 view .LVU718
 3782 0000 024A     		ldr	r2, .L380
 3783 0002 536E     		ldr	r3, [r2, #100]
 3784 0004 23F48073 		bic	r3, r3, #256
 3785 0008 5366     		str	r3, [r2, #100]
1847:../../Drivers/STM32N6xx_HAL_Driver/Src/stm32n6xx_hal.c **** }
 3786              		.loc 1 1847 1 is_stmt 0 view .LVU719
 3787 000a 7047     		bx	lr
 3788              	.L381:
 3789              		.align	2
 3790              	.L380:
 3791 000c 00800056 		.word	1442873344
 3792              		.cfi_endproc
 3793              	.LFE960:
 3795              		.section	.text.HAL_SYSCFG_GetVDDCompensationCell,"ax",%progbits
ARM GAS  C:\Users\SMART\AppData\Local\Temp\ccwDMaLv.s 			page 100


 3796              		.align	1
 3797              		.global	HAL_SYSCFG_GetVDDCompensationCell
 3798              		.syntax unified
 3799              		.thumb
 3800              		.thumb_func
 3802              	HAL_SYSCFG_GetVDDCompensationCell:
 3803              	.LVL190:
 3804              	.LFB961:
1848:../../Drivers/STM32N6xx_HAL_Driver/Src/stm32n6xx_hal.c **** 
1849:../../Drivers/STM32N6xx_HAL_Driver/Src/stm32n6xx_hal.c **** /**
1850:../../Drivers/STM32N6xx_HAL_Driver/Src/stm32n6xx_hal.c ****   * @brief  Get the code selection for the compensation cell of VDD
1851:../../Drivers/STM32N6xx_HAL_Driver/Src/stm32n6xx_hal.c ****   * @param  Code code selection
1852:../../Drivers/STM32N6xx_HAL_Driver/Src/stm32n6xx_hal.c ****   *         This parameter can be one of the following values:
1853:../../Drivers/STM32N6xx_HAL_Driver/Src/stm32n6xx_hal.c ****   *            @arg SYSCFG_IO_CELL_CODE  Code from the cell (available in the SYSCFG_VDDIOxCCSR)
1854:../../Drivers/STM32N6xx_HAL_Driver/Src/stm32n6xx_hal.c ****   *            @arg SYSCFG_IO_REGISTER_CODE Code from the compensation cell code register ((SYSCFG_
1855:../../Drivers/STM32N6xx_HAL_Driver/Src/stm32n6xx_hal.c ****   * @param  pNmosValue pointer to the Nmos value in range 0 to 15
1856:../../Drivers/STM32N6xx_HAL_Driver/Src/stm32n6xx_hal.c ****   * @param  pPmosValue pointer to the Pmos value in range 0 to 15
1857:../../Drivers/STM32N6xx_HAL_Driver/Src/stm32n6xx_hal.c ****   * @retval HAL_OK (all values available) or HAL_ERROR (check parameters)
1858:../../Drivers/STM32N6xx_HAL_Driver/Src/stm32n6xx_hal.c ****   */
1859:../../Drivers/STM32N6xx_HAL_Driver/Src/stm32n6xx_hal.c **** HAL_StatusTypeDef HAL_SYSCFG_GetVDDCompensationCell(uint32_t Code, uint32_t *pNmosValue,
1860:../../Drivers/STM32N6xx_HAL_Driver/Src/stm32n6xx_hal.c ****                                                     uint32_t *pPmosValue)
1861:../../Drivers/STM32N6xx_HAL_Driver/Src/stm32n6xx_hal.c **** {
 3805              		.loc 1 1861 1 is_stmt 1 view -0
 3806              		.cfi_startproc
 3807              		@ args = 0, pretend = 0, frame = 0
 3808              		@ frame_needed = 0, uses_anonymous_args = 0
 3809              		@ link register save eliminated.
1862:../../Drivers/STM32N6xx_HAL_Driver/Src/stm32n6xx_hal.c ****   uint32_t values;
 3810              		.loc 1 1862 3 view .LVU721
1863:../../Drivers/STM32N6xx_HAL_Driver/Src/stm32n6xx_hal.c ****   HAL_StatusTypeDef status = HAL_ERROR;
 3811              		.loc 1 1863 3 view .LVU722
1864:../../Drivers/STM32N6xx_HAL_Driver/Src/stm32n6xx_hal.c **** 
1865:../../Drivers/STM32N6xx_HAL_Driver/Src/stm32n6xx_hal.c ****   /* Check the parameters */
1866:../../Drivers/STM32N6xx_HAL_Driver/Src/stm32n6xx_hal.c ****   assert_param(IS_SYSCFG_IO_COMPENSATION_CODE(Code));
 3812              		.loc 1 1866 3 view .LVU723
1867:../../Drivers/STM32N6xx_HAL_Driver/Src/stm32n6xx_hal.c **** 
1868:../../Drivers/STM32N6xx_HAL_Driver/Src/stm32n6xx_hal.c ****   if ((pNmosValue != NULL) && (pPmosValue != NULL))
 3813              		.loc 1 1868 3 view .LVU724
 3814              		.loc 1 1868 6 is_stmt 0 view .LVU725
 3815 0000 8C46     		mov	ip, r1
 3816 0002 89B1     		cbz	r1, .L386
 3817              		.loc 1 1868 28 discriminator 1 view .LVU726
 3818 0004 92B1     		cbz	r2, .L387
1869:../../Drivers/STM32N6xx_HAL_Driver/Src/stm32n6xx_hal.c ****   {
1870:../../Drivers/STM32N6xx_HAL_Driver/Src/stm32n6xx_hal.c ****     if (Code == SYSCFG_IO_REGISTER_CODE)
 3819              		.loc 1 1870 5 is_stmt 1 view .LVU727
 3820              		.loc 1 1870 8 is_stmt 0 view .LVU728
 3821 0006 0128     		cmp	r0, #1
 3822 0008 0AD0     		beq	.L388
1871:../../Drivers/STM32N6xx_HAL_Driver/Src/stm32n6xx_hal.c ****     {
1872:../../Drivers/STM32N6xx_HAL_Driver/Src/stm32n6xx_hal.c ****       values = READ_REG(SYSCFG->VDDCCCR) & 0xFFU;
1873:../../Drivers/STM32N6xx_HAL_Driver/Src/stm32n6xx_hal.c ****     }
1874:../../Drivers/STM32N6xx_HAL_Driver/Src/stm32n6xx_hal.c ****     else
1875:../../Drivers/STM32N6xx_HAL_Driver/Src/stm32n6xx_hal.c ****     {
1876:../../Drivers/STM32N6xx_HAL_Driver/Src/stm32n6xx_hal.c ****       values = READ_REG(SYSCFG->VDDCCSR) & 0xFFU;
 3823              		.loc 1 1876 7 is_stmt 1 view .LVU729
 3824              		.loc 1 1876 16 is_stmt 0 view .LVU730
ARM GAS  C:\Users\SMART\AppData\Local\Temp\ccwDMaLv.s 			page 101


 3825 000a 094B     		ldr	r3, .L389
 3826 000c 9B6E     		ldr	r3, [r3, #104]
 3827              		.loc 1 1876 14 view .LVU731
 3828 000e DBB2     		uxtb	r3, r3
 3829              	.LVL191:
 3830              	.L385:
1877:../../Drivers/STM32N6xx_HAL_Driver/Src/stm32n6xx_hal.c ****     }
1878:../../Drivers/STM32N6xx_HAL_Driver/Src/stm32n6xx_hal.c **** 
1879:../../Drivers/STM32N6xx_HAL_Driver/Src/stm32n6xx_hal.c ****     *pNmosValue = (values & 0xFU);
 3831              		.loc 1 1879 5 is_stmt 1 view .LVU732
 3832              		.loc 1 1879 27 is_stmt 0 view .LVU733
 3833 0010 03F00F01 		and	r1, r3, #15
 3834              	.LVL192:
 3835              		.loc 1 1879 17 view .LVU734
 3836 0014 CCF80010 		str	r1, [ip]
1880:../../Drivers/STM32N6xx_HAL_Driver/Src/stm32n6xx_hal.c ****     *pPmosValue = ((values >> 4U) & 0xFU);
 3837              		.loc 1 1880 5 is_stmt 1 view .LVU735
 3838              		.loc 1 1880 35 is_stmt 0 view .LVU736
 3839 0018 1B09     		lsrs	r3, r3, #4
 3840              	.LVL193:
 3841              		.loc 1 1880 17 view .LVU737
 3842 001a 1360     		str	r3, [r2]
1881:../../Drivers/STM32N6xx_HAL_Driver/Src/stm32n6xx_hal.c **** 
1882:../../Drivers/STM32N6xx_HAL_Driver/Src/stm32n6xx_hal.c ****     status = HAL_OK;
 3843              		.loc 1 1882 5 is_stmt 1 view .LVU738
 3844              	.LVL194:
 3845              		.loc 1 1882 12 is_stmt 0 view .LVU739
 3846 001c 0020     		movs	r0, #0
 3847              	.LVL195:
 3848              		.loc 1 1882 12 view .LVU740
 3849 001e 7047     		bx	lr
 3850              	.LVL196:
 3851              	.L388:
1872:../../Drivers/STM32N6xx_HAL_Driver/Src/stm32n6xx_hal.c ****     }
 3852              		.loc 1 1872 7 is_stmt 1 view .LVU741
1872:../../Drivers/STM32N6xx_HAL_Driver/Src/stm32n6xx_hal.c ****     }
 3853              		.loc 1 1872 16 is_stmt 0 view .LVU742
 3854 0020 034B     		ldr	r3, .L389
 3855 0022 5B6E     		ldr	r3, [r3, #100]
1872:../../Drivers/STM32N6xx_HAL_Driver/Src/stm32n6xx_hal.c ****     }
 3856              		.loc 1 1872 14 view .LVU743
 3857 0024 DBB2     		uxtb	r3, r3
 3858              	.LVL197:
1872:../../Drivers/STM32N6xx_HAL_Driver/Src/stm32n6xx_hal.c ****     }
 3859              		.loc 1 1872 14 view .LVU744
 3860 0026 F3E7     		b	.L385
 3861              	.LVL198:
 3862              	.L386:
1863:../../Drivers/STM32N6xx_HAL_Driver/Src/stm32n6xx_hal.c **** 
 3863              		.loc 1 1863 21 view .LVU745
 3864 0028 0120     		movs	r0, #1
 3865              	.LVL199:
1863:../../Drivers/STM32N6xx_HAL_Driver/Src/stm32n6xx_hal.c **** 
 3866              		.loc 1 1863 21 view .LVU746
 3867 002a 7047     		bx	lr
 3868              	.LVL200:
 3869              	.L387:
ARM GAS  C:\Users\SMART\AppData\Local\Temp\ccwDMaLv.s 			page 102


1863:../../Drivers/STM32N6xx_HAL_Driver/Src/stm32n6xx_hal.c **** 
 3870              		.loc 1 1863 21 view .LVU747
 3871 002c 0120     		movs	r0, #1
 3872              	.LVL201:
1883:../../Drivers/STM32N6xx_HAL_Driver/Src/stm32n6xx_hal.c ****   }
1884:../../Drivers/STM32N6xx_HAL_Driver/Src/stm32n6xx_hal.c ****   return status;
 3873              		.loc 1 1884 3 is_stmt 1 view .LVU748
1885:../../Drivers/STM32N6xx_HAL_Driver/Src/stm32n6xx_hal.c **** }
 3874              		.loc 1 1885 1 is_stmt 0 view .LVU749
 3875 002e 7047     		bx	lr
 3876              	.L390:
 3877              		.align	2
 3878              	.L389:
 3879 0030 00800056 		.word	1442873344
 3880              		.cfi_endproc
 3881              	.LFE961:
 3883              		.section	.text.HAL_SYSCFG_GetCompensationVDDCellReadyStatus,"ax",%progbits
 3884              		.align	1
 3885              		.global	HAL_SYSCFG_GetCompensationVDDCellReadyStatus
 3886              		.syntax unified
 3887              		.thumb
 3888              		.thumb_func
 3890              	HAL_SYSCFG_GetCompensationVDDCellReadyStatus:
 3891              	.LFB962:
1886:../../Drivers/STM32N6xx_HAL_Driver/Src/stm32n6xx_hal.c **** 
1887:../../Drivers/STM32N6xx_HAL_Driver/Src/stm32n6xx_hal.c **** /**
1888:../../Drivers/STM32N6xx_HAL_Driver/Src/stm32n6xx_hal.c ****   * @brief  Get the compensation cell ready status of VDD.
1889:../../Drivers/STM32N6xx_HAL_Driver/Src/stm32n6xx_hal.c ****   * @retval Ready status (0 (not ready) or !=0 (ready))
1890:../../Drivers/STM32N6xx_HAL_Driver/Src/stm32n6xx_hal.c ****   */
1891:../../Drivers/STM32N6xx_HAL_Driver/Src/stm32n6xx_hal.c **** uint32_t HAL_SYSCFG_GetCompensationVDDCellReadyStatus(void)
1892:../../Drivers/STM32N6xx_HAL_Driver/Src/stm32n6xx_hal.c **** {
 3892              		.loc 1 1892 1 is_stmt 1 view -0
 3893              		.cfi_startproc
 3894              		@ args = 0, pretend = 0, frame = 0
 3895              		@ frame_needed = 0, uses_anonymous_args = 0
 3896              		@ link register save eliminated.
1893:../../Drivers/STM32N6xx_HAL_Driver/Src/stm32n6xx_hal.c ****   return READ_BIT(SYSCFG->VDDCCSR, SYSCFG_VDDCCSR_READY);
 3897              		.loc 1 1893 3 view .LVU751
 3898              		.loc 1 1893 10 is_stmt 0 view .LVU752
 3899 0000 024B     		ldr	r3, .L392
 3900 0002 986E     		ldr	r0, [r3, #104]
1894:../../Drivers/STM32N6xx_HAL_Driver/Src/stm32n6xx_hal.c **** }
 3901              		.loc 1 1894 1 view .LVU753
 3902 0004 00F48070 		and	r0, r0, #256
 3903 0008 7047     		bx	lr
 3904              	.L393:
 3905 000a 00BF     		.align	2
 3906              	.L392:
 3907 000c 00800056 		.word	1442873344
 3908              		.cfi_endproc
 3909              	.LFE962:
 3911              		.section	.text.HAL_SYSCFG_ConfigTimerBreakInput,"ax",%progbits
 3912              		.align	1
 3913              		.global	HAL_SYSCFG_ConfigTimerBreakInput
 3914              		.syntax unified
 3915              		.thumb
 3916              		.thumb_func
ARM GAS  C:\Users\SMART\AppData\Local\Temp\ccwDMaLv.s 			page 103


 3918              	HAL_SYSCFG_ConfigTimerBreakInput:
 3919              	.LVL202:
 3920              	.LFB963:
1895:../../Drivers/STM32N6xx_HAL_Driver/Src/stm32n6xx_hal.c **** 
1896:../../Drivers/STM32N6xx_HAL_Driver/Src/stm32n6xx_hal.c **** /**
1897:../../Drivers/STM32N6xx_HAL_Driver/Src/stm32n6xx_hal.c ****   * @brief  Configure the Timer Break input for error flag(s).
1898:../../Drivers/STM32N6xx_HAL_Driver/Src/stm32n6xx_hal.c ****   * @note   When a configuration is set, only a system reset can reset it.
1899:../../Drivers/STM32N6xx_HAL_Driver/Src/stm32n6xx_hal.c ****   * @param  Input Input configuration
1900:../../Drivers/STM32N6xx_HAL_Driver/Src/stm32n6xx_hal.c ****   *              This parameter can be one or a combination of the following values:
1901:../../Drivers/STM32N6xx_HAL_Driver/Src/stm32n6xx_hal.c ****   *                @arg SYSCFG_CBR_BREAK_LOCK_CORE       Cortex-CM55 lockup
1902:../../Drivers/STM32N6xx_HAL_Driver/Src/stm32n6xx_hal.c ****   *                @arg SYSCFG_CBR_BREAK_LOCK_PVD        PVD lock
1903:../../Drivers/STM32N6xx_HAL_Driver/Src/stm32n6xx_hal.c ****   *                @arg SYSCFG_CBR_BREAK_LOCK_BKPRAM     Backup SRAM ECC error
1904:../../Drivers/STM32N6xx_HAL_Driver/Src/stm32n6xx_hal.c ****   *                @arg SYSCFG_CBR_BREAK_LOCK_CM55_CACHE CM55 cache double ECC error
1905:../../Drivers/STM32N6xx_HAL_Driver/Src/stm32n6xx_hal.c ****   *                @arg SYSCFG_CBR_BREAK_LOCK_CM55_TCM   DTCM double ECC error
1906:../../Drivers/STM32N6xx_HAL_Driver/Src/stm32n6xx_hal.c ****   * @retval None
1907:../../Drivers/STM32N6xx_HAL_Driver/Src/stm32n6xx_hal.c ****   */
1908:../../Drivers/STM32N6xx_HAL_Driver/Src/stm32n6xx_hal.c **** void HAL_SYSCFG_ConfigTimerBreakInput(uint32_t Input)
1909:../../Drivers/STM32N6xx_HAL_Driver/Src/stm32n6xx_hal.c **** {
 3921              		.loc 1 1909 1 is_stmt 1 view -0
 3922              		.cfi_startproc
 3923              		@ args = 0, pretend = 0, frame = 0
 3924              		@ frame_needed = 0, uses_anonymous_args = 0
 3925              		@ link register save eliminated.
1910:../../Drivers/STM32N6xx_HAL_Driver/Src/stm32n6xx_hal.c ****   /* Check the parameter */
1911:../../Drivers/STM32N6xx_HAL_Driver/Src/stm32n6xx_hal.c ****   assert_param(IS_SYSCFG_CBR_BREAK_INPUT(Input));
 3926              		.loc 1 1911 3 view .LVU755
1912:../../Drivers/STM32N6xx_HAL_Driver/Src/stm32n6xx_hal.c **** 
1913:../../Drivers/STM32N6xx_HAL_Driver/Src/stm32n6xx_hal.c ****   MODIFY_REG(SYSCFG->CBR, Input, Input);
 3927              		.loc 1 1913 3 view .LVU756
 3928 0000 024A     		ldr	r2, .L395
 3929 0002 D36E     		ldr	r3, [r2, #108]
 3930 0004 0343     		orrs	r3, r3, r0
 3931 0006 D366     		str	r3, [r2, #108]
1914:../../Drivers/STM32N6xx_HAL_Driver/Src/stm32n6xx_hal.c **** }
 3932              		.loc 1 1914 1 is_stmt 0 view .LVU757
 3933 0008 7047     		bx	lr
 3934              	.L396:
 3935 000a 00BF     		.align	2
 3936              	.L395:
 3937 000c 00800056 		.word	1442873344
 3938              		.cfi_endproc
 3939              	.LFE963:
 3941              		.section	.text.HAL_SYSCFG_GetTimerBreakInputConfig,"ax",%progbits
 3942              		.align	1
 3943              		.global	HAL_SYSCFG_GetTimerBreakInputConfig
 3944              		.syntax unified
 3945              		.thumb
 3946              		.thumb_func
 3948              	HAL_SYSCFG_GetTimerBreakInputConfig:
 3949              	.LFB964:
1915:../../Drivers/STM32N6xx_HAL_Driver/Src/stm32n6xx_hal.c **** 
1916:../../Drivers/STM32N6xx_HAL_Driver/Src/stm32n6xx_hal.c **** /**
1917:../../Drivers/STM32N6xx_HAL_Driver/Src/stm32n6xx_hal.c ****   * @brief  Get the Timer Break input configuration.
1918:../../Drivers/STM32N6xx_HAL_Driver/Src/stm32n6xx_hal.c ****   * @note   When a configuration is set, only a system reset can reset it.
1919:../../Drivers/STM32N6xx_HAL_Driver/Src/stm32n6xx_hal.c ****   * @retval Timer break input configuration
1920:../../Drivers/STM32N6xx_HAL_Driver/Src/stm32n6xx_hal.c ****   *              This return value can be one or a combination of the following values:
1921:../../Drivers/STM32N6xx_HAL_Driver/Src/stm32n6xx_hal.c ****   *                @arg SYSCFG_CBR_BREAK_LOCK_CORE       Cortex-CM55 lockup
ARM GAS  C:\Users\SMART\AppData\Local\Temp\ccwDMaLv.s 			page 104


1922:../../Drivers/STM32N6xx_HAL_Driver/Src/stm32n6xx_hal.c ****   *                @arg SYSCFG_CBR_BREAK_LOCK_PVD        PVD lock
1923:../../Drivers/STM32N6xx_HAL_Driver/Src/stm32n6xx_hal.c ****   *                @arg SYSCFG_CBR_BREAK_LOCK_BKPRAM     Backup SRAM ECC error
1924:../../Drivers/STM32N6xx_HAL_Driver/Src/stm32n6xx_hal.c ****   *                @arg SYSCFG_CBR_BREAK_LOCK_CM55_CACHE CM55 cache double ECC error
1925:../../Drivers/STM32N6xx_HAL_Driver/Src/stm32n6xx_hal.c ****   *                @arg SYSCFG_CBR_BREAK_LOCK_CM55_TCM   DTCM double ECC error
1926:../../Drivers/STM32N6xx_HAL_Driver/Src/stm32n6xx_hal.c ****   */
1927:../../Drivers/STM32N6xx_HAL_Driver/Src/stm32n6xx_hal.c **** uint32_t HAL_SYSCFG_GetTimerBreakInputConfig(void)
1928:../../Drivers/STM32N6xx_HAL_Driver/Src/stm32n6xx_hal.c **** {
 3950              		.loc 1 1928 1 is_stmt 1 view -0
 3951              		.cfi_startproc
 3952              		@ args = 0, pretend = 0, frame = 0
 3953              		@ frame_needed = 0, uses_anonymous_args = 0
 3954              		@ link register save eliminated.
1929:../../Drivers/STM32N6xx_HAL_Driver/Src/stm32n6xx_hal.c ****   return (SYSCFG->CBR & SYSCFG_CBR_BREAK_LOCK_ALL);
 3955              		.loc 1 1929 3 view .LVU759
 3956              		.loc 1 1929 17 is_stmt 0 view .LVU760
 3957 0000 034B     		ldr	r3, .L398
 3958 0002 D86E     		ldr	r0, [r3, #108]
1930:../../Drivers/STM32N6xx_HAL_Driver/Src/stm32n6xx_hal.c **** }
 3959              		.loc 1 1930 1 view .LVU761
 3960 0004 20F0FA00 		bic	r0, r0, #250
 3961 0008 4005     		lsls	r0, r0, #21
 3962 000a 400D     		lsrs	r0, r0, #21
 3963 000c 7047     		bx	lr
 3964              	.L399:
 3965 000e 00BF     		.align	2
 3966              	.L398:
 3967 0010 00800056 		.word	1442873344
 3968              		.cfi_endproc
 3969              	.LFE964:
 3971              		.section	.text.HAL_SYSCFG_SetPerceivedCID,"ax",%progbits
 3972              		.align	1
 3973              		.global	HAL_SYSCFG_SetPerceivedCID
 3974              		.syntax unified
 3975              		.thumb
 3976              		.thumb_func
 3978              	HAL_SYSCFG_SetPerceivedCID:
 3979              	.LVL203:
 3980              	.LFB965:
1931:../../Drivers/STM32N6xx_HAL_Driver/Src/stm32n6xx_hal.c **** 
1932:../../Drivers/STM32N6xx_HAL_Driver/Src/stm32n6xx_hal.c **** /**
1933:../../Drivers/STM32N6xx_HAL_Driver/Src/stm32n6xx_hal.c ****   * @brief  Set the perceived CID of the peripheral.
1934:../../Drivers/STM32N6xx_HAL_Driver/Src/stm32n6xx_hal.c ****   * @note   Set the perceived CID so that all accesses which arrive at the peripheral
1935:../../Drivers/STM32N6xx_HAL_Driver/Src/stm32n6xx_hal.c ****   *         (here HPDMA) appear to carry that CID.
1936:../../Drivers/STM32N6xx_HAL_Driver/Src/stm32n6xx_hal.c ****   *         See Multi-tenancy section of the reference manual for further information.
1937:../../Drivers/STM32N6xx_HAL_Driver/Src/stm32n6xx_hal.c ****   * @param  Cid CID in range 0 to 7
1938:../../Drivers/STM32N6xx_HAL_Driver/Src/stm32n6xx_hal.c ****   * @retval None
1939:../../Drivers/STM32N6xx_HAL_Driver/Src/stm32n6xx_hal.c ****   */
1940:../../Drivers/STM32N6xx_HAL_Driver/Src/stm32n6xx_hal.c **** void HAL_SYSCFG_SetPerceivedCID(uint32_t Cid)
1941:../../Drivers/STM32N6xx_HAL_Driver/Src/stm32n6xx_hal.c **** {
 3981              		.loc 1 1941 1 is_stmt 1 view -0
 3982              		.cfi_startproc
 3983              		@ args = 0, pretend = 0, frame = 0
 3984              		@ frame_needed = 0, uses_anonymous_args = 0
 3985              		@ link register save eliminated.
1942:../../Drivers/STM32N6xx_HAL_Driver/Src/stm32n6xx_hal.c ****   /* Check the parameter */
1943:../../Drivers/STM32N6xx_HAL_Driver/Src/stm32n6xx_hal.c ****   assert_param(IS_SYSCFG_DMA_CID_SEC(Cid));
 3986              		.loc 1 1943 3 view .LVU763
ARM GAS  C:\Users\SMART\AppData\Local\Temp\ccwDMaLv.s 			page 105


1944:../../Drivers/STM32N6xx_HAL_Driver/Src/stm32n6xx_hal.c **** 
1945:../../Drivers/STM32N6xx_HAL_Driver/Src/stm32n6xx_hal.c ****   MODIFY_REG(SYSCFG->SEC_AIDCR, SYSCFG_SEC_AIDCR_DMACID_SEC, Cid);
 3987              		.loc 1 1945 3 view .LVU764
 3988 0000 034A     		ldr	r2, .L401
 3989 0002 136F     		ldr	r3, [r2, #112]
 3990 0004 23F00703 		bic	r3, r3, #7
 3991 0008 0343     		orrs	r3, r3, r0
 3992 000a 1367     		str	r3, [r2, #112]
1946:../../Drivers/STM32N6xx_HAL_Driver/Src/stm32n6xx_hal.c **** }
 3993              		.loc 1 1946 1 is_stmt 0 view .LVU765
 3994 000c 7047     		bx	lr
 3995              	.L402:
 3996 000e 00BF     		.align	2
 3997              	.L401:
 3998 0010 00800056 		.word	1442873344
 3999              		.cfi_endproc
 4000              	.LFE965:
 4002              		.section	.text.HAL_SYSCFG_GetPerceivedCID,"ax",%progbits
 4003              		.align	1
 4004              		.global	HAL_SYSCFG_GetPerceivedCID
 4005              		.syntax unified
 4006              		.thumb
 4007              		.thumb_func
 4009              	HAL_SYSCFG_GetPerceivedCID:
 4010              	.LFB966:
1947:../../Drivers/STM32N6xx_HAL_Driver/Src/stm32n6xx_hal.c **** 
1948:../../Drivers/STM32N6xx_HAL_Driver/Src/stm32n6xx_hal.c **** /**
1949:../../Drivers/STM32N6xx_HAL_Driver/Src/stm32n6xx_hal.c ****   * @brief  Get the perceived CID of the peripheral.
1950:../../Drivers/STM32N6xx_HAL_Driver/Src/stm32n6xx_hal.c ****   * @retval CID in range 0 to 7
1951:../../Drivers/STM32N6xx_HAL_Driver/Src/stm32n6xx_hal.c ****   */
1952:../../Drivers/STM32N6xx_HAL_Driver/Src/stm32n6xx_hal.c **** uint32_t HAL_SYSCFG_GetPerceivedCID(void)
1953:../../Drivers/STM32N6xx_HAL_Driver/Src/stm32n6xx_hal.c **** {
 4011              		.loc 1 1953 1 is_stmt 1 view -0
 4012              		.cfi_startproc
 4013              		@ args = 0, pretend = 0, frame = 0
 4014              		@ frame_needed = 0, uses_anonymous_args = 0
 4015              		@ link register save eliminated.
1954:../../Drivers/STM32N6xx_HAL_Driver/Src/stm32n6xx_hal.c ****   return (SYSCFG->SEC_AIDCR & SYSCFG_SEC_AIDCR_DMACID_SEC);
 4016              		.loc 1 1954 3 view .LVU767
 4017              		.loc 1 1954 17 is_stmt 0 view .LVU768
 4018 0000 024B     		ldr	r3, .L404
 4019 0002 186F     		ldr	r0, [r3, #112]
1955:../../Drivers/STM32N6xx_HAL_Driver/Src/stm32n6xx_hal.c **** }
 4020              		.loc 1 1955 1 view .LVU769
 4021 0004 00F00700 		and	r0, r0, #7
 4022 0008 7047     		bx	lr
 4023              	.L405:
 4024 000a 00BF     		.align	2
 4025              	.L404:
 4026 000c 00800056 		.word	1442873344
 4027              		.cfi_endproc
 4028              	.LFE966:
 4030              		.section	.text.HAL_SYSCFG_SetPerceivedPrivCID,"ax",%progbits
 4031              		.align	1
 4032              		.global	HAL_SYSCFG_SetPerceivedPrivCID
 4033              		.syntax unified
 4034              		.thumb
ARM GAS  C:\Users\SMART\AppData\Local\Temp\ccwDMaLv.s 			page 106


 4035              		.thumb_func
 4037              	HAL_SYSCFG_SetPerceivedPrivCID:
 4038              	.LVL204:
 4039              	.LFB967:
1956:../../Drivers/STM32N6xx_HAL_Driver/Src/stm32n6xx_hal.c **** 
1957:../../Drivers/STM32N6xx_HAL_Driver/Src/stm32n6xx_hal.c **** /**
1958:../../Drivers/STM32N6xx_HAL_Driver/Src/stm32n6xx_hal.c ****   * @brief  Set the perceived CID of the peripheral as privileged.
1959:../../Drivers/STM32N6xx_HAL_Driver/Src/stm32n6xx_hal.c ****   * @note   Set the perceived CID so that all accesses which arrive at the peripheral
1960:../../Drivers/STM32N6xx_HAL_Driver/Src/stm32n6xx_hal.c ****   *         (here HPDMA) appear to carry that CID.
1961:../../Drivers/STM32N6xx_HAL_Driver/Src/stm32n6xx_hal.c ****   *         This function shall be called in case of DMA channel interrupt (privileged) code
1962:../../Drivers/STM32N6xx_HAL_Driver/Src/stm32n6xx_hal.c ****   *         to read the registers and clear the interrupt of this DMA channel.
1963:../../Drivers/STM32N6xx_HAL_Driver/Src/stm32n6xx_hal.c ****   *         See Multi-tenancy section of the reference manual for forther information.
1964:../../Drivers/STM32N6xx_HAL_Driver/Src/stm32n6xx_hal.c ****   * @param  Cid in range 0 to 7
1965:../../Drivers/STM32N6xx_HAL_Driver/Src/stm32n6xx_hal.c ****   * @retval None
1966:../../Drivers/STM32N6xx_HAL_Driver/Src/stm32n6xx_hal.c ****   */
1967:../../Drivers/STM32N6xx_HAL_Driver/Src/stm32n6xx_hal.c **** void HAL_SYSCFG_SetPerceivedPrivCID(uint32_t Cid)
1968:../../Drivers/STM32N6xx_HAL_Driver/Src/stm32n6xx_hal.c **** {
 4040              		.loc 1 1968 1 is_stmt 1 view -0
 4041              		.cfi_startproc
 4042              		@ args = 0, pretend = 0, frame = 0
 4043              		@ frame_needed = 0, uses_anonymous_args = 0
 4044              		@ link register save eliminated.
1969:../../Drivers/STM32N6xx_HAL_Driver/Src/stm32n6xx_hal.c ****   MODIFY_REG(SYSCFG->SECPRIV_AIDCR, SYSCFG_SECPRIV_AIDCR_DMACID_NONSEC, Cid);
 4045              		.loc 1 1969 3 view .LVU771
 4046 0000 044A     		ldr	r2, .L407
 4047 0002 D2F80038 		ldr	r3, [r2, #2048]
 4048 0006 23F00703 		bic	r3, r3, #7
 4049 000a 0343     		orrs	r3, r3, r0
 4050 000c C2F80038 		str	r3, [r2, #2048]
1970:../../Drivers/STM32N6xx_HAL_Driver/Src/stm32n6xx_hal.c **** }
 4051              		.loc 1 1970 1 is_stmt 0 view .LVU772
 4052 0010 7047     		bx	lr
 4053              	.L408:
 4054 0012 00BF     		.align	2
 4055              	.L407:
 4056 0014 00800056 		.word	1442873344
 4057              		.cfi_endproc
 4058              	.LFE967:
 4060              		.section	.text.HAL_SYSCFG_GetPerceivedPrivCID,"ax",%progbits
 4061              		.align	1
 4062              		.global	HAL_SYSCFG_GetPerceivedPrivCID
 4063              		.syntax unified
 4064              		.thumb
 4065              		.thumb_func
 4067              	HAL_SYSCFG_GetPerceivedPrivCID:
 4068              	.LFB968:
1971:../../Drivers/STM32N6xx_HAL_Driver/Src/stm32n6xx_hal.c **** 
1972:../../Drivers/STM32N6xx_HAL_Driver/Src/stm32n6xx_hal.c **** /**
1973:../../Drivers/STM32N6xx_HAL_Driver/Src/stm32n6xx_hal.c ****   * @brief   Get the perceived CID of the peripheral as privileged.
1974:../../Drivers/STM32N6xx_HAL_Driver/Src/stm32n6xx_hal.c ****   * @retval  CID in range 0 to 7
1975:../../Drivers/STM32N6xx_HAL_Driver/Src/stm32n6xx_hal.c ****   */
1976:../../Drivers/STM32N6xx_HAL_Driver/Src/stm32n6xx_hal.c **** uint32_t HAL_SYSCFG_GetPerceivedPrivCID(void)
1977:../../Drivers/STM32N6xx_HAL_Driver/Src/stm32n6xx_hal.c **** {
 4069              		.loc 1 1977 1 is_stmt 1 view -0
 4070              		.cfi_startproc
 4071              		@ args = 0, pretend = 0, frame = 0
 4072              		@ frame_needed = 0, uses_anonymous_args = 0
ARM GAS  C:\Users\SMART\AppData\Local\Temp\ccwDMaLv.s 			page 107


 4073              		@ link register save eliminated.
1978:../../Drivers/STM32N6xx_HAL_Driver/Src/stm32n6xx_hal.c ****   return (SYSCFG->SECPRIV_AIDCR & SYSCFG_SECPRIV_AIDCR_DMACID_NONSEC);
 4074              		.loc 1 1978 3 view .LVU774
 4075              		.loc 1 1978 17 is_stmt 0 view .LVU775
 4076 0000 024B     		ldr	r3, .L410
 4077 0002 D3F80008 		ldr	r0, [r3, #2048]
1979:../../Drivers/STM32N6xx_HAL_Driver/Src/stm32n6xx_hal.c **** }
 4078              		.loc 1 1979 1 view .LVU776
 4079 0006 00F00700 		and	r0, r0, #7
 4080 000a 7047     		bx	lr
 4081              	.L411:
 4082              		.align	2
 4083              	.L410:
 4084 000c 00800056 		.word	1442873344
 4085              		.cfi_endproc
 4086              	.LFE968:
 4088              		.section	.text.HAL_SYSCFG_EnableReTimingRXpath,"ax",%progbits
 4089              		.align	1
 4090              		.global	HAL_SYSCFG_EnableReTimingRXpath
 4091              		.syntax unified
 4092              		.thumb
 4093              		.thumb_func
 4095              	HAL_SYSCFG_EnableReTimingRXpath:
 4096              	.LFB969:
1980:../../Drivers/STM32N6xx_HAL_Driver/Src/stm32n6xx_hal.c **** 
1981:../../Drivers/STM32N6xx_HAL_Driver/Src/stm32n6xx_hal.c **** /**
1982:../../Drivers/STM32N6xx_HAL_Driver/Src/stm32n6xx_hal.c ****   * @brief  Enable Retiming on RX path.
1983:../../Drivers/STM32N6xx_HAL_Driver/Src/stm32n6xx_hal.c ****   * @retval None
1984:../../Drivers/STM32N6xx_HAL_Driver/Src/stm32n6xx_hal.c ****   */
1985:../../Drivers/STM32N6xx_HAL_Driver/Src/stm32n6xx_hal.c **** void HAL_SYSCFG_EnableReTimingRXpath(void)
1986:../../Drivers/STM32N6xx_HAL_Driver/Src/stm32n6xx_hal.c **** {
 4097              		.loc 1 1986 1 is_stmt 1 view -0
 4098              		.cfi_startproc
 4099              		@ args = 0, pretend = 0, frame = 0
 4100              		@ frame_needed = 0, uses_anonymous_args = 0
 4101              		@ link register save eliminated.
1987:../../Drivers/STM32N6xx_HAL_Driver/Src/stm32n6xx_hal.c ****   SET_BIT(SYSCFG->FMC_RETIMECR, SYSCFG_FMC_RETIMECR_CFG_RETIME_RX);
 4102              		.loc 1 1987 3 view .LVU778
 4103 0000 024A     		ldr	r2, .L413
 4104 0002 536F     		ldr	r3, [r2, #116]
 4105 0004 43F00103 		orr	r3, r3, #1
 4106 0008 5367     		str	r3, [r2, #116]
1988:../../Drivers/STM32N6xx_HAL_Driver/Src/stm32n6xx_hal.c **** }
 4107              		.loc 1 1988 1 is_stmt 0 view .LVU779
 4108 000a 7047     		bx	lr
 4109              	.L414:
 4110              		.align	2
 4111              	.L413:
 4112 000c 00800056 		.word	1442873344
 4113              		.cfi_endproc
 4114              	.LFE969:
 4116              		.section	.text.HAL_SYSCFG_DisableReTimingRXpath,"ax",%progbits
 4117              		.align	1
 4118              		.global	HAL_SYSCFG_DisableReTimingRXpath
 4119              		.syntax unified
 4120              		.thumb
 4121              		.thumb_func
ARM GAS  C:\Users\SMART\AppData\Local\Temp\ccwDMaLv.s 			page 108


 4123              	HAL_SYSCFG_DisableReTimingRXpath:
 4124              	.LFB970:
1989:../../Drivers/STM32N6xx_HAL_Driver/Src/stm32n6xx_hal.c **** 
1990:../../Drivers/STM32N6xx_HAL_Driver/Src/stm32n6xx_hal.c **** /**
1991:../../Drivers/STM32N6xx_HAL_Driver/Src/stm32n6xx_hal.c ****   * @brief  Disable Retiming on RX path.
1992:../../Drivers/STM32N6xx_HAL_Driver/Src/stm32n6xx_hal.c ****   * @retval None
1993:../../Drivers/STM32N6xx_HAL_Driver/Src/stm32n6xx_hal.c ****   */
1994:../../Drivers/STM32N6xx_HAL_Driver/Src/stm32n6xx_hal.c **** void HAL_SYSCFG_DisableReTimingRXpath(void)
1995:../../Drivers/STM32N6xx_HAL_Driver/Src/stm32n6xx_hal.c **** {
 4125              		.loc 1 1995 1 is_stmt 1 view -0
 4126              		.cfi_startproc
 4127              		@ args = 0, pretend = 0, frame = 0
 4128              		@ frame_needed = 0, uses_anonymous_args = 0
 4129              		@ link register save eliminated.
1996:../../Drivers/STM32N6xx_HAL_Driver/Src/stm32n6xx_hal.c ****   CLEAR_BIT(SYSCFG->FMC_RETIMECR, SYSCFG_FMC_RETIMECR_CFG_RETIME_RX);
 4130              		.loc 1 1996 3 view .LVU781
 4131 0000 024A     		ldr	r2, .L416
 4132 0002 536F     		ldr	r3, [r2, #116]
 4133 0004 23F00103 		bic	r3, r3, #1
 4134 0008 5367     		str	r3, [r2, #116]
1997:../../Drivers/STM32N6xx_HAL_Driver/Src/stm32n6xx_hal.c **** }
 4135              		.loc 1 1997 1 is_stmt 0 view .LVU782
 4136 000a 7047     		bx	lr
 4137              	.L417:
 4138              		.align	2
 4139              	.L416:
 4140 000c 00800056 		.word	1442873344
 4141              		.cfi_endproc
 4142              	.LFE970:
 4144              		.section	.text.HAL_SYSCFG_EnableReTimingTXpath,"ax",%progbits
 4145              		.align	1
 4146              		.global	HAL_SYSCFG_EnableReTimingTXpath
 4147              		.syntax unified
 4148              		.thumb
 4149              		.thumb_func
 4151              	HAL_SYSCFG_EnableReTimingTXpath:
 4152              	.LFB971:
1998:../../Drivers/STM32N6xx_HAL_Driver/Src/stm32n6xx_hal.c **** 
1999:../../Drivers/STM32N6xx_HAL_Driver/Src/stm32n6xx_hal.c **** /**
2000:../../Drivers/STM32N6xx_HAL_Driver/Src/stm32n6xx_hal.c ****   * @brief  Enable Retiming on TX path.
2001:../../Drivers/STM32N6xx_HAL_Driver/Src/stm32n6xx_hal.c ****   * @retval None
2002:../../Drivers/STM32N6xx_HAL_Driver/Src/stm32n6xx_hal.c ****   */
2003:../../Drivers/STM32N6xx_HAL_Driver/Src/stm32n6xx_hal.c **** void HAL_SYSCFG_EnableReTimingTXpath(void)
2004:../../Drivers/STM32N6xx_HAL_Driver/Src/stm32n6xx_hal.c **** {
 4153              		.loc 1 2004 1 is_stmt 1 view -0
 4154              		.cfi_startproc
 4155              		@ args = 0, pretend = 0, frame = 0
 4156              		@ frame_needed = 0, uses_anonymous_args = 0
 4157              		@ link register save eliminated.
2005:../../Drivers/STM32N6xx_HAL_Driver/Src/stm32n6xx_hal.c ****   SET_BIT(SYSCFG->FMC_RETIMECR, SYSCFG_FMC_RETIMECR_CFG_RETIME_TX);
 4158              		.loc 1 2005 3 view .LVU784
 4159 0000 024A     		ldr	r2, .L419
 4160 0002 536F     		ldr	r3, [r2, #116]
 4161 0004 43F00203 		orr	r3, r3, #2
 4162 0008 5367     		str	r3, [r2, #116]
2006:../../Drivers/STM32N6xx_HAL_Driver/Src/stm32n6xx_hal.c **** }
 4163              		.loc 1 2006 1 is_stmt 0 view .LVU785
ARM GAS  C:\Users\SMART\AppData\Local\Temp\ccwDMaLv.s 			page 109


 4164 000a 7047     		bx	lr
 4165              	.L420:
 4166              		.align	2
 4167              	.L419:
 4168 000c 00800056 		.word	1442873344
 4169              		.cfi_endproc
 4170              	.LFE971:
 4172              		.section	.text.HAL_SYSCFG_DisableReTimingTXpath,"ax",%progbits
 4173              		.align	1
 4174              		.global	HAL_SYSCFG_DisableReTimingTXpath
 4175              		.syntax unified
 4176              		.thumb
 4177              		.thumb_func
 4179              	HAL_SYSCFG_DisableReTimingTXpath:
 4180              	.LFB972:
2007:../../Drivers/STM32N6xx_HAL_Driver/Src/stm32n6xx_hal.c **** 
2008:../../Drivers/STM32N6xx_HAL_Driver/Src/stm32n6xx_hal.c **** /**
2009:../../Drivers/STM32N6xx_HAL_Driver/Src/stm32n6xx_hal.c ****   * @brief  Disable Retiming on TX path.
2010:../../Drivers/STM32N6xx_HAL_Driver/Src/stm32n6xx_hal.c ****   * @retval None
2011:../../Drivers/STM32N6xx_HAL_Driver/Src/stm32n6xx_hal.c ****   */
2012:../../Drivers/STM32N6xx_HAL_Driver/Src/stm32n6xx_hal.c **** void HAL_SYSCFG_DisableReTimingTXpath(void)
2013:../../Drivers/STM32N6xx_HAL_Driver/Src/stm32n6xx_hal.c **** {
 4181              		.loc 1 2013 1 is_stmt 1 view -0
 4182              		.cfi_startproc
 4183              		@ args = 0, pretend = 0, frame = 0
 4184              		@ frame_needed = 0, uses_anonymous_args = 0
 4185              		@ link register save eliminated.
2014:../../Drivers/STM32N6xx_HAL_Driver/Src/stm32n6xx_hal.c ****   CLEAR_BIT(SYSCFG->FMC_RETIMECR, SYSCFG_FMC_RETIMECR_CFG_RETIME_TX);
 4186              		.loc 1 2014 3 view .LVU787
 4187 0000 024A     		ldr	r2, .L422
 4188 0002 536F     		ldr	r3, [r2, #116]
 4189 0004 23F00203 		bic	r3, r3, #2
 4190 0008 5367     		str	r3, [r2, #116]
2015:../../Drivers/STM32N6xx_HAL_Driver/Src/stm32n6xx_hal.c **** }
 4191              		.loc 1 2015 1 is_stmt 0 view .LVU788
 4192 000a 7047     		bx	lr
 4193              	.L423:
 4194              		.align	2
 4195              	.L422:
 4196 000c 00800056 		.word	1442873344
 4197              		.cfi_endproc
 4198              	.LFE972:
 4200              		.section	.text.HAL_SYSCFG_SetDelayOnFeedbackClock,"ax",%progbits
 4201              		.align	1
 4202              		.global	HAL_SYSCFG_SetDelayOnFeedbackClock
 4203              		.syntax unified
 4204              		.thumb
 4205              		.thumb_func
 4207              	HAL_SYSCFG_SetDelayOnFeedbackClock:
 4208              	.LVL205:
 4209              	.LFB973:
2016:../../Drivers/STM32N6xx_HAL_Driver/Src/stm32n6xx_hal.c **** 
2017:../../Drivers/STM32N6xx_HAL_Driver/Src/stm32n6xx_hal.c **** /**
2018:../../Drivers/STM32N6xx_HAL_Driver/Src/stm32n6xx_hal.c ****   * @brief  Set delay on feedback clock.
2019:../../Drivers/STM32N6xx_HAL_Driver/Src/stm32n6xx_hal.c ****   * @param  Delay Delay on feedback clock
2020:../../Drivers/STM32N6xx_HAL_Driver/Src/stm32n6xx_hal.c ****   *                @arg SYSCFG_DELAY_FEEDBACK_NONE             None
2021:../../Drivers/STM32N6xx_HAL_Driver/Src/stm32n6xx_hal.c ****   *                @arg SYSCFG_DELAY_FEEDBACK_HALF_CYCLE       Half a cycle delay
ARM GAS  C:\Users\SMART\AppData\Local\Temp\ccwDMaLv.s 			page 110


2022:../../Drivers/STM32N6xx_HAL_Driver/Src/stm32n6xx_hal.c ****   * @retval None
2023:../../Drivers/STM32N6xx_HAL_Driver/Src/stm32n6xx_hal.c ****   */
2024:../../Drivers/STM32N6xx_HAL_Driver/Src/stm32n6xx_hal.c **** void HAL_SYSCFG_SetDelayOnFeedbackClock(uint32_t Delay)
2025:../../Drivers/STM32N6xx_HAL_Driver/Src/stm32n6xx_hal.c **** {
 4210              		.loc 1 2025 1 is_stmt 1 view -0
 4211              		.cfi_startproc
 4212              		@ args = 0, pretend = 0, frame = 0
 4213              		@ frame_needed = 0, uses_anonymous_args = 0
 4214              		@ link register save eliminated.
2026:../../Drivers/STM32N6xx_HAL_Driver/Src/stm32n6xx_hal.c ****   /* Check the parameter */
2027:../../Drivers/STM32N6xx_HAL_Driver/Src/stm32n6xx_hal.c ****   assert_param(IS_SYSCFG_DMA_DELAY_FEEDBACK_CLOCK(Delay));
 4215              		.loc 1 2027 3 view .LVU790
2028:../../Drivers/STM32N6xx_HAL_Driver/Src/stm32n6xx_hal.c **** 
2029:../../Drivers/STM32N6xx_HAL_Driver/Src/stm32n6xx_hal.c ****   MODIFY_REG(SYSCFG->FMC_RETIMECR, SYSCFG_FMC_RETIMECR_SDFBCLK_180, Delay);
 4216              		.loc 1 2029 3 view .LVU791
 4217 0000 034A     		ldr	r2, .L425
 4218 0002 536F     		ldr	r3, [r2, #116]
 4219 0004 23F00403 		bic	r3, r3, #4
 4220 0008 0343     		orrs	r3, r3, r0
 4221 000a 5367     		str	r3, [r2, #116]
2030:../../Drivers/STM32N6xx_HAL_Driver/Src/stm32n6xx_hal.c **** }
 4222              		.loc 1 2030 1 is_stmt 0 view .LVU792
 4223 000c 7047     		bx	lr
 4224              	.L426:
 4225 000e 00BF     		.align	2
 4226              	.L425:
 4227 0010 00800056 		.word	1442873344
 4228              		.cfi_endproc
 4229              	.LFE973:
 4231              		.section	.text.HAL_SYSCFG_GetDelayOnFeedbackClock,"ax",%progbits
 4232              		.align	1
 4233              		.global	HAL_SYSCFG_GetDelayOnFeedbackClock
 4234              		.syntax unified
 4235              		.thumb
 4236              		.thumb_func
 4238              	HAL_SYSCFG_GetDelayOnFeedbackClock:
 4239              	.LFB974:
2031:../../Drivers/STM32N6xx_HAL_Driver/Src/stm32n6xx_hal.c **** 
2032:../../Drivers/STM32N6xx_HAL_Driver/Src/stm32n6xx_hal.c **** /**
2033:../../Drivers/STM32N6xx_HAL_Driver/Src/stm32n6xx_hal.c ****   * @brief  Get delay on feedback clock.
2034:../../Drivers/STM32N6xx_HAL_Driver/Src/stm32n6xx_hal.c ****   * @retval Delay on feedback clock
2035:../../Drivers/STM32N6xx_HAL_Driver/Src/stm32n6xx_hal.c ****   *                @arg SYSCFG_DELAY_FEEDBACK_NONE             None
2036:../../Drivers/STM32N6xx_HAL_Driver/Src/stm32n6xx_hal.c ****   *                @arg SYSCFG_DELAY_FEEDBACK_HALF_CYCLE       Half a cycle delay
2037:../../Drivers/STM32N6xx_HAL_Driver/Src/stm32n6xx_hal.c ****   */
2038:../../Drivers/STM32N6xx_HAL_Driver/Src/stm32n6xx_hal.c **** uint32_t HAL_SYSCFG_GetDelayOnFeedbackClock(void)
2039:../../Drivers/STM32N6xx_HAL_Driver/Src/stm32n6xx_hal.c **** {
 4240              		.loc 1 2039 1 is_stmt 1 view -0
 4241              		.cfi_startproc
 4242              		@ args = 0, pretend = 0, frame = 0
 4243              		@ frame_needed = 0, uses_anonymous_args = 0
 4244              		@ link register save eliminated.
2040:../../Drivers/STM32N6xx_HAL_Driver/Src/stm32n6xx_hal.c ****   return (SYSCFG->FMC_RETIMECR & SYSCFG_FMC_RETIMECR_SDFBCLK_180);
 4245              		.loc 1 2040 3 view .LVU794
 4246              		.loc 1 2040 17 is_stmt 0 view .LVU795
 4247 0000 024B     		ldr	r3, .L428
 4248 0002 586F     		ldr	r0, [r3, #116]
2041:../../Drivers/STM32N6xx_HAL_Driver/Src/stm32n6xx_hal.c **** }
ARM GAS  C:\Users\SMART\AppData\Local\Temp\ccwDMaLv.s 			page 111


 4249              		.loc 1 2041 1 view .LVU796
 4250 0004 00F00400 		and	r0, r0, #4
 4251 0008 7047     		bx	lr
 4252              	.L429:
 4253 000a 00BF     		.align	2
 4254              	.L428:
 4255 000c 00800056 		.word	1442873344
 4256              		.cfi_endproc
 4257              	.LFE974:
 4259              		.section	.text.HAL_SYSCFG_EnableInterleavingCpuRam,"ax",%progbits
 4260              		.align	1
 4261              		.global	HAL_SYSCFG_EnableInterleavingCpuRam
 4262              		.syntax unified
 4263              		.thumb
 4264              		.thumb_func
 4266              	HAL_SYSCFG_EnableInterleavingCpuRam:
 4267              	.LFB975:
2042:../../Drivers/STM32N6xx_HAL_Driver/Src/stm32n6xx_hal.c **** 
2043:../../Drivers/STM32N6xx_HAL_Driver/Src/stm32n6xx_hal.c **** #if defined(SYSCFG_NPUNICQOSCR_NPU1_ARQOSR)
2044:../../Drivers/STM32N6xx_HAL_Driver/Src/stm32n6xx_hal.c **** /**
2045:../../Drivers/STM32N6xx_HAL_Driver/Src/stm32n6xx_hal.c ****   * @brief  Enable the interleaving on NPU RAM.
2046:../../Drivers/STM32N6xx_HAL_Driver/Src/stm32n6xx_hal.c ****   * @retval None
2047:../../Drivers/STM32N6xx_HAL_Driver/Src/stm32n6xx_hal.c ****   */
2048:../../Drivers/STM32N6xx_HAL_Driver/Src/stm32n6xx_hal.c **** void HAL_SYSCFG_EnableInterleavingCpuRam(void)
2049:../../Drivers/STM32N6xx_HAL_Driver/Src/stm32n6xx_hal.c **** {
 4268              		.loc 1 2049 1 is_stmt 1 view -0
 4269              		.cfi_startproc
 4270              		@ args = 0, pretend = 0, frame = 0
 4271              		@ frame_needed = 0, uses_anonymous_args = 0
 4272              		@ link register save eliminated.
2050:../../Drivers/STM32N6xx_HAL_Driver/Src/stm32n6xx_hal.c ****   SET_BIT(SYSCFG->NPU_ICNCR, SYSCFG_NPU_ICNCR_INTERLEAVING_ACTIVE);
 4273              		.loc 1 2050 3 view .LVU798
 4274 0000 024A     		ldr	r2, .L431
 4275 0002 936F     		ldr	r3, [r2, #120]
 4276 0004 43F00103 		orr	r3, r3, #1
 4277 0008 9367     		str	r3, [r2, #120]
2051:../../Drivers/STM32N6xx_HAL_Driver/Src/stm32n6xx_hal.c **** }
 4278              		.loc 1 2051 1 is_stmt 0 view .LVU799
 4279 000a 7047     		bx	lr
 4280              	.L432:
 4281              		.align	2
 4282              	.L431:
 4283 000c 00800056 		.word	1442873344
 4284              		.cfi_endproc
 4285              	.LFE975:
 4287              		.section	.text.HAL_SYSCFG_DisableInterleavingCpuRam,"ax",%progbits
 4288              		.align	1
 4289              		.global	HAL_SYSCFG_DisableInterleavingCpuRam
 4290              		.syntax unified
 4291              		.thumb
 4292              		.thumb_func
 4294              	HAL_SYSCFG_DisableInterleavingCpuRam:
 4295              	.LFB976:
2052:../../Drivers/STM32N6xx_HAL_Driver/Src/stm32n6xx_hal.c **** 
2053:../../Drivers/STM32N6xx_HAL_Driver/Src/stm32n6xx_hal.c **** /**
2054:../../Drivers/STM32N6xx_HAL_Driver/Src/stm32n6xx_hal.c ****   * @brief  Disable the interleaving on NPU RAM.
2055:../../Drivers/STM32N6xx_HAL_Driver/Src/stm32n6xx_hal.c ****   * @retval None
ARM GAS  C:\Users\SMART\AppData\Local\Temp\ccwDMaLv.s 			page 112


2056:../../Drivers/STM32N6xx_HAL_Driver/Src/stm32n6xx_hal.c ****   */
2057:../../Drivers/STM32N6xx_HAL_Driver/Src/stm32n6xx_hal.c **** void HAL_SYSCFG_DisableInterleavingCpuRam(void)
2058:../../Drivers/STM32N6xx_HAL_Driver/Src/stm32n6xx_hal.c **** {
 4296              		.loc 1 2058 1 is_stmt 1 view -0
 4297              		.cfi_startproc
 4298              		@ args = 0, pretend = 0, frame = 0
 4299              		@ frame_needed = 0, uses_anonymous_args = 0
 4300              		@ link register save eliminated.
2059:../../Drivers/STM32N6xx_HAL_Driver/Src/stm32n6xx_hal.c ****   CLEAR_BIT(SYSCFG->NPU_ICNCR, SYSCFG_NPU_ICNCR_INTERLEAVING_ACTIVE);
 4301              		.loc 1 2059 3 view .LVU801
 4302 0000 024A     		ldr	r2, .L434
 4303 0002 936F     		ldr	r3, [r2, #120]
 4304 0004 23F00103 		bic	r3, r3, #1
 4305 0008 9367     		str	r3, [r2, #120]
2060:../../Drivers/STM32N6xx_HAL_Driver/Src/stm32n6xx_hal.c **** }
 4306              		.loc 1 2060 1 is_stmt 0 view .LVU802
 4307 000a 7047     		bx	lr
 4308              	.L435:
 4309              		.align	2
 4310              	.L434:
 4311 000c 00800056 		.word	1442873344
 4312              		.cfi_endproc
 4313              	.LFE976:
 4315              		.section	.text.HAL_SYSCFG_GetBootPinConnection,"ax",%progbits
 4316              		.align	1
 4317              		.global	HAL_SYSCFG_GetBootPinConnection
 4318              		.syntax unified
 4319              		.thumb
 4320              		.thumb_func
 4322              	HAL_SYSCFG_GetBootPinConnection:
 4323              	.LVL206:
 4324              	.LFB977:
2061:../../Drivers/STM32N6xx_HAL_Driver/Src/stm32n6xx_hal.c **** #endif /* SYSCFG_NPUNICQOSCR_NPU1_ARQOSR */
2062:../../Drivers/STM32N6xx_HAL_Driver/Src/stm32n6xx_hal.c **** 
2063:../../Drivers/STM32N6xx_HAL_Driver/Src/stm32n6xx_hal.c **** /**
2064:../../Drivers/STM32N6xx_HAL_Driver/Src/stm32n6xx_hal.c ****   * @brief  Get BOOT pin connection status
2065:../../Drivers/STM32N6xx_HAL_Driver/Src/stm32n6xx_hal.c ****   * @param  BootId specifies the boot pins.
2066:../../Drivers/STM32N6xx_HAL_Driver/Src/stm32n6xx_hal.c ****   * @retval BOOT pin connection configuration
2067:../../Drivers/STM32N6xx_HAL_Driver/Src/stm32n6xx_hal.c ****   *              This return value can be one of the following values:
2068:../../Drivers/STM32N6xx_HAL_Driver/Src/stm32n6xx_hal.c ****   *                @arg SYSCFG_BOOT_CONNECTION_VSS       pin connected to VSS
2069:../../Drivers/STM32N6xx_HAL_Driver/Src/stm32n6xx_hal.c ****   *                @arg SYSCFG_BOOT_CONNECTION_VDD       pin connected to VDD
2070:../../Drivers/STM32N6xx_HAL_Driver/Src/stm32n6xx_hal.c ****   */
2071:../../Drivers/STM32N6xx_HAL_Driver/Src/stm32n6xx_hal.c **** uint32_t HAL_SYSCFG_GetBootPinConnection(uint32_t BootId)
2072:../../Drivers/STM32N6xx_HAL_Driver/Src/stm32n6xx_hal.c **** {
 4325              		.loc 1 2072 1 is_stmt 1 view -0
 4326              		.cfi_startproc
 4327              		@ args = 0, pretend = 0, frame = 0
 4328              		@ frame_needed = 0, uses_anonymous_args = 0
 4329              		@ link register save eliminated.
 4330              		.loc 1 2072 1 is_stmt 0 view .LVU804
 4331 0000 0246     		mov	r2, r0
2073:../../Drivers/STM32N6xx_HAL_Driver/Src/stm32n6xx_hal.c ****   uint32_t Connection;
 4332              		.loc 1 2073 3 is_stmt 1 view .LVU805
2074:../../Drivers/STM32N6xx_HAL_Driver/Src/stm32n6xx_hal.c **** 
2075:../../Drivers/STM32N6xx_HAL_Driver/Src/stm32n6xx_hal.c ****   /* Check the parameters */
2076:../../Drivers/STM32N6xx_HAL_Driver/Src/stm32n6xx_hal.c ****   assert_param(IS_SYSCFG_BOOT_ID(BootId));
 4333              		.loc 1 2076 3 view .LVU806
ARM GAS  C:\Users\SMART\AppData\Local\Temp\ccwDMaLv.s 			page 113


2077:../../Drivers/STM32N6xx_HAL_Driver/Src/stm32n6xx_hal.c **** 
2078:../../Drivers/STM32N6xx_HAL_Driver/Src/stm32n6xx_hal.c ****   Connection = READ_BIT(SYSCFG->BOOTSR, BootId);
 4334              		.loc 1 2078 3 view .LVU807
 4335              		.loc 1 2078 16 is_stmt 0 view .LVU808
 4336 0002 044B     		ldr	r3, .L438
 4337 0004 D3F80001 		ldr	r0, [r3, #256]
 4338              	.LVL207:
 4339              		.loc 1 2078 14 view .LVU809
 4340 0008 1040     		ands	r0, r0, r2
 4341              	.LVL208:
2079:../../Drivers/STM32N6xx_HAL_Driver/Src/stm32n6xx_hal.c **** 
2080:../../Drivers/STM32N6xx_HAL_Driver/Src/stm32n6xx_hal.c ****   if (BootId == SYSCFG_BOOTCR_BOOT0_PD)
 4342              		.loc 1 2080 3 is_stmt 1 view .LVU810
 4343              		.loc 1 2080 6 is_stmt 0 view .LVU811
 4344 000a 012A     		cmp	r2, #1
 4345 000c 00D0     		beq	.L436
2081:../../Drivers/STM32N6xx_HAL_Driver/Src/stm32n6xx_hal.c ****   {
2082:../../Drivers/STM32N6xx_HAL_Driver/Src/stm32n6xx_hal.c ****     return Connection;
2083:../../Drivers/STM32N6xx_HAL_Driver/Src/stm32n6xx_hal.c ****   }
2084:../../Drivers/STM32N6xx_HAL_Driver/Src/stm32n6xx_hal.c ****   else
2085:../../Drivers/STM32N6xx_HAL_Driver/Src/stm32n6xx_hal.c ****   {
2086:../../Drivers/STM32N6xx_HAL_Driver/Src/stm32n6xx_hal.c ****     return (Connection >> 1U);
 4346              		.loc 1 2086 5 is_stmt 1 view .LVU812
 4347              		.loc 1 2086 24 is_stmt 0 view .LVU813
 4348 000e 4008     		lsrs	r0, r0, #1
 4349              	.LVL209:
 4350              	.L436:
2087:../../Drivers/STM32N6xx_HAL_Driver/Src/stm32n6xx_hal.c ****   }
2088:../../Drivers/STM32N6xx_HAL_Driver/Src/stm32n6xx_hal.c **** }
 4351              		.loc 1 2088 1 view .LVU814
 4352 0010 7047     		bx	lr
 4353              	.L439:
 4354 0012 00BF     		.align	2
 4355              	.L438:
 4356 0014 00800056 		.word	1442873344
 4357              		.cfi_endproc
 4358              	.LFE977:
 4360              		.section	.text.HAL_SYSCFG_GetAddressWritePostingBuffer,"ax",%progbits
 4361              		.align	1
 4362              		.global	HAL_SYSCFG_GetAddressWritePostingBuffer
 4363              		.syntax unified
 4364              		.thumb
 4365              		.thumb_func
 4367              	HAL_SYSCFG_GetAddressWritePostingBuffer:
 4368              	.LFB978:
2089:../../Drivers/STM32N6xx_HAL_Driver/Src/stm32n6xx_hal.c **** 
2090:../../Drivers/STM32N6xx_HAL_Driver/Src/stm32n6xx_hal.c **** /**
2091:../../Drivers/STM32N6xx_HAL_Driver/Src/stm32n6xx_hal.c ****   * @brief  Get address of first error in P-AHB write-posting buffer
2092:../../Drivers/STM32N6xx_HAL_Driver/Src/stm32n6xx_hal.c ****   * @retval Address of the first error in P-AHB write-posting buffer
2093:../../Drivers/STM32N6xx_HAL_Driver/Src/stm32n6xx_hal.c ****   */
2094:../../Drivers/STM32N6xx_HAL_Driver/Src/stm32n6xx_hal.c **** uint32_t HAL_SYSCFG_GetAddressWritePostingBuffer(void)
2095:../../Drivers/STM32N6xx_HAL_Driver/Src/stm32n6xx_hal.c **** {
 4369              		.loc 1 2095 1 is_stmt 1 view -0
 4370              		.cfi_startproc
 4371              		@ args = 0, pretend = 0, frame = 0
 4372              		@ frame_needed = 0, uses_anonymous_args = 0
 4373              		@ link register save eliminated.
ARM GAS  C:\Users\SMART\AppData\Local\Temp\ccwDMaLv.s 			page 114


2096:../../Drivers/STM32N6xx_HAL_Driver/Src/stm32n6xx_hal.c ****   return READ_BIT(SYSCFG->AHBWP_ERROR_SR, SYSCFG_AHBWP_ERROR_SR_PAHB_ERROR_ADDR);
 4374              		.loc 1 2096 3 view .LVU816
 4375              		.loc 1 2096 10 is_stmt 0 view .LVU817
 4376 0000 014B     		ldr	r3, .L441
 4377 0002 D3F80401 		ldr	r0, [r3, #260]
2097:../../Drivers/STM32N6xx_HAL_Driver/Src/stm32n6xx_hal.c **** }
 4378              		.loc 1 2097 1 view .LVU818
 4379 0006 7047     		bx	lr
 4380              	.L442:
 4381              		.align	2
 4382              	.L441:
 4383 0008 00800056 		.word	1442873344
 4384              		.cfi_endproc
 4385              	.LFE978:
 4387              		.section	.text.HAL_FMC_SetBankSwapConfig,"ax",%progbits
 4388              		.align	1
 4389              		.global	HAL_FMC_SetBankSwapConfig
 4390              		.syntax unified
 4391              		.thumb
 4392              		.thumb_func
 4394              	HAL_FMC_SetBankSwapConfig:
 4395              	.LVL210:
 4396              	.LFB979:
2098:../../Drivers/STM32N6xx_HAL_Driver/Src/stm32n6xx_hal.c **** 
2099:../../Drivers/STM32N6xx_HAL_Driver/Src/stm32n6xx_hal.c **** /**
2100:../../Drivers/STM32N6xx_HAL_Driver/Src/stm32n6xx_hal.c ****   * @}
2101:../../Drivers/STM32N6xx_HAL_Driver/Src/stm32n6xx_hal.c ****   */
2102:../../Drivers/STM32N6xx_HAL_Driver/Src/stm32n6xx_hal.c **** 
2103:../../Drivers/STM32N6xx_HAL_Driver/Src/stm32n6xx_hal.c **** /** @defgroup HAL_Exported_Functions_Group5 HAL FMC configuration functions
2104:../../Drivers/STM32N6xx_HAL_Driver/Src/stm32n6xx_hal.c ****   *  @brief    HAL FMC configuration functions
2105:../../Drivers/STM32N6xx_HAL_Driver/Src/stm32n6xx_hal.c ****   *
2106:../../Drivers/STM32N6xx_HAL_Driver/Src/stm32n6xx_hal.c **** @verbatim
2107:../../Drivers/STM32N6xx_HAL_Driver/Src/stm32n6xx_hal.c ****  ===============================================================================
2108:../../Drivers/STM32N6xx_HAL_Driver/Src/stm32n6xx_hal.c ****                       ##### HAL FMC configuration functions #####
2109:../../Drivers/STM32N6xx_HAL_Driver/Src/stm32n6xx_hal.c ****  ===============================================================================
2110:../../Drivers/STM32N6xx_HAL_Driver/Src/stm32n6xx_hal.c ****     [..]  This section provides functions allowing to:
2111:../../Drivers/STM32N6xx_HAL_Driver/Src/stm32n6xx_hal.c ****       (+) Configure the FMC Memory Bank Swapping mode
2112:../../Drivers/STM32N6xx_HAL_Driver/Src/stm32n6xx_hal.c ****       (+) Get current FMC Memory Bank Swapping Mode used
2113:../../Drivers/STM32N6xx_HAL_Driver/Src/stm32n6xx_hal.c **** @endverbatim
2114:../../Drivers/STM32N6xx_HAL_Driver/Src/stm32n6xx_hal.c ****   * @{
2115:../../Drivers/STM32N6xx_HAL_Driver/Src/stm32n6xx_hal.c ****   */
2116:../../Drivers/STM32N6xx_HAL_Driver/Src/stm32n6xx_hal.c **** 
2117:../../Drivers/STM32N6xx_HAL_Driver/Src/stm32n6xx_hal.c **** /**
2118:../../Drivers/STM32N6xx_HAL_Driver/Src/stm32n6xx_hal.c ****   * @brief  Set the FMC Memory Bank Swapping mode.
2119:../../Drivers/STM32N6xx_HAL_Driver/Src/stm32n6xx_hal.c ****   * @param  BankMapConfig  specifies the FMC Memory Bank Swapping mode to configure
2120:../../Drivers/STM32N6xx_HAL_Driver/Src/stm32n6xx_hal.c ****   *           This parameter can be one of the following values:
2121:../../Drivers/STM32N6xx_HAL_Driver/Src/stm32n6xx_hal.c ****   *             @arg FMC_SWAPBANK_MODE0 : FMC memory default mapping is used
2122:../../Drivers/STM32N6xx_HAL_Driver/Src/stm32n6xx_hal.c ****   *             @arg FMC_SWAPBANK_MODE1 : NOR/SRAM/PSRAM bank and SDRAM bank1 are swapped
2123:../../Drivers/STM32N6xx_HAL_Driver/Src/stm32n6xx_hal.c ****   * @note   FMC bank mapping options
2124:../../Drivers/STM32N6xx_HAL_Driver/Src/stm32n6xx_hal.c ****   * | Start-End address     | FMC_SWAPBANK_MODE0  | FMC_SWAPBANK_MODE1  |
2125:../../Drivers/STM32N6xx_HAL_Driver/Src/stm32n6xx_hal.c ****   * |-----------------------|---------------------|---------------------|
2126:../../Drivers/STM32N6xx_HAL_Driver/Src/stm32n6xx_hal.c ****   * | 0x60000000-0x6FFFFFFF | NOR/SRAM/PSRAM bank | SDRAM bank1         |
2127:../../Drivers/STM32N6xx_HAL_Driver/Src/stm32n6xx_hal.c ****   * | 0xC0000000-0xCFFFFFFF | SDRAM bank1         | NOR/SRAM/PSRAM bank |
2128:../../Drivers/STM32N6xx_HAL_Driver/Src/stm32n6xx_hal.c ****   * | 0xD0000000-0xDFFFFFFF | SDRAM bank2         | SDRAM bank2         |
2129:../../Drivers/STM32N6xx_HAL_Driver/Src/stm32n6xx_hal.c ****   * @retval None
2130:../../Drivers/STM32N6xx_HAL_Driver/Src/stm32n6xx_hal.c ****   */
2131:../../Drivers/STM32N6xx_HAL_Driver/Src/stm32n6xx_hal.c **** void HAL_FMC_SetBankSwapConfig(uint32_t BankMapConfig)
ARM GAS  C:\Users\SMART\AppData\Local\Temp\ccwDMaLv.s 			page 115


2132:../../Drivers/STM32N6xx_HAL_Driver/Src/stm32n6xx_hal.c **** {
 4397              		.loc 1 2132 1 is_stmt 1 view -0
 4398              		.cfi_startproc
 4399              		@ args = 0, pretend = 0, frame = 0
 4400              		@ frame_needed = 0, uses_anonymous_args = 0
 4401              		@ link register save eliminated.
2133:../../Drivers/STM32N6xx_HAL_Driver/Src/stm32n6xx_hal.c ****   /* Check the parameter */
2134:../../Drivers/STM32N6xx_HAL_Driver/Src/stm32n6xx_hal.c ****   assert_param(IS_FMC_SWAPBANK_MODE(BankMapConfig));
 4402              		.loc 1 2134 3 view .LVU820
2135:../../Drivers/STM32N6xx_HAL_Driver/Src/stm32n6xx_hal.c **** 
2136:../../Drivers/STM32N6xx_HAL_Driver/Src/stm32n6xx_hal.c ****   /* Apply Memory Bank Swapping configuration */
2137:../../Drivers/STM32N6xx_HAL_Driver/Src/stm32n6xx_hal.c ****   MODIFY_REG(FMC_Common_R->CFGR, FMC_CFGR_BMAP, BankMapConfig);
 4403              		.loc 1 2137 3 view .LVU821
 4404 0000 034A     		ldr	r2, .L444
 4405 0002 136A     		ldr	r3, [r2, #32]
 4406 0004 23F04073 		bic	r3, r3, #50331648
 4407 0008 0343     		orrs	r3, r3, r0
 4408 000a 1362     		str	r3, [r2, #32]
2138:../../Drivers/STM32N6xx_HAL_Driver/Src/stm32n6xx_hal.c **** }
 4409              		.loc 1 2138 1 is_stmt 0 view .LVU822
 4410 000c 7047     		bx	lr
 4411              	.L445:
 4412 000e 00BF     		.align	2
 4413              	.L444:
 4414 0010 00400258 		.word	1476542464
 4415              		.cfi_endproc
 4416              	.LFE979:
 4418              		.section	.text.HAL_FMC_GetBankSwapConfig,"ax",%progbits
 4419              		.align	1
 4420              		.global	HAL_FMC_GetBankSwapConfig
 4421              		.syntax unified
 4422              		.thumb
 4423              		.thumb_func
 4425              	HAL_FMC_GetBankSwapConfig:
 4426              	.LFB980:
2139:../../Drivers/STM32N6xx_HAL_Driver/Src/stm32n6xx_hal.c **** 
2140:../../Drivers/STM32N6xx_HAL_Driver/Src/stm32n6xx_hal.c **** /**
2141:../../Drivers/STM32N6xx_HAL_Driver/Src/stm32n6xx_hal.c ****   * @brief  Get the FMC Memory Bank Swapping mode.
2142:../../Drivers/STM32N6xx_HAL_Driver/Src/stm32n6xx_hal.c ****   * @retval Return value is FMC Memory Bank Swapping mode
2143:../../Drivers/STM32N6xx_HAL_Driver/Src/stm32n6xx_hal.c ****   *           This return value can be one of the following values:
2144:../../Drivers/STM32N6xx_HAL_Driver/Src/stm32n6xx_hal.c ****   *             @arg FMC_SWAPBANK_MODE0 : FMC memory default mapping is used
2145:../../Drivers/STM32N6xx_HAL_Driver/Src/stm32n6xx_hal.c ****   *             @arg FMC_SWAPBANK_MODE1 : NOR/SRAM/PSRAM bank and SDRAM bank1 are swapped
2146:../../Drivers/STM32N6xx_HAL_Driver/Src/stm32n6xx_hal.c ****   */
2147:../../Drivers/STM32N6xx_HAL_Driver/Src/stm32n6xx_hal.c **** uint32_t HAL_FMC_GetBankSwapConfig(void)
2148:../../Drivers/STM32N6xx_HAL_Driver/Src/stm32n6xx_hal.c **** {
 4427              		.loc 1 2148 1 is_stmt 1 view -0
 4428              		.cfi_startproc
 4429              		@ args = 0, pretend = 0, frame = 0
 4430              		@ frame_needed = 0, uses_anonymous_args = 0
 4431              		@ link register save eliminated.
2149:../../Drivers/STM32N6xx_HAL_Driver/Src/stm32n6xx_hal.c ****   return READ_BIT(FMC_Common_R->CFGR, FMC_CFGR_BMAP);
 4432              		.loc 1 2149 3 view .LVU824
 4433              		.loc 1 2149 10 is_stmt 0 view .LVU825
 4434 0000 024B     		ldr	r3, .L447
 4435 0002 186A     		ldr	r0, [r3, #32]
2150:../../Drivers/STM32N6xx_HAL_Driver/Src/stm32n6xx_hal.c **** }
 4436              		.loc 1 2150 1 view .LVU826
ARM GAS  C:\Users\SMART\AppData\Local\Temp\ccwDMaLv.s 			page 116


 4437 0004 00F04070 		and	r0, r0, #50331648
 4438 0008 7047     		bx	lr
 4439              	.L448:
 4440 000a 00BF     		.align	2
 4441              	.L447:
 4442 000c 00400258 		.word	1476542464
 4443              		.cfi_endproc
 4444              	.LFE980:
 4446              		.global	uwTickFreq
 4447              		.section	.data.uwTickFreq,"aw"
 4450              	uwTickFreq:
 4451 0000 01       		.byte	1
 4452              		.global	uwTickPrio
 4453              		.section	.data.uwTickPrio,"aw"
 4454              		.align	2
 4457              	uwTickPrio:
 4458 0000 10000000 		.word	16
 4459              		.global	uwTick
 4460              		.section	.bss.uwTick,"aw",%nobits
 4461              		.align	2
 4464              	uwTick:
 4465 0000 00000000 		.space	4
 4466              		.text
 4467              	.Letext0:
 4468              		.file 2 "../../Drivers/CMSIS/Device/ST/STM32N6xx/Include/stm32n657xx.h"
 4469              		.file 3 "C:\\ST\\STM32CubeIDE_2.0.0\\STM32CubeIDE\\plugins\\com.st.stm32cube.ide.mcu.externaltools
 4470              		.file 4 "C:\\ST\\STM32CubeIDE_2.0.0\\STM32CubeIDE\\plugins\\com.st.stm32cube.ide.mcu.externaltools
 4471              		.file 5 "../../Drivers/CMSIS/Include/core_cm55.h"
 4472              		.file 6 "../../Drivers/STM32N6xx_HAL_Driver/Inc/stm32n6xx_hal_def.h"
 4473              		.file 7 "../../Drivers/STM32N6xx_HAL_Driver/Inc/stm32n6xx_hal.h"
 4474              		.file 8 "../../Drivers/CMSIS/Device/ST/STM32N6xx/Include/system_stm32n6xx.h"
 4475              		.file 9 "../../Drivers/STM32N6xx_HAL_Driver/Inc/stm32n6xx_hal_cortex.h"
ARM GAS  C:\Users\SMART\AppData\Local\Temp\ccwDMaLv.s 			page 117


DEFINED SYMBOLS
                            *ABS*:00000000 stm32n6xx_hal.c
C:\Users\SMART\AppData\Local\Temp\ccwDMaLv.s:26     .text.HAL_MspInit:00000000 $t
C:\Users\SMART\AppData\Local\Temp\ccwDMaLv.s:32     .text.HAL_MspInit:00000000 HAL_MspInit
C:\Users\SMART\AppData\Local\Temp\ccwDMaLv.s:45     .text.HAL_MspDeInit:00000000 $t
C:\Users\SMART\AppData\Local\Temp\ccwDMaLv.s:51     .text.HAL_MspDeInit:00000000 HAL_MspDeInit
C:\Users\SMART\AppData\Local\Temp\ccwDMaLv.s:64     .text.HAL_DeInit:00000000 $t
C:\Users\SMART\AppData\Local\Temp\ccwDMaLv.s:70     .text.HAL_DeInit:00000000 HAL_DeInit
C:\Users\SMART\AppData\Local\Temp\ccwDMaLv.s:160    .text.HAL_DeInit:00000080 $d
C:\Users\SMART\AppData\Local\Temp\ccwDMaLv.s:171    .text.HAL_InitTick:00000000 $t
C:\Users\SMART\AppData\Local\Temp\ccwDMaLv.s:177    .text.HAL_InitTick:00000000 HAL_InitTick
C:\Users\SMART\AppData\Local\Temp\ccwDMaLv.s:251    .text.HAL_InitTick:00000044 $d
C:\Users\SMART\AppData\Local\Temp\ccwDMaLv.s:4450   .data.uwTickFreq:00000000 uwTickFreq
C:\Users\SMART\AppData\Local\Temp\ccwDMaLv.s:4457   .data.uwTickPrio:00000000 uwTickPrio
C:\Users\SMART\AppData\Local\Temp\ccwDMaLv.s:258    .text.HAL_Init:00000000 $t
C:\Users\SMART\AppData\Local\Temp\ccwDMaLv.s:264    .text.HAL_Init:00000000 HAL_Init
C:\Users\SMART\AppData\Local\Temp\ccwDMaLv.s:307    .text.HAL_IncTick:00000000 $t
C:\Users\SMART\AppData\Local\Temp\ccwDMaLv.s:313    .text.HAL_IncTick:00000000 HAL_IncTick
C:\Users\SMART\AppData\Local\Temp\ccwDMaLv.s:334    .text.HAL_IncTick:00000010 $d
C:\Users\SMART\AppData\Local\Temp\ccwDMaLv.s:4464   .bss.uwTick:00000000 uwTick
C:\Users\SMART\AppData\Local\Temp\ccwDMaLv.s:340    .text.HAL_GetTick:00000000 $t
C:\Users\SMART\AppData\Local\Temp\ccwDMaLv.s:346    .text.HAL_GetTick:00000000 HAL_GetTick
C:\Users\SMART\AppData\Local\Temp\ccwDMaLv.s:362    .text.HAL_GetTick:00000008 $d
C:\Users\SMART\AppData\Local\Temp\ccwDMaLv.s:367    .text.HAL_GetTickPrio:00000000 $t
C:\Users\SMART\AppData\Local\Temp\ccwDMaLv.s:373    .text.HAL_GetTickPrio:00000000 HAL_GetTickPrio
C:\Users\SMART\AppData\Local\Temp\ccwDMaLv.s:388    .text.HAL_GetTickPrio:00000008 $d
C:\Users\SMART\AppData\Local\Temp\ccwDMaLv.s:393    .text.HAL_SetTickFreq:00000000 $t
C:\Users\SMART\AppData\Local\Temp\ccwDMaLv.s:399    .text.HAL_SetTickFreq:00000000 HAL_SetTickFreq
C:\Users\SMART\AppData\Local\Temp\ccwDMaLv.s:456    .text.HAL_SetTickFreq:00000024 $d
C:\Users\SMART\AppData\Local\Temp\ccwDMaLv.s:462    .text.HAL_GetTickFreq:00000000 $t
C:\Users\SMART\AppData\Local\Temp\ccwDMaLv.s:468    .text.HAL_GetTickFreq:00000000 HAL_GetTickFreq
C:\Users\SMART\AppData\Local\Temp\ccwDMaLv.s:483    .text.HAL_GetTickFreq:00000008 $d
C:\Users\SMART\AppData\Local\Temp\ccwDMaLv.s:488    .text.HAL_Delay:00000000 $t
C:\Users\SMART\AppData\Local\Temp\ccwDMaLv.s:494    .text.HAL_Delay:00000000 HAL_Delay
C:\Users\SMART\AppData\Local\Temp\ccwDMaLv.s:547    .text.HAL_Delay:00000024 $d
C:\Users\SMART\AppData\Local\Temp\ccwDMaLv.s:552    .text.HAL_SuspendTick:00000000 $t
C:\Users\SMART\AppData\Local\Temp\ccwDMaLv.s:558    .text.HAL_SuspendTick:00000000 HAL_SuspendTick
C:\Users\SMART\AppData\Local\Temp\ccwDMaLv.s:578    .text.HAL_ResumeTick:00000000 $t
C:\Users\SMART\AppData\Local\Temp\ccwDMaLv.s:584    .text.HAL_ResumeTick:00000000 HAL_ResumeTick
C:\Users\SMART\AppData\Local\Temp\ccwDMaLv.s:604    .text.HAL_GetHalVersion:00000000 $t
C:\Users\SMART\AppData\Local\Temp\ccwDMaLv.s:610    .text.HAL_GetHalVersion:00000000 HAL_GetHalVersion
C:\Users\SMART\AppData\Local\Temp\ccwDMaLv.s:624    .text.HAL_GetHalVersion:00000004 $d
C:\Users\SMART\AppData\Local\Temp\ccwDMaLv.s:629    .text.HAL_GetREVID:00000000 $t
C:\Users\SMART\AppData\Local\Temp\ccwDMaLv.s:635    .text.HAL_GetREVID:00000000 HAL_GetREVID
C:\Users\SMART\AppData\Local\Temp\ccwDMaLv.s:650    .text.HAL_GetREVID:00000008 $d
C:\Users\SMART\AppData\Local\Temp\ccwDMaLv.s:655    .text.HAL_GetDEVID:00000000 $t
C:\Users\SMART\AppData\Local\Temp\ccwDMaLv.s:661    .text.HAL_GetDEVID:00000000 HAL_GetDEVID
C:\Users\SMART\AppData\Local\Temp\ccwDMaLv.s:676    .text.HAL_GetUIDw0:00000000 $t
C:\Users\SMART\AppData\Local\Temp\ccwDMaLv.s:682    .text.HAL_GetUIDw0:00000000 HAL_GetUIDw0
C:\Users\SMART\AppData\Local\Temp\ccwDMaLv.s:697    .text.HAL_GetUIDw0:00000008 $d
C:\Users\SMART\AppData\Local\Temp\ccwDMaLv.s:702    .text.HAL_GetUIDw1:00000000 $t
C:\Users\SMART\AppData\Local\Temp\ccwDMaLv.s:708    .text.HAL_GetUIDw1:00000000 HAL_GetUIDw1
C:\Users\SMART\AppData\Local\Temp\ccwDMaLv.s:723    .text.HAL_GetUIDw1:00000008 $d
C:\Users\SMART\AppData\Local\Temp\ccwDMaLv.s:728    .text.HAL_GetUIDw2:00000000 $t
C:\Users\SMART\AppData\Local\Temp\ccwDMaLv.s:734    .text.HAL_GetUIDw2:00000000 HAL_GetUIDw2
C:\Users\SMART\AppData\Local\Temp\ccwDMaLv.s:749    .text.HAL_GetUIDw2:00000008 $d
C:\Users\SMART\AppData\Local\Temp\ccwDMaLv.s:754    .text.HAL_DBGMCU_EnableDBGSleepMode:00000000 $t
ARM GAS  C:\Users\SMART\AppData\Local\Temp\ccwDMaLv.s 			page 118


C:\Users\SMART\AppData\Local\Temp\ccwDMaLv.s:760    .text.HAL_DBGMCU_EnableDBGSleepMode:00000000 HAL_DBGMCU_EnableDBGSleepMode
C:\Users\SMART\AppData\Local\Temp\ccwDMaLv.s:777    .text.HAL_DBGMCU_EnableDBGSleepMode:0000000c $d
C:\Users\SMART\AppData\Local\Temp\ccwDMaLv.s:782    .text.HAL_DBGMCU_DisableDBGSleepMode:00000000 $t
C:\Users\SMART\AppData\Local\Temp\ccwDMaLv.s:788    .text.HAL_DBGMCU_DisableDBGSleepMode:00000000 HAL_DBGMCU_DisableDBGSleepMode
C:\Users\SMART\AppData\Local\Temp\ccwDMaLv.s:805    .text.HAL_DBGMCU_DisableDBGSleepMode:0000000c $d
C:\Users\SMART\AppData\Local\Temp\ccwDMaLv.s:810    .text.HAL_DBGMCU_EnableDBGStopMode:00000000 $t
C:\Users\SMART\AppData\Local\Temp\ccwDMaLv.s:816    .text.HAL_DBGMCU_EnableDBGStopMode:00000000 HAL_DBGMCU_EnableDBGStopMode
C:\Users\SMART\AppData\Local\Temp\ccwDMaLv.s:833    .text.HAL_DBGMCU_EnableDBGStopMode:0000000c $d
C:\Users\SMART\AppData\Local\Temp\ccwDMaLv.s:838    .text.HAL_DBGMCU_DisableDBGStopMode:00000000 $t
C:\Users\SMART\AppData\Local\Temp\ccwDMaLv.s:844    .text.HAL_DBGMCU_DisableDBGStopMode:00000000 HAL_DBGMCU_DisableDBGStopMode
C:\Users\SMART\AppData\Local\Temp\ccwDMaLv.s:861    .text.HAL_DBGMCU_DisableDBGStopMode:0000000c $d
C:\Users\SMART\AppData\Local\Temp\ccwDMaLv.s:866    .text.HAL_DBGMCU_EnableDBGStandbyMode:00000000 $t
C:\Users\SMART\AppData\Local\Temp\ccwDMaLv.s:872    .text.HAL_DBGMCU_EnableDBGStandbyMode:00000000 HAL_DBGMCU_EnableDBGStandbyMode
C:\Users\SMART\AppData\Local\Temp\ccwDMaLv.s:889    .text.HAL_DBGMCU_EnableDBGStandbyMode:0000000c $d
C:\Users\SMART\AppData\Local\Temp\ccwDMaLv.s:894    .text.HAL_DBGMCU_DisableDBGStandbyMode:00000000 $t
C:\Users\SMART\AppData\Local\Temp\ccwDMaLv.s:900    .text.HAL_DBGMCU_DisableDBGStandbyMode:00000000 HAL_DBGMCU_DisableDBGStandbyMode
C:\Users\SMART\AppData\Local\Temp\ccwDMaLv.s:917    .text.HAL_DBGMCU_DisableDBGStandbyMode:0000000c $d
C:\Users\SMART\AppData\Local\Temp\ccwDMaLv.s:922    .text.HAL_SYSCFG_EnablePullDown:00000000 $t
C:\Users\SMART\AppData\Local\Temp\ccwDMaLv.s:928    .text.HAL_SYSCFG_EnablePullDown:00000000 HAL_SYSCFG_EnablePullDown
C:\Users\SMART\AppData\Local\Temp\ccwDMaLv.s:947    .text.HAL_SYSCFG_EnablePullDown:0000000c $d
C:\Users\SMART\AppData\Local\Temp\ccwDMaLv.s:952    .text.HAL_SYSCFG_DisablePullDown:00000000 $t
C:\Users\SMART\AppData\Local\Temp\ccwDMaLv.s:958    .text.HAL_SYSCFG_DisablePullDown:00000000 HAL_SYSCFG_DisablePullDown
C:\Users\SMART\AppData\Local\Temp\ccwDMaLv.s:977    .text.HAL_SYSCFG_DisablePullDown:0000000c $d
C:\Users\SMART\AppData\Local\Temp\ccwDMaLv.s:982    .text.HAL_SYSCFG_Lock:00000000 $t
C:\Users\SMART\AppData\Local\Temp\ccwDMaLv.s:988    .text.HAL_SYSCFG_Lock:00000000 HAL_SYSCFG_Lock
C:\Users\SMART\AppData\Local\Temp\ccwDMaLv.s:1008   .text.HAL_SYSCFG_Lock:00000010 $d
C:\Users\SMART\AppData\Local\Temp\ccwDMaLv.s:1013   .text.HAL_SYSCFG_GetLock:00000000 $t
C:\Users\SMART\AppData\Local\Temp\ccwDMaLv.s:1019   .text.HAL_SYSCFG_GetLock:00000000 HAL_SYSCFG_GetLock
C:\Users\SMART\AppData\Local\Temp\ccwDMaLv.s:1053   .text.HAL_SYSCFG_GetLock:00000014 $d
C:\Users\SMART\AppData\Local\Temp\ccwDMaLv.s:1058   .text.HAL_SYSCFG_SetTCMSize:00000000 $t
C:\Users\SMART\AppData\Local\Temp\ccwDMaLv.s:1064   .text.HAL_SYSCFG_SetTCMSize:00000000 HAL_SYSCFG_SetTCMSize
C:\Users\SMART\AppData\Local\Temp\ccwDMaLv.s:1088   .text.HAL_SYSCFG_SetTCMSize:00000010 $d
C:\Users\SMART\AppData\Local\Temp\ccwDMaLv.s:1093   .text.HAL_SYSCFG_GetTCMSize:00000000 $t
C:\Users\SMART\AppData\Local\Temp\ccwDMaLv.s:1099   .text.HAL_SYSCFG_GetTCMSize:00000000 HAL_SYSCFG_GetTCMSize
C:\Users\SMART\AppData\Local\Temp\ccwDMaLv.s:1152   .text.HAL_SYSCFG_GetTCMSize:00000024 $d
C:\Users\SMART\AppData\Local\Temp\ccwDMaLv.s:1157   .text.HAL_SYSCFG_LockWriteAccess:00000000 $t
C:\Users\SMART\AppData\Local\Temp\ccwDMaLv.s:1163   .text.HAL_SYSCFG_LockWriteAccess:00000000 HAL_SYSCFG_LockWriteAccess
C:\Users\SMART\AppData\Local\Temp\ccwDMaLv.s:1183   .text.HAL_SYSCFG_LockWriteAccess:00000010 $d
C:\Users\SMART\AppData\Local\Temp\ccwDMaLv.s:1188   .text.HAL_SYSCFG_GetLockWriteAccess:00000000 $t
C:\Users\SMART\AppData\Local\Temp\ccwDMaLv.s:1194   .text.HAL_SYSCFG_GetLockWriteAccess:00000000 HAL_SYSCFG_GetLockWriteAccess
C:\Users\SMART\AppData\Local\Temp\ccwDMaLv.s:1228   .text.HAL_SYSCFG_GetLockWriteAccess:00000014 $d
C:\Users\SMART\AppData\Local\Temp\ccwDMaLv.s:1233   .text.HAL_SYSCFG_EnableITCMWaiteState:00000000 $t
C:\Users\SMART\AppData\Local\Temp\ccwDMaLv.s:1239   .text.HAL_SYSCFG_EnableITCMWaiteState:00000000 HAL_SYSCFG_EnableITCMWaiteState
C:\Users\SMART\AppData\Local\Temp\ccwDMaLv.s:1256   .text.HAL_SYSCFG_EnableITCMWaiteState:0000000c $d
C:\Users\SMART\AppData\Local\Temp\ccwDMaLv.s:1261   .text.HAL_SYSCFG_DisableITCMWaiteState:00000000 $t
C:\Users\SMART\AppData\Local\Temp\ccwDMaLv.s:1267   .text.HAL_SYSCFG_DisableITCMWaiteState:00000000 HAL_SYSCFG_DisableITCMWaiteState
C:\Users\SMART\AppData\Local\Temp\ccwDMaLv.s:1284   .text.HAL_SYSCFG_DisableITCMWaiteState:0000000c $d
C:\Users\SMART\AppData\Local\Temp\ccwDMaLv.s:1289   .text.HAL_SYSCFG_EnableDTCMWaiteState:00000000 $t
C:\Users\SMART\AppData\Local\Temp\ccwDMaLv.s:1295   .text.HAL_SYSCFG_EnableDTCMWaiteState:00000000 HAL_SYSCFG_EnableDTCMWaiteState
C:\Users\SMART\AppData\Local\Temp\ccwDMaLv.s:1312   .text.HAL_SYSCFG_EnableDTCMWaiteState:0000000c $d
C:\Users\SMART\AppData\Local\Temp\ccwDMaLv.s:1317   .text.HAL_SYSCFG_DisableDTCMWaiteState:00000000 $t
C:\Users\SMART\AppData\Local\Temp\ccwDMaLv.s:1323   .text.HAL_SYSCFG_DisableDTCMWaiteState:00000000 HAL_SYSCFG_DisableDTCMWaiteState
C:\Users\SMART\AppData\Local\Temp\ccwDMaLv.s:1340   .text.HAL_SYSCFG_DisableDTCMWaiteState:0000000c $d
C:\Users\SMART\AppData\Local\Temp\ccwDMaLv.s:1345   .text.HAL_SYSCFG_EnableTCMExternalMargin:00000000 $t
C:\Users\SMART\AppData\Local\Temp\ccwDMaLv.s:1351   .text.HAL_SYSCFG_EnableTCMExternalMargin:00000000 HAL_SYSCFG_EnableTCMExternalMargin
C:\Users\SMART\AppData\Local\Temp\ccwDMaLv.s:1368   .text.HAL_SYSCFG_EnableTCMExternalMargin:0000000c $d
C:\Users\SMART\AppData\Local\Temp\ccwDMaLv.s:1373   .text.HAL_SYSCFG_DisableTCMExternalMargin:00000000 $t
ARM GAS  C:\Users\SMART\AppData\Local\Temp\ccwDMaLv.s 			page 119


C:\Users\SMART\AppData\Local\Temp\ccwDMaLv.s:1379   .text.HAL_SYSCFG_DisableTCMExternalMargin:00000000 HAL_SYSCFG_DisableTCMExternalMargin
C:\Users\SMART\AppData\Local\Temp\ccwDMaLv.s:1396   .text.HAL_SYSCFG_DisableTCMExternalMargin:0000000c $d
C:\Users\SMART\AppData\Local\Temp\ccwDMaLv.s:1401   .text.HAL_SYSCFG_SetTCMRWMarginInput:00000000 $t
C:\Users\SMART\AppData\Local\Temp\ccwDMaLv.s:1407   .text.HAL_SYSCFG_SetTCMRWMarginInput:00000000 HAL_SYSCFG_SetTCMRWMarginInput
C:\Users\SMART\AppData\Local\Temp\ccwDMaLv.s:1427   .text.HAL_SYSCFG_SetTCMRWMarginInput:00000010 $d
C:\Users\SMART\AppData\Local\Temp\ccwDMaLv.s:1432   .text.HAL_SYSCFG_GetTCMRWMarginInput:00000000 $t
C:\Users\SMART\AppData\Local\Temp\ccwDMaLv.s:1438   .text.HAL_SYSCFG_GetTCMRWMarginInput:00000000 HAL_SYSCFG_GetTCMRWMarginInput
C:\Users\SMART\AppData\Local\Temp\ccwDMaLv.s:1473   .text.HAL_SYSCFG_GetTCMRWMarginInput:00000014 $d
C:\Users\SMART\AppData\Local\Temp\ccwDMaLv.s:1478   .text.HAL_SYSCFG_SetTCMBiasingLevel:00000000 $t
C:\Users\SMART\AppData\Local\Temp\ccwDMaLv.s:1484   .text.HAL_SYSCFG_SetTCMBiasingLevel:00000000 HAL_SYSCFG_SetTCMBiasingLevel
C:\Users\SMART\AppData\Local\Temp\ccwDMaLv.s:1504   .text.HAL_SYSCFG_SetTCMBiasingLevel:00000010 $d
C:\Users\SMART\AppData\Local\Temp\ccwDMaLv.s:1509   .text.HAL_SYSCFG_GetTCMBiasingLevel:00000000 $t
C:\Users\SMART\AppData\Local\Temp\ccwDMaLv.s:1515   .text.HAL_SYSCFG_GetTCMBiasingLevel:00000000 HAL_SYSCFG_GetTCMBiasingLevel
C:\Users\SMART\AppData\Local\Temp\ccwDMaLv.s:1549   .text.HAL_SYSCFG_GetTCMBiasingLevel:00000014 $d
C:\Users\SMART\AppData\Local\Temp\ccwDMaLv.s:1554   .text.HAL_SYSCFG_EnableCacheExternalMargin:00000000 $t
C:\Users\SMART\AppData\Local\Temp\ccwDMaLv.s:1560   .text.HAL_SYSCFG_EnableCacheExternalMargin:00000000 HAL_SYSCFG_EnableCacheExternalMargin
C:\Users\SMART\AppData\Local\Temp\ccwDMaLv.s:1577   .text.HAL_SYSCFG_EnableCacheExternalMargin:0000000c $d
C:\Users\SMART\AppData\Local\Temp\ccwDMaLv.s:1582   .text.HAL_SYSCFG_DisableCacheExternalMargin:00000000 $t
C:\Users\SMART\AppData\Local\Temp\ccwDMaLv.s:1588   .text.HAL_SYSCFG_DisableCacheExternalMargin:00000000 HAL_SYSCFG_DisableCacheExternalMargin
C:\Users\SMART\AppData\Local\Temp\ccwDMaLv.s:1605   .text.HAL_SYSCFG_DisableCacheExternalMargin:0000000c $d
C:\Users\SMART\AppData\Local\Temp\ccwDMaLv.s:1610   .text.HAL_SYSCFG_SetCacheRWMarginInput:00000000 $t
C:\Users\SMART\AppData\Local\Temp\ccwDMaLv.s:1616   .text.HAL_SYSCFG_SetCacheRWMarginInput:00000000 HAL_SYSCFG_SetCacheRWMarginInput
C:\Users\SMART\AppData\Local\Temp\ccwDMaLv.s:1636   .text.HAL_SYSCFG_SetCacheRWMarginInput:00000010 $d
C:\Users\SMART\AppData\Local\Temp\ccwDMaLv.s:1641   .text.HAL_SYSCFG_GetCacheRWMarginInput:00000000 $t
C:\Users\SMART\AppData\Local\Temp\ccwDMaLv.s:1647   .text.HAL_SYSCFG_GetCacheRWMarginInput:00000000 HAL_SYSCFG_GetCacheRWMarginInput
C:\Users\SMART\AppData\Local\Temp\ccwDMaLv.s:1682   .text.HAL_SYSCFG_GetCacheRWMarginInput:00000014 $d
C:\Users\SMART\AppData\Local\Temp\ccwDMaLv.s:1687   .text.HAL_SYSCFG_SetCacheBiasingLevel:00000000 $t
C:\Users\SMART\AppData\Local\Temp\ccwDMaLv.s:1693   .text.HAL_SYSCFG_SetCacheBiasingLevel:00000000 HAL_SYSCFG_SetCacheBiasingLevel
C:\Users\SMART\AppData\Local\Temp\ccwDMaLv.s:1713   .text.HAL_SYSCFG_SetCacheBiasingLevel:00000010 $d
C:\Users\SMART\AppData\Local\Temp\ccwDMaLv.s:1718   .text.HAL_SYSCFG_GetCacheBiasingLevel:00000000 $t
C:\Users\SMART\AppData\Local\Temp\ccwDMaLv.s:1724   .text.HAL_SYSCFG_GetCacheBiasingLevel:00000000 HAL_SYSCFG_GetCacheBiasingLevel
C:\Users\SMART\AppData\Local\Temp\ccwDMaLv.s:1758   .text.HAL_SYSCFG_GetCacheBiasingLevel:00000014 $d
C:\Users\SMART\AppData\Local\Temp\ccwDMaLv.s:1763   .text.HAL_SYSCFG_SetSVTORAddress:00000000 $t
C:\Users\SMART\AppData\Local\Temp\ccwDMaLv.s:1769   .text.HAL_SYSCFG_SetSVTORAddress:00000000 HAL_SYSCFG_SetSVTORAddress
C:\Users\SMART\AppData\Local\Temp\ccwDMaLv.s:1786   .text.HAL_SYSCFG_SetSVTORAddress:00000008 $d
C:\Users\SMART\AppData\Local\Temp\ccwDMaLv.s:1791   .text.HAL_SYSCFG_GetSVTORAddress:00000000 $t
C:\Users\SMART\AppData\Local\Temp\ccwDMaLv.s:1797   .text.HAL_SYSCFG_GetSVTORAddress:00000000 HAL_SYSCFG_GetSVTORAddress
C:\Users\SMART\AppData\Local\Temp\ccwDMaLv.s:1830   .text.HAL_SYSCFG_GetSVTORAddress:00000010 $d
C:\Users\SMART\AppData\Local\Temp\ccwDMaLv.s:1835   .text.HAL_SYSCFG_SetNSVTORAddress:00000000 $t
C:\Users\SMART\AppData\Local\Temp\ccwDMaLv.s:1841   .text.HAL_SYSCFG_SetNSVTORAddress:00000000 HAL_SYSCFG_SetNSVTORAddress
C:\Users\SMART\AppData\Local\Temp\ccwDMaLv.s:1858   .text.HAL_SYSCFG_SetNSVTORAddress:00000008 $d
C:\Users\SMART\AppData\Local\Temp\ccwDMaLv.s:1863   .text.HAL_SYSCFG_GetNSVTORAddress:00000000 $t
C:\Users\SMART\AppData\Local\Temp\ccwDMaLv.s:1869   .text.HAL_SYSCFG_GetNSVTORAddress:00000000 HAL_SYSCFG_GetNSVTORAddress
C:\Users\SMART\AppData\Local\Temp\ccwDMaLv.s:1902   .text.HAL_SYSCFG_GetNSVTORAddress:00000010 $d
C:\Users\SMART\AppData\Local\Temp\ccwDMaLv.s:1907   .text.HAL_SYSCFG_EnablePowerOnReset:00000000 $t
C:\Users\SMART\AppData\Local\Temp\ccwDMaLv.s:1913   .text.HAL_SYSCFG_EnablePowerOnReset:00000000 HAL_SYSCFG_EnablePowerOnReset
C:\Users\SMART\AppData\Local\Temp\ccwDMaLv.s:1930   .text.HAL_SYSCFG_EnablePowerOnReset:0000000c $d
C:\Users\SMART\AppData\Local\Temp\ccwDMaLv.s:1935   .text.HAL_SYSCFG_DisablePowerOnReset:00000000 $t
C:\Users\SMART\AppData\Local\Temp\ccwDMaLv.s:1941   .text.HAL_SYSCFG_DisablePowerOnReset:00000000 HAL_SYSCFG_DisablePowerOnReset
C:\Users\SMART\AppData\Local\Temp\ccwDMaLv.s:1958   .text.HAL_SYSCFG_DisablePowerOnReset:0000000c $d
C:\Users\SMART\AppData\Local\Temp\ccwDMaLv.s:1963   .text.HAL_SYSCFG_EnableLockupWarmResetonRCC:00000000 $t
C:\Users\SMART\AppData\Local\Temp\ccwDMaLv.s:1969   .text.HAL_SYSCFG_EnableLockupWarmResetonRCC:00000000 HAL_SYSCFG_EnableLockupWarmResetonRCC
C:\Users\SMART\AppData\Local\Temp\ccwDMaLv.s:1986   .text.HAL_SYSCFG_EnableLockupWarmResetonRCC:0000000c $d
C:\Users\SMART\AppData\Local\Temp\ccwDMaLv.s:1991   .text.HAL_SYSCFG_DisableLockupWarmResetonRCC:00000000 $t
C:\Users\SMART\AppData\Local\Temp\ccwDMaLv.s:1997   .text.HAL_SYSCFG_DisableLockupWarmResetonRCC:00000000 HAL_SYSCFG_DisableLockupWarmResetonRCC
C:\Users\SMART\AppData\Local\Temp\ccwDMaLv.s:2014   .text.HAL_SYSCFG_DisableLockupWarmResetonRCC:0000000c $d
C:\Users\SMART\AppData\Local\Temp\ccwDMaLv.s:2019   .text.HAL_SYSCFG_EnableLockupGenerateNMI:00000000 $t
ARM GAS  C:\Users\SMART\AppData\Local\Temp\ccwDMaLv.s 			page 120


C:\Users\SMART\AppData\Local\Temp\ccwDMaLv.s:2025   .text.HAL_SYSCFG_EnableLockupGenerateNMI:00000000 HAL_SYSCFG_EnableLockupGenerateNMI
C:\Users\SMART\AppData\Local\Temp\ccwDMaLv.s:2042   .text.HAL_SYSCFG_EnableLockupGenerateNMI:0000000c $d
C:\Users\SMART\AppData\Local\Temp\ccwDMaLv.s:2047   .text.HAL_SYSCFG_DisableLockupGenerateNMI:00000000 $t
C:\Users\SMART\AppData\Local\Temp\ccwDMaLv.s:2053   .text.HAL_SYSCFG_DisableLockupGenerateNMI:00000000 HAL_SYSCFG_DisableLockupGenerateNMI
C:\Users\SMART\AppData\Local\Temp\ccwDMaLv.s:2070   .text.HAL_SYSCFG_DisableLockupGenerateNMI:0000000c $d
C:\Users\SMART\AppData\Local\Temp\ccwDMaLv.s:2075   .text.HAL_SYSCFG_ReEnableWritePostingErrorCapture:00000000 $t
C:\Users\SMART\AppData\Local\Temp\ccwDMaLv.s:2081   .text.HAL_SYSCFG_ReEnableWritePostingErrorCapture:00000000 HAL_SYSCFG_ReEnableWritePostingErrorCapture
C:\Users\SMART\AppData\Local\Temp\ccwDMaLv.s:2104   .text.HAL_SYSCFG_ReEnableWritePostingErrorCapture:00000018 $d
C:\Users\SMART\AppData\Local\Temp\ccwDMaLv.s:2109   .text.HAL_SYSCFG_EnableVENCRAMReserved:00000000 $t
C:\Users\SMART\AppData\Local\Temp\ccwDMaLv.s:2115   .text.HAL_SYSCFG_EnableVENCRAMReserved:00000000 HAL_SYSCFG_EnableVENCRAMReserved
C:\Users\SMART\AppData\Local\Temp\ccwDMaLv.s:2132   .text.HAL_SYSCFG_EnableVENCRAMReserved:0000000c $d
C:\Users\SMART\AppData\Local\Temp\ccwDMaLv.s:2137   .text.HAL_SYSCFG_DisableVENCRAMReserved:00000000 $t
C:\Users\SMART\AppData\Local\Temp\ccwDMaLv.s:2143   .text.HAL_SYSCFG_DisableVENCRAMReserved:00000000 HAL_SYSCFG_DisableVENCRAMReserved
C:\Users\SMART\AppData\Local\Temp\ccwDMaLv.s:2160   .text.HAL_SYSCFG_DisableVENCRAMReserved:0000000c $d
C:\Users\SMART\AppData\Local\Temp\ccwDMaLv.s:2165   .text.HAL_SYSCFG_EnableCRYPPotentialTamper:00000000 $t
C:\Users\SMART\AppData\Local\Temp\ccwDMaLv.s:2171   .text.HAL_SYSCFG_EnableCRYPPotentialTamper:00000000 HAL_SYSCFG_EnableCRYPPotentialTamper
C:\Users\SMART\AppData\Local\Temp\ccwDMaLv.s:2188   .text.HAL_SYSCFG_EnableCRYPPotentialTamper:0000000c $d
C:\Users\SMART\AppData\Local\Temp\ccwDMaLv.s:2193   .text.HAL_SYSCFG_DisableCRYPPotentialTamper:00000000 $t
C:\Users\SMART\AppData\Local\Temp\ccwDMaLv.s:2199   .text.HAL_SYSCFG_DisableCRYPPotentialTamper:00000000 HAL_SYSCFG_DisableCRYPPotentialTamper
C:\Users\SMART\AppData\Local\Temp\ccwDMaLv.s:2216   .text.HAL_SYSCFG_DisableCRYPPotentialTamper:0000000c $d
C:\Users\SMART\AppData\Local\Temp\ccwDMaLv.s:2221   .text.HAL_SYSCFG_SetWriteQosNP1:00000000 $t
C:\Users\SMART\AppData\Local\Temp\ccwDMaLv.s:2227   .text.HAL_SYSCFG_SetWriteQosNP1:00000000 HAL_SYSCFG_SetWriteQosNP1
C:\Users\SMART\AppData\Local\Temp\ccwDMaLv.s:2247   .text.HAL_SYSCFG_SetWriteQosNP1:00000010 $d
C:\Users\SMART\AppData\Local\Temp\ccwDMaLv.s:2252   .text.HAL_SYSCFG_GetWriteQosNP1:00000000 $t
C:\Users\SMART\AppData\Local\Temp\ccwDMaLv.s:2258   .text.HAL_SYSCFG_GetWriteQosNP1:00000000 HAL_SYSCFG_GetWriteQosNP1
C:\Users\SMART\AppData\Local\Temp\ccwDMaLv.s:2293   .text.HAL_SYSCFG_GetWriteQosNP1:00000014 $d
C:\Users\SMART\AppData\Local\Temp\ccwDMaLv.s:2298   .text.HAL_SYSCFG_SetReadQosNP1:00000000 $t
C:\Users\SMART\AppData\Local\Temp\ccwDMaLv.s:2304   .text.HAL_SYSCFG_SetReadQosNP1:00000000 HAL_SYSCFG_SetReadQosNP1
C:\Users\SMART\AppData\Local\Temp\ccwDMaLv.s:2324   .text.HAL_SYSCFG_SetReadQosNP1:00000010 $d
C:\Users\SMART\AppData\Local\Temp\ccwDMaLv.s:2329   .text.HAL_SYSCFG_GetReadQosNP1:00000000 $t
C:\Users\SMART\AppData\Local\Temp\ccwDMaLv.s:2335   .text.HAL_SYSCFG_GetReadQosNP1:00000000 HAL_SYSCFG_GetReadQosNP1
C:\Users\SMART\AppData\Local\Temp\ccwDMaLv.s:2369   .text.HAL_SYSCFG_GetReadQosNP1:00000014 $d
C:\Users\SMART\AppData\Local\Temp\ccwDMaLv.s:2374   .text.HAL_SYSCFG_SetWriteQosNP2:00000000 $t
C:\Users\SMART\AppData\Local\Temp\ccwDMaLv.s:2380   .text.HAL_SYSCFG_SetWriteQosNP2:00000000 HAL_SYSCFG_SetWriteQosNP2
C:\Users\SMART\AppData\Local\Temp\ccwDMaLv.s:2400   .text.HAL_SYSCFG_SetWriteQosNP2:00000010 $d
C:\Users\SMART\AppData\Local\Temp\ccwDMaLv.s:2405   .text.HAL_SYSCFG_GetWriteQosNP2:00000000 $t
C:\Users\SMART\AppData\Local\Temp\ccwDMaLv.s:2411   .text.HAL_SYSCFG_GetWriteQosNP2:00000000 HAL_SYSCFG_GetWriteQosNP2
C:\Users\SMART\AppData\Local\Temp\ccwDMaLv.s:2446   .text.HAL_SYSCFG_GetWriteQosNP2:00000014 $d
C:\Users\SMART\AppData\Local\Temp\ccwDMaLv.s:2451   .text.HAL_SYSCFG_SetReadQosNP2:00000000 $t
C:\Users\SMART\AppData\Local\Temp\ccwDMaLv.s:2457   .text.HAL_SYSCFG_SetReadQosNP2:00000000 HAL_SYSCFG_SetReadQosNP2
C:\Users\SMART\AppData\Local\Temp\ccwDMaLv.s:2477   .text.HAL_SYSCFG_SetReadQosNP2:00000010 $d
C:\Users\SMART\AppData\Local\Temp\ccwDMaLv.s:2482   .text.HAL_SYSCFG_GetReadQosNP2:00000000 $t
C:\Users\SMART\AppData\Local\Temp\ccwDMaLv.s:2488   .text.HAL_SYSCFG_GetReadQosNP2:00000000 HAL_SYSCFG_GetReadQosNP2
C:\Users\SMART\AppData\Local\Temp\ccwDMaLv.s:2523   .text.HAL_SYSCFG_GetReadQosNP2:00000014 $d
C:\Users\SMART\AppData\Local\Temp\ccwDMaLv.s:2528   .text.HAL_SYSCFG_SetWriteQosCPUSS:00000000 $t
C:\Users\SMART\AppData\Local\Temp\ccwDMaLv.s:2534   .text.HAL_SYSCFG_SetWriteQosCPUSS:00000000 HAL_SYSCFG_SetWriteQosCPUSS
C:\Users\SMART\AppData\Local\Temp\ccwDMaLv.s:2554   .text.HAL_SYSCFG_SetWriteQosCPUSS:00000010 $d
C:\Users\SMART\AppData\Local\Temp\ccwDMaLv.s:2559   .text.HAL_SYSCFG_GetwriteQosCPUSS:00000000 $t
C:\Users\SMART\AppData\Local\Temp\ccwDMaLv.s:2565   .text.HAL_SYSCFG_GetwriteQosCPUSS:00000000 HAL_SYSCFG_GetwriteQosCPUSS
C:\Users\SMART\AppData\Local\Temp\ccwDMaLv.s:2600   .text.HAL_SYSCFG_GetwriteQosCPUSS:00000014 $d
C:\Users\SMART\AppData\Local\Temp\ccwDMaLv.s:2605   .text.HAL_SYSCFG_SetReadQosCPUSS:00000000 $t
C:\Users\SMART\AppData\Local\Temp\ccwDMaLv.s:2611   .text.HAL_SYSCFG_SetReadQosCPUSS:00000000 HAL_SYSCFG_SetReadQosCPUSS
C:\Users\SMART\AppData\Local\Temp\ccwDMaLv.s:2631   .text.HAL_SYSCFG_SetReadQosCPUSS:00000010 $d
C:\Users\SMART\AppData\Local\Temp\ccwDMaLv.s:2636   .text.HAL_SYSCFG_GetReadQosCPUSS:00000000 $t
C:\Users\SMART\AppData\Local\Temp\ccwDMaLv.s:2642   .text.HAL_SYSCFG_GetReadQosCPUSS:00000000 HAL_SYSCFG_GetReadQosCPUSS
C:\Users\SMART\AppData\Local\Temp\ccwDMaLv.s:2677   .text.HAL_SYSCFG_GetReadQosCPUSS:00000014 $d
C:\Users\SMART\AppData\Local\Temp\ccwDMaLv.s:2682   .text.HAL_SYSCFG_EnableSDMMCEarlyWRRESP:00000000 $t
ARM GAS  C:\Users\SMART\AppData\Local\Temp\ccwDMaLv.s 			page 121


C:\Users\SMART\AppData\Local\Temp\ccwDMaLv.s:2688   .text.HAL_SYSCFG_EnableSDMMCEarlyWRRESP:00000000 HAL_SYSCFG_EnableSDMMCEarlyWRRESP
C:\Users\SMART\AppData\Local\Temp\ccwDMaLv.s:2707   .text.HAL_SYSCFG_EnableSDMMCEarlyWRRESP:0000000c $d
C:\Users\SMART\AppData\Local\Temp\ccwDMaLv.s:2712   .text.HAL_SYSCFG_DisableSDMMCEarlyWRRSP:00000000 $t
C:\Users\SMART\AppData\Local\Temp\ccwDMaLv.s:2718   .text.HAL_SYSCFG_DisableSDMMCEarlyWRRSP:00000000 HAL_SYSCFG_DisableSDMMCEarlyWRRSP
C:\Users\SMART\AppData\Local\Temp\ccwDMaLv.s:2737   .text.HAL_SYSCFG_DisableSDMMCEarlyWRRSP:0000000c $d
C:\Users\SMART\AppData\Local\Temp\ccwDMaLv.s:2742   .text.HAL_SYSCFG_EnableUSBEarlyEarlyWRRESP:00000000 $t
C:\Users\SMART\AppData\Local\Temp\ccwDMaLv.s:2748   .text.HAL_SYSCFG_EnableUSBEarlyEarlyWRRESP:00000000 HAL_SYSCFG_EnableUSBEarlyEarlyWRRESP
C:\Users\SMART\AppData\Local\Temp\ccwDMaLv.s:2767   .text.HAL_SYSCFG_EnableUSBEarlyEarlyWRRESP:0000000c $d
C:\Users\SMART\AppData\Local\Temp\ccwDMaLv.s:2772   .text.HAL_SYSCFG_DisableUSBEarlyEarlyWRRESP:00000000 $t
C:\Users\SMART\AppData\Local\Temp\ccwDMaLv.s:2778   .text.HAL_SYSCFG_DisableUSBEarlyEarlyWRRESP:00000000 HAL_SYSCFG_DisableUSBEarlyEarlyWRRESP
C:\Users\SMART\AppData\Local\Temp\ccwDMaLv.s:2797   .text.HAL_SYSCFG_DisableUSBEarlyEarlyWRRESP:0000000c $d
C:\Users\SMART\AppData\Local\Temp\ccwDMaLv.s:2802   .text.HAL_SYSCFG_EnablexPUClockGating:00000000 $t
C:\Users\SMART\AppData\Local\Temp\ccwDMaLv.s:2808   .text.HAL_SYSCFG_EnablexPUClockGating:00000000 HAL_SYSCFG_EnablexPUClockGating
C:\Users\SMART\AppData\Local\Temp\ccwDMaLv.s:2827   .text.HAL_SYSCFG_EnablexPUClockGating:0000000c $d
C:\Users\SMART\AppData\Local\Temp\ccwDMaLv.s:2832   .text.HAL_SYSCFG_DisablexPUClockGating:00000000 $t
C:\Users\SMART\AppData\Local\Temp\ccwDMaLv.s:2838   .text.HAL_SYSCFG_DisablexPUClockGating:00000000 HAL_SYSCFG_DisablexPUClockGating
C:\Users\SMART\AppData\Local\Temp\ccwDMaLv.s:2857   .text.HAL_SYSCFG_DisablexPUClockGating:0000000c $d
C:\Users\SMART\AppData\Local\Temp\ccwDMaLv.s:2862   .text.HAL_SYSCFG_EnableVDDIO2CompensationCell:00000000 $t
C:\Users\SMART\AppData\Local\Temp\ccwDMaLv.s:2868   .text.HAL_SYSCFG_EnableVDDIO2CompensationCell:00000000 HAL_SYSCFG_EnableVDDIO2CompensationCell
C:\Users\SMART\AppData\Local\Temp\ccwDMaLv.s:2885   .text.HAL_SYSCFG_EnableVDDIO2CompensationCell:0000000c $d
C:\Users\SMART\AppData\Local\Temp\ccwDMaLv.s:2890   .text.HAL_SYSCFG_DisableVDDIO2CompensationCell:00000000 $t
C:\Users\SMART\AppData\Local\Temp\ccwDMaLv.s:2896   .text.HAL_SYSCFG_DisableVDDIO2CompensationCell:00000000 HAL_SYSCFG_DisableVDDIO2CompensationCell
C:\Users\SMART\AppData\Local\Temp\ccwDMaLv.s:2913   .text.HAL_SYSCFG_DisableVDDIO2CompensationCell:0000000c $d
C:\Users\SMART\AppData\Local\Temp\ccwDMaLv.s:2918   .text.HAL_SYSCFG_EnableVDDIO3CompensationCell:00000000 $t
C:\Users\SMART\AppData\Local\Temp\ccwDMaLv.s:2924   .text.HAL_SYSCFG_EnableVDDIO3CompensationCell:00000000 HAL_SYSCFG_EnableVDDIO3CompensationCell
C:\Users\SMART\AppData\Local\Temp\ccwDMaLv.s:2941   .text.HAL_SYSCFG_EnableVDDIO3CompensationCell:0000000c $d
C:\Users\SMART\AppData\Local\Temp\ccwDMaLv.s:2946   .text.HAL_SYSCFG_DisableVDDIO3CompensationCell:00000000 $t
C:\Users\SMART\AppData\Local\Temp\ccwDMaLv.s:2952   .text.HAL_SYSCFG_DisableVDDIO3CompensationCell:00000000 HAL_SYSCFG_DisableVDDIO3CompensationCell
C:\Users\SMART\AppData\Local\Temp\ccwDMaLv.s:2969   .text.HAL_SYSCFG_DisableVDDIO3CompensationCell:0000000c $d
C:\Users\SMART\AppData\Local\Temp\ccwDMaLv.s:2974   .text.HAL_SYSCFG_EnableVDDIO4CompensationCell:00000000 $t
C:\Users\SMART\AppData\Local\Temp\ccwDMaLv.s:2980   .text.HAL_SYSCFG_EnableVDDIO4CompensationCell:00000000 HAL_SYSCFG_EnableVDDIO4CompensationCell
C:\Users\SMART\AppData\Local\Temp\ccwDMaLv.s:2997   .text.HAL_SYSCFG_EnableVDDIO4CompensationCell:0000000c $d
C:\Users\SMART\AppData\Local\Temp\ccwDMaLv.s:3002   .text.HAL_SYSCFG_DisableVDDIO4CompensationCell:00000000 $t
C:\Users\SMART\AppData\Local\Temp\ccwDMaLv.s:3008   .text.HAL_SYSCFG_DisableVDDIO4CompensationCell:00000000 HAL_SYSCFG_DisableVDDIO4CompensationCell
C:\Users\SMART\AppData\Local\Temp\ccwDMaLv.s:3025   .text.HAL_SYSCFG_DisableVDDIO4CompensationCell:0000000c $d
C:\Users\SMART\AppData\Local\Temp\ccwDMaLv.s:3030   .text.HAL_SYSCFG_EnableVDDIO5CompensationCell:00000000 $t
C:\Users\SMART\AppData\Local\Temp\ccwDMaLv.s:3036   .text.HAL_SYSCFG_EnableVDDIO5CompensationCell:00000000 HAL_SYSCFG_EnableVDDIO5CompensationCell
C:\Users\SMART\AppData\Local\Temp\ccwDMaLv.s:3053   .text.HAL_SYSCFG_EnableVDDIO5CompensationCell:0000000c $d
C:\Users\SMART\AppData\Local\Temp\ccwDMaLv.s:3058   .text.HAL_SYSCFG_DisableVDDIO5CompensationCell:00000000 $t
C:\Users\SMART\AppData\Local\Temp\ccwDMaLv.s:3064   .text.HAL_SYSCFG_DisableVDDIO5CompensationCell:00000000 HAL_SYSCFG_DisableVDDIO5CompensationCell
C:\Users\SMART\AppData\Local\Temp\ccwDMaLv.s:3081   .text.HAL_SYSCFG_DisableVDDIO5CompensationCell:0000000c $d
C:\Users\SMART\AppData\Local\Temp\ccwDMaLv.s:3086   .text.HAL_SYSCFG_ConfigVDDIOCompensationCell:00000000 $t
C:\Users\SMART\AppData\Local\Temp\ccwDMaLv.s:3092   .text.HAL_SYSCFG_ConfigVDDIOCompensationCell:00000000 HAL_SYSCFG_ConfigVDDIOCompensationCell
C:\Users\SMART\AppData\Local\Temp\ccwDMaLv.s:3113   .text.HAL_SYSCFG_ConfigVDDIOCompensationCell:0000000c $d
C:\Users\SMART\AppData\Local\Temp\ccwDMaLv.s:3117   .text.HAL_SYSCFG_ConfigVDDIOCompensationCell:00000010 $t
C:\Users\SMART\AppData\Local\Temp\ccwDMaLv.s:3134   .text.HAL_SYSCFG_ConfigVDDIOCompensationCell:00000020 $d
C:\Users\SMART\AppData\Local\Temp\ccwDMaLv.s:3138   .text.HAL_SYSCFG_ConfigVDDIOCompensationCell:00000024 $t
C:\Users\SMART\AppData\Local\Temp\ccwDMaLv.s:3310   .text.HAL_SYSCFG_ConfigVDDIOCompensationCell:000000dc $d
C:\Users\SMART\AppData\Local\Temp\ccwDMaLv.s:3315   .text.HAL_SYSCFG_GetVDDIOCompensationCell:00000000 $t
C:\Users\SMART\AppData\Local\Temp\ccwDMaLv.s:3321   .text.HAL_SYSCFG_GetVDDIOCompensationCell:00000000 HAL_SYSCFG_GetVDDIOCompensationCell
C:\Users\SMART\AppData\Local\Temp\ccwDMaLv.s:3362   .text.HAL_SYSCFG_GetVDDIOCompensationCell:0000001c $d
C:\Users\SMART\AppData\Local\Temp\ccwDMaLv.s:3366   .text.HAL_SYSCFG_GetVDDIOCompensationCell:00000020 $t
C:\Users\SMART\AppData\Local\Temp\ccwDMaLv.s:3373   .text.HAL_SYSCFG_GetVDDIOCompensationCell:00000028 $d
C:\Users\SMART\AppData\Local\Temp\ccwDMaLv.s:3377   .text.HAL_SYSCFG_GetVDDIOCompensationCell:0000002c $t
C:\Users\SMART\AppData\Local\Temp\ccwDMaLv.s:3561   .text.HAL_SYSCFG_GetVDDIOCompensationCell:000000a4 $d
C:\Users\SMART\AppData\Local\Temp\ccwDMaLv.s:3566   .text.HAL_SYSCFG_GetCompVDDIO2CellReadyStatus:00000000 $t
C:\Users\SMART\AppData\Local\Temp\ccwDMaLv.s:3572   .text.HAL_SYSCFG_GetCompVDDIO2CellReadyStatus:00000000 HAL_SYSCFG_GetCompVDDIO2CellReadyStatus
ARM GAS  C:\Users\SMART\AppData\Local\Temp\ccwDMaLv.s 			page 122


C:\Users\SMART\AppData\Local\Temp\ccwDMaLv.s:3589   .text.HAL_SYSCFG_GetCompVDDIO2CellReadyStatus:0000000c $d
C:\Users\SMART\AppData\Local\Temp\ccwDMaLv.s:3594   .text.HAL_SYSCFG_GetCompVDDIO3CellReadyStatus:00000000 $t
C:\Users\SMART\AppData\Local\Temp\ccwDMaLv.s:3600   .text.HAL_SYSCFG_GetCompVDDIO3CellReadyStatus:00000000 HAL_SYSCFG_GetCompVDDIO3CellReadyStatus
C:\Users\SMART\AppData\Local\Temp\ccwDMaLv.s:3617   .text.HAL_SYSCFG_GetCompVDDIO3CellReadyStatus:0000000c $d
C:\Users\SMART\AppData\Local\Temp\ccwDMaLv.s:3622   .text.HAL_SYSCFG_GetCompVDDIO4CellReadyStatus:00000000 $t
C:\Users\SMART\AppData\Local\Temp\ccwDMaLv.s:3628   .text.HAL_SYSCFG_GetCompVDDIO4CellReadyStatus:00000000 HAL_SYSCFG_GetCompVDDIO4CellReadyStatus
C:\Users\SMART\AppData\Local\Temp\ccwDMaLv.s:3645   .text.HAL_SYSCFG_GetCompVDDIO4CellReadyStatus:0000000c $d
C:\Users\SMART\AppData\Local\Temp\ccwDMaLv.s:3650   .text.HAL_SYSCFG_GetCompVDDIO5CellReadyStatus:00000000 $t
C:\Users\SMART\AppData\Local\Temp\ccwDMaLv.s:3656   .text.HAL_SYSCFG_GetCompVDDIO5CellReadyStatus:00000000 HAL_SYSCFG_GetCompVDDIO5CellReadyStatus
C:\Users\SMART\AppData\Local\Temp\ccwDMaLv.s:3673   .text.HAL_SYSCFG_GetCompVDDIO5CellReadyStatus:0000000c $d
C:\Users\SMART\AppData\Local\Temp\ccwDMaLv.s:3678   .text.HAL_SYSCFG_ConfigVDDCompensationCell:00000000 $t
C:\Users\SMART\AppData\Local\Temp\ccwDMaLv.s:3684   .text.HAL_SYSCFG_ConfigVDDCompensationCell:00000000 HAL_SYSCFG_ConfigVDDCompensationCell
C:\Users\SMART\AppData\Local\Temp\ccwDMaLv.s:3735   .text.HAL_SYSCFG_ConfigVDDCompensationCell:00000028 $d
C:\Users\SMART\AppData\Local\Temp\ccwDMaLv.s:3740   .text.HAL_SYSCFG_EnableVDDCompensationCell:00000000 $t
C:\Users\SMART\AppData\Local\Temp\ccwDMaLv.s:3746   .text.HAL_SYSCFG_EnableVDDCompensationCell:00000000 HAL_SYSCFG_EnableVDDCompensationCell
C:\Users\SMART\AppData\Local\Temp\ccwDMaLv.s:3763   .text.HAL_SYSCFG_EnableVDDCompensationCell:0000000c $d
C:\Users\SMART\AppData\Local\Temp\ccwDMaLv.s:3768   .text.HAL_SYSCFG_DisableVDDCompensationCell:00000000 $t
C:\Users\SMART\AppData\Local\Temp\ccwDMaLv.s:3774   .text.HAL_SYSCFG_DisableVDDCompensationCell:00000000 HAL_SYSCFG_DisableVDDCompensationCell
C:\Users\SMART\AppData\Local\Temp\ccwDMaLv.s:3791   .text.HAL_SYSCFG_DisableVDDCompensationCell:0000000c $d
C:\Users\SMART\AppData\Local\Temp\ccwDMaLv.s:3796   .text.HAL_SYSCFG_GetVDDCompensationCell:00000000 $t
C:\Users\SMART\AppData\Local\Temp\ccwDMaLv.s:3802   .text.HAL_SYSCFG_GetVDDCompensationCell:00000000 HAL_SYSCFG_GetVDDCompensationCell
C:\Users\SMART\AppData\Local\Temp\ccwDMaLv.s:3879   .text.HAL_SYSCFG_GetVDDCompensationCell:00000030 $d
C:\Users\SMART\AppData\Local\Temp\ccwDMaLv.s:3884   .text.HAL_SYSCFG_GetCompensationVDDCellReadyStatus:00000000 $t
C:\Users\SMART\AppData\Local\Temp\ccwDMaLv.s:3890   .text.HAL_SYSCFG_GetCompensationVDDCellReadyStatus:00000000 HAL_SYSCFG_GetCompensationVDDCellReadyStatus
C:\Users\SMART\AppData\Local\Temp\ccwDMaLv.s:3907   .text.HAL_SYSCFG_GetCompensationVDDCellReadyStatus:0000000c $d
C:\Users\SMART\AppData\Local\Temp\ccwDMaLv.s:3912   .text.HAL_SYSCFG_ConfigTimerBreakInput:00000000 $t
C:\Users\SMART\AppData\Local\Temp\ccwDMaLv.s:3918   .text.HAL_SYSCFG_ConfigTimerBreakInput:00000000 HAL_SYSCFG_ConfigTimerBreakInput
C:\Users\SMART\AppData\Local\Temp\ccwDMaLv.s:3937   .text.HAL_SYSCFG_ConfigTimerBreakInput:0000000c $d
C:\Users\SMART\AppData\Local\Temp\ccwDMaLv.s:3942   .text.HAL_SYSCFG_GetTimerBreakInputConfig:00000000 $t
C:\Users\SMART\AppData\Local\Temp\ccwDMaLv.s:3948   .text.HAL_SYSCFG_GetTimerBreakInputConfig:00000000 HAL_SYSCFG_GetTimerBreakInputConfig
C:\Users\SMART\AppData\Local\Temp\ccwDMaLv.s:3967   .text.HAL_SYSCFG_GetTimerBreakInputConfig:00000010 $d
C:\Users\SMART\AppData\Local\Temp\ccwDMaLv.s:3972   .text.HAL_SYSCFG_SetPerceivedCID:00000000 $t
C:\Users\SMART\AppData\Local\Temp\ccwDMaLv.s:3978   .text.HAL_SYSCFG_SetPerceivedCID:00000000 HAL_SYSCFG_SetPerceivedCID
C:\Users\SMART\AppData\Local\Temp\ccwDMaLv.s:3998   .text.HAL_SYSCFG_SetPerceivedCID:00000010 $d
C:\Users\SMART\AppData\Local\Temp\ccwDMaLv.s:4003   .text.HAL_SYSCFG_GetPerceivedCID:00000000 $t
C:\Users\SMART\AppData\Local\Temp\ccwDMaLv.s:4009   .text.HAL_SYSCFG_GetPerceivedCID:00000000 HAL_SYSCFG_GetPerceivedCID
C:\Users\SMART\AppData\Local\Temp\ccwDMaLv.s:4026   .text.HAL_SYSCFG_GetPerceivedCID:0000000c $d
C:\Users\SMART\AppData\Local\Temp\ccwDMaLv.s:4031   .text.HAL_SYSCFG_SetPerceivedPrivCID:00000000 $t
C:\Users\SMART\AppData\Local\Temp\ccwDMaLv.s:4037   .text.HAL_SYSCFG_SetPerceivedPrivCID:00000000 HAL_SYSCFG_SetPerceivedPrivCID
C:\Users\SMART\AppData\Local\Temp\ccwDMaLv.s:4056   .text.HAL_SYSCFG_SetPerceivedPrivCID:00000014 $d
C:\Users\SMART\AppData\Local\Temp\ccwDMaLv.s:4061   .text.HAL_SYSCFG_GetPerceivedPrivCID:00000000 $t
C:\Users\SMART\AppData\Local\Temp\ccwDMaLv.s:4067   .text.HAL_SYSCFG_GetPerceivedPrivCID:00000000 HAL_SYSCFG_GetPerceivedPrivCID
C:\Users\SMART\AppData\Local\Temp\ccwDMaLv.s:4084   .text.HAL_SYSCFG_GetPerceivedPrivCID:0000000c $d
C:\Users\SMART\AppData\Local\Temp\ccwDMaLv.s:4089   .text.HAL_SYSCFG_EnableReTimingRXpath:00000000 $t
C:\Users\SMART\AppData\Local\Temp\ccwDMaLv.s:4095   .text.HAL_SYSCFG_EnableReTimingRXpath:00000000 HAL_SYSCFG_EnableReTimingRXpath
C:\Users\SMART\AppData\Local\Temp\ccwDMaLv.s:4112   .text.HAL_SYSCFG_EnableReTimingRXpath:0000000c $d
C:\Users\SMART\AppData\Local\Temp\ccwDMaLv.s:4117   .text.HAL_SYSCFG_DisableReTimingRXpath:00000000 $t
C:\Users\SMART\AppData\Local\Temp\ccwDMaLv.s:4123   .text.HAL_SYSCFG_DisableReTimingRXpath:00000000 HAL_SYSCFG_DisableReTimingRXpath
C:\Users\SMART\AppData\Local\Temp\ccwDMaLv.s:4140   .text.HAL_SYSCFG_DisableReTimingRXpath:0000000c $d
C:\Users\SMART\AppData\Local\Temp\ccwDMaLv.s:4145   .text.HAL_SYSCFG_EnableReTimingTXpath:00000000 $t
C:\Users\SMART\AppData\Local\Temp\ccwDMaLv.s:4151   .text.HAL_SYSCFG_EnableReTimingTXpath:00000000 HAL_SYSCFG_EnableReTimingTXpath
C:\Users\SMART\AppData\Local\Temp\ccwDMaLv.s:4168   .text.HAL_SYSCFG_EnableReTimingTXpath:0000000c $d
C:\Users\SMART\AppData\Local\Temp\ccwDMaLv.s:4173   .text.HAL_SYSCFG_DisableReTimingTXpath:00000000 $t
C:\Users\SMART\AppData\Local\Temp\ccwDMaLv.s:4179   .text.HAL_SYSCFG_DisableReTimingTXpath:00000000 HAL_SYSCFG_DisableReTimingTXpath
C:\Users\SMART\AppData\Local\Temp\ccwDMaLv.s:4196   .text.HAL_SYSCFG_DisableReTimingTXpath:0000000c $d
C:\Users\SMART\AppData\Local\Temp\ccwDMaLv.s:4201   .text.HAL_SYSCFG_SetDelayOnFeedbackClock:00000000 $t
C:\Users\SMART\AppData\Local\Temp\ccwDMaLv.s:4207   .text.HAL_SYSCFG_SetDelayOnFeedbackClock:00000000 HAL_SYSCFG_SetDelayOnFeedbackClock
ARM GAS  C:\Users\SMART\AppData\Local\Temp\ccwDMaLv.s 			page 123


C:\Users\SMART\AppData\Local\Temp\ccwDMaLv.s:4227   .text.HAL_SYSCFG_SetDelayOnFeedbackClock:00000010 $d
C:\Users\SMART\AppData\Local\Temp\ccwDMaLv.s:4232   .text.HAL_SYSCFG_GetDelayOnFeedbackClock:00000000 $t
C:\Users\SMART\AppData\Local\Temp\ccwDMaLv.s:4238   .text.HAL_SYSCFG_GetDelayOnFeedbackClock:00000000 HAL_SYSCFG_GetDelayOnFeedbackClock
C:\Users\SMART\AppData\Local\Temp\ccwDMaLv.s:4255   .text.HAL_SYSCFG_GetDelayOnFeedbackClock:0000000c $d
C:\Users\SMART\AppData\Local\Temp\ccwDMaLv.s:4260   .text.HAL_SYSCFG_EnableInterleavingCpuRam:00000000 $t
C:\Users\SMART\AppData\Local\Temp\ccwDMaLv.s:4266   .text.HAL_SYSCFG_EnableInterleavingCpuRam:00000000 HAL_SYSCFG_EnableInterleavingCpuRam
C:\Users\SMART\AppData\Local\Temp\ccwDMaLv.s:4283   .text.HAL_SYSCFG_EnableInterleavingCpuRam:0000000c $d
C:\Users\SMART\AppData\Local\Temp\ccwDMaLv.s:4288   .text.HAL_SYSCFG_DisableInterleavingCpuRam:00000000 $t
C:\Users\SMART\AppData\Local\Temp\ccwDMaLv.s:4294   .text.HAL_SYSCFG_DisableInterleavingCpuRam:00000000 HAL_SYSCFG_DisableInterleavingCpuRam
C:\Users\SMART\AppData\Local\Temp\ccwDMaLv.s:4311   .text.HAL_SYSCFG_DisableInterleavingCpuRam:0000000c $d
C:\Users\SMART\AppData\Local\Temp\ccwDMaLv.s:4316   .text.HAL_SYSCFG_GetBootPinConnection:00000000 $t
C:\Users\SMART\AppData\Local\Temp\ccwDMaLv.s:4322   .text.HAL_SYSCFG_GetBootPinConnection:00000000 HAL_SYSCFG_GetBootPinConnection
C:\Users\SMART\AppData\Local\Temp\ccwDMaLv.s:4356   .text.HAL_SYSCFG_GetBootPinConnection:00000014 $d
C:\Users\SMART\AppData\Local\Temp\ccwDMaLv.s:4361   .text.HAL_SYSCFG_GetAddressWritePostingBuffer:00000000 $t
C:\Users\SMART\AppData\Local\Temp\ccwDMaLv.s:4367   .text.HAL_SYSCFG_GetAddressWritePostingBuffer:00000000 HAL_SYSCFG_GetAddressWritePostingBuffer
C:\Users\SMART\AppData\Local\Temp\ccwDMaLv.s:4383   .text.HAL_SYSCFG_GetAddressWritePostingBuffer:00000008 $d
C:\Users\SMART\AppData\Local\Temp\ccwDMaLv.s:4388   .text.HAL_FMC_SetBankSwapConfig:00000000 $t
C:\Users\SMART\AppData\Local\Temp\ccwDMaLv.s:4394   .text.HAL_FMC_SetBankSwapConfig:00000000 HAL_FMC_SetBankSwapConfig
C:\Users\SMART\AppData\Local\Temp\ccwDMaLv.s:4414   .text.HAL_FMC_SetBankSwapConfig:00000010 $d
C:\Users\SMART\AppData\Local\Temp\ccwDMaLv.s:4419   .text.HAL_FMC_GetBankSwapConfig:00000000 $t
C:\Users\SMART\AppData\Local\Temp\ccwDMaLv.s:4425   .text.HAL_FMC_GetBankSwapConfig:00000000 HAL_FMC_GetBankSwapConfig
C:\Users\SMART\AppData\Local\Temp\ccwDMaLv.s:4442   .text.HAL_FMC_GetBankSwapConfig:0000000c $d
C:\Users\SMART\AppData\Local\Temp\ccwDMaLv.s:4454   .data.uwTickPrio:00000000 $d
C:\Users\SMART\AppData\Local\Temp\ccwDMaLv.s:4461   .bss.uwTick:00000000 $d

UNDEFINED SYMBOLS
HAL_SYSTICK_Config
HAL_NVIC_SetPriority
SystemCoreClock
HAL_NVIC_SetPriorityGrouping
SystemCoreClockUpdate
