ARM GAS  C:\Users\SMART\AppData\Local\Temp\ccwDMaLv.s 			page 1


   1              		.arch armv8.1-m.main
   2              		.fpu fpv5-d16
   3              		.arch_extension dsp
   4              		.arch_extension fp
   5              		.arch_extension fp.dp
   6              		.arch_extension mve
   7              		.arch_extension mve.fp
   8              		.eabi_attribute 5, "cortex-m55"
   9              		.eabi_attribute 28, 1
  10              		.eabi_attribute 20, 1
  11              		.eabi_attribute 21, 1
  12              		.eabi_attribute 23, 3
  13              		.eabi_attribute 24, 1
  14              		.eabi_attribute 25, 1
  15              		.eabi_attribute 26, 1
  16              		.eabi_attribute 30, 1
  17              		.eabi_attribute 34, 1
  18              		.eabi_attribute 38, 1
  19              		.eabi_attribute 18, 4
  20              		.file	"stm32n6xx_hal.c"
  21              		.text
  22              	.Ltext0:
  23              		.cfi_sections	.debug_frame
  24              		.file 1 "../../Drivers/STM32N6xx_HAL_Driver/Src/stm32n6xx_hal.c"
  25              		.section	.text.HAL_MspInit,"ax",%progbits
  26              		.align	1
  27              		.weak	HAL_MspInit
  28              		.syntax unified
  29              		.thumb
  30              		.thumb_func
  32              	HAL_MspInit:
  33              	.LFB864:
   1:../../Drivers/STM32N6xx_HAL_Driver/Src/stm32n6xx_hal.c **** /**
   2:../../Drivers/STM32N6xx_HAL_Driver/Src/stm32n6xx_hal.c ****   ******************************************************************************
   3:../../Drivers/STM32N6xx_HAL_Driver/Src/stm32n6xx_hal.c ****   * @file    stm32n6xx_hal.c
   4:../../Drivers/STM32N6xx_HAL_Driver/Src/stm32n6xx_hal.c ****   * @author  MCD Application Team
   5:../../Drivers/STM32N6xx_HAL_Driver/Src/stm32n6xx_hal.c ****   * @brief   HAL module driver.
   6:../../Drivers/STM32N6xx_HAL_Driver/Src/stm32n6xx_hal.c ****   *          This is the common part of the HAL initialization
   7:../../Drivers/STM32N6xx_HAL_Driver/Src/stm32n6xx_hal.c ****   *
   8:../../Drivers/STM32N6xx_HAL_Driver/Src/stm32n6xx_hal.c ****   ******************************************************************************
   9:../../Drivers/STM32N6xx_HAL_Driver/Src/stm32n6xx_hal.c ****   * @attention
  10:../../Drivers/STM32N6xx_HAL_Driver/Src/stm32n6xx_hal.c ****   *
  11:../../Drivers/STM32N6xx_HAL_Driver/Src/stm32n6xx_hal.c ****   * Copyright (c) 2023 STMicroelectronics.
  12:../../Drivers/STM32N6xx_HAL_Driver/Src/stm32n6xx_hal.c ****   * All rights reserved.
  13:../../Drivers/STM32N6xx_HAL_Driver/Src/stm32n6xx_hal.c ****   *
  14:../../Drivers/STM32N6xx_HAL_Driver/Src/stm32n6xx_hal.c ****   * This software is licensed under terms that can be found in the LICENSE file
  15:../../Drivers/STM32N6xx_HAL_Driver/Src/stm32n6xx_hal.c ****   * in the root directory of this software component.
  16:../../Drivers/STM32N6xx_HAL_Driver/Src/stm32n6xx_hal.c ****   * If no LICENSE file comes with this software, it is provided AS-IS.
  17:../../Drivers/STM32N6xx_HAL_Driver/Src/stm32n6xx_hal.c ****   *
  18:../../Drivers/STM32N6xx_HAL_Driver/Src/stm32n6xx_hal.c ****   ******************************************************************************
  19:../../Drivers/STM32N6xx_HAL_Driver/Src/stm32n6xx_hal.c ****   @verbatim
  20:../../Drivers/STM32N6xx_HAL_Driver/Src/stm32n6xx_hal.c ****   ==============================================================================
  21:../../Drivers/STM32N6xx_HAL_Driver/Src/stm32n6xx_hal.c ****                      ##### How to use this driver #####
  22:../../Drivers/STM32N6xx_HAL_Driver/Src/stm32n6xx_hal.c ****   ==============================================================================
  23:../../Drivers/STM32N6xx_HAL_Driver/Src/stm32n6xx_hal.c ****     [..]
  24:../../Drivers/STM32N6xx_HAL_Driver/Src/stm32n6xx_hal.c ****     The common HAL driver contains a set of generic and common APIs that can be
  25:../../Drivers/STM32N6xx_HAL_Driver/Src/stm32n6xx_hal.c ****     used by the PPP peripheral drivers and the user to start using the HAL.
ARM GAS  C:\Users\SMART\AppData\Local\Temp\ccwDMaLv.s 			page 2


  26:../../Drivers/STM32N6xx_HAL_Driver/Src/stm32n6xx_hal.c ****     [..]
  27:../../Drivers/STM32N6xx_HAL_Driver/Src/stm32n6xx_hal.c ****     The HAL contains two APIs' categories:
  28:../../Drivers/STM32N6xx_HAL_Driver/Src/stm32n6xx_hal.c ****          (+) Common HAL APIs
  29:../../Drivers/STM32N6xx_HAL_Driver/Src/stm32n6xx_hal.c ****          (+) Services HAL APIs
  30:../../Drivers/STM32N6xx_HAL_Driver/Src/stm32n6xx_hal.c ****     [..]
  31:../../Drivers/STM32N6xx_HAL_Driver/Src/stm32n6xx_hal.c ****     All the SYSCFG functions have the same privilege and security attributes.
  32:../../Drivers/STM32N6xx_HAL_Driver/Src/stm32n6xx_hal.c ****          (+) Functions can operate in non-privileged code should
  33:../../Drivers/STM32N6xx_HAL_Driver/Src/stm32n6xx_hal.c ****              privileged and unprivileged data access are granted to the
  34:../../Drivers/STM32N6xx_HAL_Driver/Src/stm32n6xx_hal.c ****              peripheral (see HAL_RIF_RISC_SetSlaveSecureAttributes)
  35:../../Drivers/STM32N6xx_HAL_Driver/Src/stm32n6xx_hal.c **** 
  36:../../Drivers/STM32N6xx_HAL_Driver/Src/stm32n6xx_hal.c ****          (+) Functions  can operate in non-secure code should
  37:../../Drivers/STM32N6xx_HAL_Driver/Src/stm32n6xx_hal.c ****              secure and non-secure data access are granted to the peripheral
  38:../../Drivers/STM32N6xx_HAL_Driver/Src/stm32n6xx_hal.c ****              (see HAL_RIF_RISC_SetSlaveSecureAttributes).
  39:../../Drivers/STM32N6xx_HAL_Driver/Src/stm32n6xx_hal.c **** 
  40:../../Drivers/STM32N6xx_HAL_Driver/Src/stm32n6xx_hal.c ****   @endverbatim
  41:../../Drivers/STM32N6xx_HAL_Driver/Src/stm32n6xx_hal.c ****   ******************************************************************************
  42:../../Drivers/STM32N6xx_HAL_Driver/Src/stm32n6xx_hal.c ****   */
  43:../../Drivers/STM32N6xx_HAL_Driver/Src/stm32n6xx_hal.c **** 
  44:../../Drivers/STM32N6xx_HAL_Driver/Src/stm32n6xx_hal.c **** /* Includes ------------------------------------------------------------------*/
  45:../../Drivers/STM32N6xx_HAL_Driver/Src/stm32n6xx_hal.c **** #include "stm32n6xx_hal.h"
  46:../../Drivers/STM32N6xx_HAL_Driver/Src/stm32n6xx_hal.c **** 
  47:../../Drivers/STM32N6xx_HAL_Driver/Src/stm32n6xx_hal.c **** /** @addtogroup STM32N6xx_HAL_Driver
  48:../../Drivers/STM32N6xx_HAL_Driver/Src/stm32n6xx_hal.c ****   * @{
  49:../../Drivers/STM32N6xx_HAL_Driver/Src/stm32n6xx_hal.c ****   */
  50:../../Drivers/STM32N6xx_HAL_Driver/Src/stm32n6xx_hal.c **** 
  51:../../Drivers/STM32N6xx_HAL_Driver/Src/stm32n6xx_hal.c **** /** @defgroup HAL HAL
  52:../../Drivers/STM32N6xx_HAL_Driver/Src/stm32n6xx_hal.c ****   * @brief HAL module driver
  53:../../Drivers/STM32N6xx_HAL_Driver/Src/stm32n6xx_hal.c ****   * @{
  54:../../Drivers/STM32N6xx_HAL_Driver/Src/stm32n6xx_hal.c ****   */
  55:../../Drivers/STM32N6xx_HAL_Driver/Src/stm32n6xx_hal.c **** 
  56:../../Drivers/STM32N6xx_HAL_Driver/Src/stm32n6xx_hal.c **** #ifdef HAL_MODULE_ENABLED
  57:../../Drivers/STM32N6xx_HAL_Driver/Src/stm32n6xx_hal.c **** 
  58:../../Drivers/STM32N6xx_HAL_Driver/Src/stm32n6xx_hal.c **** /* Private typedef -----------------------------------------------------------*/
  59:../../Drivers/STM32N6xx_HAL_Driver/Src/stm32n6xx_hal.c **** /* Private define ------------------------------------------------------------*/
  60:../../Drivers/STM32N6xx_HAL_Driver/Src/stm32n6xx_hal.c **** #define HAL_TIMEOUT_SYSCFG_ABORT        5U    /* 5 ms */
  61:../../Drivers/STM32N6xx_HAL_Driver/Src/stm32n6xx_hal.c **** 
  62:../../Drivers/STM32N6xx_HAL_Driver/Src/stm32n6xx_hal.c **** /* Private macros ------------------------------------------------------------*/
  63:../../Drivers/STM32N6xx_HAL_Driver/Src/stm32n6xx_hal.c **** /* Private variables ---------------------------------------------------------*/
  64:../../Drivers/STM32N6xx_HAL_Driver/Src/stm32n6xx_hal.c **** /* Exported variables --------------------------------------------------------*/
  65:../../Drivers/STM32N6xx_HAL_Driver/Src/stm32n6xx_hal.c **** 
  66:../../Drivers/STM32N6xx_HAL_Driver/Src/stm32n6xx_hal.c **** /** @defgroup HAL_Exported_Variables HAL Exported Variables
  67:../../Drivers/STM32N6xx_HAL_Driver/Src/stm32n6xx_hal.c ****   * @{
  68:../../Drivers/STM32N6xx_HAL_Driver/Src/stm32n6xx_hal.c ****   */
  69:../../Drivers/STM32N6xx_HAL_Driver/Src/stm32n6xx_hal.c **** __IO uint32_t uwTick;
  70:../../Drivers/STM32N6xx_HAL_Driver/Src/stm32n6xx_hal.c **** uint32_t uwTickPrio   = (1UL << __NVIC_PRIO_BITS); /* Invalid PRIO */
  71:../../Drivers/STM32N6xx_HAL_Driver/Src/stm32n6xx_hal.c **** HAL_TickFreqTypeDef uwTickFreq = HAL_TICK_FREQ_DEFAULT;  /* 1KHz */
  72:../../Drivers/STM32N6xx_HAL_Driver/Src/stm32n6xx_hal.c **** /**
  73:../../Drivers/STM32N6xx_HAL_Driver/Src/stm32n6xx_hal.c ****   * @}
  74:../../Drivers/STM32N6xx_HAL_Driver/Src/stm32n6xx_hal.c ****   */
  75:../../Drivers/STM32N6xx_HAL_Driver/Src/stm32n6xx_hal.c **** 
  76:../../Drivers/STM32N6xx_HAL_Driver/Src/stm32n6xx_hal.c **** /* Private function prototypes -----------------------------------------------*/
  77:../../Drivers/STM32N6xx_HAL_Driver/Src/stm32n6xx_hal.c **** /* Exported functions --------------------------------------------------------*/
  78:../../Drivers/STM32N6xx_HAL_Driver/Src/stm32n6xx_hal.c **** 
  79:../../Drivers/STM32N6xx_HAL_Driver/Src/stm32n6xx_hal.c **** /** @defgroup HAL_Exported_Functions HAL Exported Functions
  80:../../Drivers/STM32N6xx_HAL_Driver/Src/stm32n6xx_hal.c ****   * @{
  81:../../Drivers/STM32N6xx_HAL_Driver/Src/stm32n6xx_hal.c ****   */
  82:../../Drivers/STM32N6xx_HAL_Driver/Src/stm32n6xx_hal.c **** 
ARM GAS  C:\Users\SMART\AppData\Local\Temp\ccwDMaLv.s 			page 3


  83:../../Drivers/STM32N6xx_HAL_Driver/Src/stm32n6xx_hal.c **** /** @defgroup HAL_Exported_Functions_Group1 Initialization and de-initialization Functions
  84:../../Drivers/STM32N6xx_HAL_Driver/Src/stm32n6xx_hal.c ****   * @brief    Initialization and de-initialization functions
  85:../../Drivers/STM32N6xx_HAL_Driver/Src/stm32n6xx_hal.c ****   *
  86:../../Drivers/STM32N6xx_HAL_Driver/Src/stm32n6xx_hal.c **** @verbatim
  87:../../Drivers/STM32N6xx_HAL_Driver/Src/stm32n6xx_hal.c ****  ===============================================================================
  88:../../Drivers/STM32N6xx_HAL_Driver/Src/stm32n6xx_hal.c ****               ##### Initialization and de-initialization functions #####
  89:../../Drivers/STM32N6xx_HAL_Driver/Src/stm32n6xx_hal.c ****  ===============================================================================
  90:../../Drivers/STM32N6xx_HAL_Driver/Src/stm32n6xx_hal.c ****     [..]  This section provides functions allowing to:
  91:../../Drivers/STM32N6xx_HAL_Driver/Src/stm32n6xx_hal.c ****       (+) Initializes the NVIC allocation and initial clock configuration.
  92:../../Drivers/STM32N6xx_HAL_Driver/Src/stm32n6xx_hal.c ****           It initializes the systick also when timeout is needed
  93:../../Drivers/STM32N6xx_HAL_Driver/Src/stm32n6xx_hal.c ****           and the backup domain when enabled.
  94:../../Drivers/STM32N6xx_HAL_Driver/Src/stm32n6xx_hal.c ****       (+) De-Initializes common part of the HAL.
  95:../../Drivers/STM32N6xx_HAL_Driver/Src/stm32n6xx_hal.c ****       (+) Configure The time base source to have 1ms time base with a dedicated
  96:../../Drivers/STM32N6xx_HAL_Driver/Src/stm32n6xx_hal.c ****           Tick interrupt priority.
  97:../../Drivers/STM32N6xx_HAL_Driver/Src/stm32n6xx_hal.c ****         (++) SysTick timer is used by default as source of time base, but user
  98:../../Drivers/STM32N6xx_HAL_Driver/Src/stm32n6xx_hal.c ****              can eventually implement his proper time base source (a general purpose
  99:../../Drivers/STM32N6xx_HAL_Driver/Src/stm32n6xx_hal.c ****              timer for example or other time source), keeping in mind that Time base
 100:../../Drivers/STM32N6xx_HAL_Driver/Src/stm32n6xx_hal.c ****              duration should be kept 1ms since PPP_TIMEOUT_VALUEs are defined and
 101:../../Drivers/STM32N6xx_HAL_Driver/Src/stm32n6xx_hal.c ****              handled in milliseconds basis.
 102:../../Drivers/STM32N6xx_HAL_Driver/Src/stm32n6xx_hal.c ****         (++) Time base configuration function (HAL_InitTick ()) is called automatically
 103:../../Drivers/STM32N6xx_HAL_Driver/Src/stm32n6xx_hal.c ****              at the beginning of the program after reset by HAL_Init() or at any time
 104:../../Drivers/STM32N6xx_HAL_Driver/Src/stm32n6xx_hal.c ****              when clock is configured, by HAL_RCC_ClockConfig().
 105:../../Drivers/STM32N6xx_HAL_Driver/Src/stm32n6xx_hal.c ****         (++) Source of time base is configured  to generate interrupts at regular
 106:../../Drivers/STM32N6xx_HAL_Driver/Src/stm32n6xx_hal.c ****              time intervals. Care must be taken if HAL_Delay() is called from a
 107:../../Drivers/STM32N6xx_HAL_Driver/Src/stm32n6xx_hal.c ****              peripheral ISR process, the Tick interrupt line must have higher priority
 108:../../Drivers/STM32N6xx_HAL_Driver/Src/stm32n6xx_hal.c ****             (numerically lower) than the peripheral interrupt. Otherwise the caller
 109:../../Drivers/STM32N6xx_HAL_Driver/Src/stm32n6xx_hal.c ****             ISR process will be blocked.
 110:../../Drivers/STM32N6xx_HAL_Driver/Src/stm32n6xx_hal.c ****        (++) functions affecting time base configurations are declared as __weak
 111:../../Drivers/STM32N6xx_HAL_Driver/Src/stm32n6xx_hal.c ****              to make  override possible  in case of other  implementations in user file.
 112:../../Drivers/STM32N6xx_HAL_Driver/Src/stm32n6xx_hal.c **** @endverbatim
 113:../../Drivers/STM32N6xx_HAL_Driver/Src/stm32n6xx_hal.c ****   * @{
 114:../../Drivers/STM32N6xx_HAL_Driver/Src/stm32n6xx_hal.c ****   */
 115:../../Drivers/STM32N6xx_HAL_Driver/Src/stm32n6xx_hal.c **** 
 116:../../Drivers/STM32N6xx_HAL_Driver/Src/stm32n6xx_hal.c **** /**
 117:../../Drivers/STM32N6xx_HAL_Driver/Src/stm32n6xx_hal.c ****   * @brief  Configure the time base source, NVIC and any required global low
 118:../../Drivers/STM32N6xx_HAL_Driver/Src/stm32n6xx_hal.c ****   *         level hardware by calling the HAL_MspInit() callback function to be optionally defined
 119:../../Drivers/STM32N6xx_HAL_Driver/Src/stm32n6xx_hal.c ****   *         in user file stm32n6xx_hal_msp.c.
 120:../../Drivers/STM32N6xx_HAL_Driver/Src/stm32n6xx_hal.c ****   *
 121:../../Drivers/STM32N6xx_HAL_Driver/Src/stm32n6xx_hal.c ****   * @note   HAL_Init() function is called at the beginning of program after reset and before
 122:../../Drivers/STM32N6xx_HAL_Driver/Src/stm32n6xx_hal.c ****   *         the clock configuration.
 123:../../Drivers/STM32N6xx_HAL_Driver/Src/stm32n6xx_hal.c ****   *
 124:../../Drivers/STM32N6xx_HAL_Driver/Src/stm32n6xx_hal.c ****   * @note   In the default implementation the System Timer (Systick) is used as source of time base
 125:../../Drivers/STM32N6xx_HAL_Driver/Src/stm32n6xx_hal.c ****   *         The Systick configuration is based on HSI clock, as HSI is the clock
 126:../../Drivers/STM32N6xx_HAL_Driver/Src/stm32n6xx_hal.c ****   *         used after a system Reset and the NVIC configuration is set to Priority group 4.
 127:../../Drivers/STM32N6xx_HAL_Driver/Src/stm32n6xx_hal.c ****   *         Once done, time base tick starts incrementing: the tick variable counter is incremented
 128:../../Drivers/STM32N6xx_HAL_Driver/Src/stm32n6xx_hal.c ****   *         each 1ms in the SysTick_Handler() interrupt handler.
 129:../../Drivers/STM32N6xx_HAL_Driver/Src/stm32n6xx_hal.c ****   *
 130:../../Drivers/STM32N6xx_HAL_Driver/Src/stm32n6xx_hal.c ****   * @retval HAL status
 131:../../Drivers/STM32N6xx_HAL_Driver/Src/stm32n6xx_hal.c ****   */
 132:../../Drivers/STM32N6xx_HAL_Driver/Src/stm32n6xx_hal.c **** HAL_StatusTypeDef HAL_Init(void)
 133:../../Drivers/STM32N6xx_HAL_Driver/Src/stm32n6xx_hal.c **** {
 134:../../Drivers/STM32N6xx_HAL_Driver/Src/stm32n6xx_hal.c ****   /* Set Interrupt Group Priority */
 135:../../Drivers/STM32N6xx_HAL_Driver/Src/stm32n6xx_hal.c ****   HAL_NVIC_SetPriorityGrouping(NVIC_PRIORITYGROUP_4);
 136:../../Drivers/STM32N6xx_HAL_Driver/Src/stm32n6xx_hal.c **** 
 137:../../Drivers/STM32N6xx_HAL_Driver/Src/stm32n6xx_hal.c ****   /* Ensure time base clock coherency in SystemCoreClock global variable */
 138:../../Drivers/STM32N6xx_HAL_Driver/Src/stm32n6xx_hal.c ****   SystemCoreClockUpdate();
 139:../../Drivers/STM32N6xx_HAL_Driver/Src/stm32n6xx_hal.c **** 
ARM GAS  C:\Users\SMART\AppData\Local\Temp\ccwDMaLv.s 			page 4


 140:../../Drivers/STM32N6xx_HAL_Driver/Src/stm32n6xx_hal.c ****   /* Initialize 1ms tick time base (default SysTick based on HSI clock after Reset) */
 141:../../Drivers/STM32N6xx_HAL_Driver/Src/stm32n6xx_hal.c ****   if (HAL_InitTick(TICK_INT_PRIORITY) != HAL_OK)
 142:../../Drivers/STM32N6xx_HAL_Driver/Src/stm32n6xx_hal.c ****   {
 143:../../Drivers/STM32N6xx_HAL_Driver/Src/stm32n6xx_hal.c ****     return HAL_ERROR;
 144:../../Drivers/STM32N6xx_HAL_Driver/Src/stm32n6xx_hal.c ****   }
 145:../../Drivers/STM32N6xx_HAL_Driver/Src/stm32n6xx_hal.c **** 
 146:../../Drivers/STM32N6xx_HAL_Driver/Src/stm32n6xx_hal.c ****   /* Init the low level hardware */
 147:../../Drivers/STM32N6xx_HAL_Driver/Src/stm32n6xx_hal.c ****   HAL_MspInit();
 148:../../Drivers/STM32N6xx_HAL_Driver/Src/stm32n6xx_hal.c **** 
 149:../../Drivers/STM32N6xx_HAL_Driver/Src/stm32n6xx_hal.c ****   /* Return function status */
 150:../../Drivers/STM32N6xx_HAL_Driver/Src/stm32n6xx_hal.c ****   return HAL_OK;
 151:../../Drivers/STM32N6xx_HAL_Driver/Src/stm32n6xx_hal.c **** }
 152:../../Drivers/STM32N6xx_HAL_Driver/Src/stm32n6xx_hal.c **** 
 153:../../Drivers/STM32N6xx_HAL_Driver/Src/stm32n6xx_hal.c **** /**
 154:../../Drivers/STM32N6xx_HAL_Driver/Src/stm32n6xx_hal.c ****   * @brief  This function de-initializes all peripherals and low level hardware resources.
 155:../../Drivers/STM32N6xx_HAL_Driver/Src/stm32n6xx_hal.c ****   * @note   This function should only be called from code running in internal RAM
 156:../../Drivers/STM32N6xx_HAL_Driver/Src/stm32n6xx_hal.c ****   *         since it resets the external peripheral memory interfaces.
 157:../../Drivers/STM32N6xx_HAL_Driver/Src/stm32n6xx_hal.c ****   * @note   This function is optional.
 158:../../Drivers/STM32N6xx_HAL_Driver/Src/stm32n6xx_hal.c ****   * @retval HAL status
 159:../../Drivers/STM32N6xx_HAL_Driver/Src/stm32n6xx_hal.c ****   */
 160:../../Drivers/STM32N6xx_HAL_Driver/Src/stm32n6xx_hal.c **** HAL_StatusTypeDef HAL_DeInit(void)
 161:../../Drivers/STM32N6xx_HAL_Driver/Src/stm32n6xx_hal.c **** {
 162:../../Drivers/STM32N6xx_HAL_Driver/Src/stm32n6xx_hal.c ****   /* Reset of all peripherals */
 163:../../Drivers/STM32N6xx_HAL_Driver/Src/stm32n6xx_hal.c ****   __HAL_RCC_APB1_FORCE_RESET();
 164:../../Drivers/STM32N6xx_HAL_Driver/Src/stm32n6xx_hal.c ****   __HAL_RCC_APB1_RELEASE_RESET();
 165:../../Drivers/STM32N6xx_HAL_Driver/Src/stm32n6xx_hal.c **** 
 166:../../Drivers/STM32N6xx_HAL_Driver/Src/stm32n6xx_hal.c ****   __HAL_RCC_APB2_FORCE_RESET();
 167:../../Drivers/STM32N6xx_HAL_Driver/Src/stm32n6xx_hal.c ****   __HAL_RCC_APB2_RELEASE_RESET();
 168:../../Drivers/STM32N6xx_HAL_Driver/Src/stm32n6xx_hal.c **** 
 169:../../Drivers/STM32N6xx_HAL_Driver/Src/stm32n6xx_hal.c ****   __HAL_RCC_APB4_FORCE_RESET();
 170:../../Drivers/STM32N6xx_HAL_Driver/Src/stm32n6xx_hal.c ****   __HAL_RCC_APB4_RELEASE_RESET();
 171:../../Drivers/STM32N6xx_HAL_Driver/Src/stm32n6xx_hal.c **** 
 172:../../Drivers/STM32N6xx_HAL_Driver/Src/stm32n6xx_hal.c ****   __HAL_RCC_APB5_FORCE_RESET();
 173:../../Drivers/STM32N6xx_HAL_Driver/Src/stm32n6xx_hal.c ****   __HAL_RCC_APB5_RELEASE_RESET();
 174:../../Drivers/STM32N6xx_HAL_Driver/Src/stm32n6xx_hal.c **** 
 175:../../Drivers/STM32N6xx_HAL_Driver/Src/stm32n6xx_hal.c ****   __HAL_RCC_AHB1_FORCE_RESET();
 176:../../Drivers/STM32N6xx_HAL_Driver/Src/stm32n6xx_hal.c ****   __HAL_RCC_AHB1_RELEASE_RESET();
 177:../../Drivers/STM32N6xx_HAL_Driver/Src/stm32n6xx_hal.c **** 
 178:../../Drivers/STM32N6xx_HAL_Driver/Src/stm32n6xx_hal.c ****   __HAL_RCC_AHB2_FORCE_RESET();
 179:../../Drivers/STM32N6xx_HAL_Driver/Src/stm32n6xx_hal.c ****   __HAL_RCC_AHB2_RELEASE_RESET();
 180:../../Drivers/STM32N6xx_HAL_Driver/Src/stm32n6xx_hal.c **** 
 181:../../Drivers/STM32N6xx_HAL_Driver/Src/stm32n6xx_hal.c ****   __HAL_RCC_AHB3_FORCE_RESET();
 182:../../Drivers/STM32N6xx_HAL_Driver/Src/stm32n6xx_hal.c ****   __HAL_RCC_AHB3_RELEASE_RESET();
 183:../../Drivers/STM32N6xx_HAL_Driver/Src/stm32n6xx_hal.c **** 
 184:../../Drivers/STM32N6xx_HAL_Driver/Src/stm32n6xx_hal.c ****   __HAL_RCC_AHB4_FORCE_RESET();
 185:../../Drivers/STM32N6xx_HAL_Driver/Src/stm32n6xx_hal.c ****   __HAL_RCC_AHB4_RELEASE_RESET();
 186:../../Drivers/STM32N6xx_HAL_Driver/Src/stm32n6xx_hal.c **** 
 187:../../Drivers/STM32N6xx_HAL_Driver/Src/stm32n6xx_hal.c ****   __HAL_RCC_AHB5_FORCE_RESET();
 188:../../Drivers/STM32N6xx_HAL_Driver/Src/stm32n6xx_hal.c ****   __HAL_RCC_AHB5_RELEASE_RESET();
 189:../../Drivers/STM32N6xx_HAL_Driver/Src/stm32n6xx_hal.c **** 
 190:../../Drivers/STM32N6xx_HAL_Driver/Src/stm32n6xx_hal.c ****   /* De-Init the low level hardware */
 191:../../Drivers/STM32N6xx_HAL_Driver/Src/stm32n6xx_hal.c ****   HAL_MspDeInit();
 192:../../Drivers/STM32N6xx_HAL_Driver/Src/stm32n6xx_hal.c **** 
 193:../../Drivers/STM32N6xx_HAL_Driver/Src/stm32n6xx_hal.c ****   /* Return function status */
 194:../../Drivers/STM32N6xx_HAL_Driver/Src/stm32n6xx_hal.c ****   return HAL_OK;
 195:../../Drivers/STM32N6xx_HAL_Driver/Src/stm32n6xx_hal.c **** }
 196:../../Drivers/STM32N6xx_HAL_Driver/Src/stm32n6xx_hal.c **** 
ARM GAS  C:\Users\SMART\AppData\Local\Temp\ccwDMaLv.s 			page 5


 197:../../Drivers/STM32N6xx_HAL_Driver/Src/stm32n6xx_hal.c **** /**
 198:../../Drivers/STM32N6xx_HAL_Driver/Src/stm32n6xx_hal.c ****   * @brief  Initializes the MSP.
 199:../../Drivers/STM32N6xx_HAL_Driver/Src/stm32n6xx_hal.c ****   * @retval None
 200:../../Drivers/STM32N6xx_HAL_Driver/Src/stm32n6xx_hal.c ****   */
 201:../../Drivers/STM32N6xx_HAL_Driver/Src/stm32n6xx_hal.c **** __weak void HAL_MspInit(void)
 202:../../Drivers/STM32N6xx_HAL_Driver/Src/stm32n6xx_hal.c **** {
  34              		.loc 1 202 1 view -0
  35              		.cfi_startproc
  36              		@ args = 0, pretend = 0, frame = 0
  37              		@ frame_needed = 0, uses_anonymous_args = 0
  38              		@ link register save eliminated.
 203:../../Drivers/STM32N6xx_HAL_Driver/Src/stm32n6xx_hal.c ****   /* NOTE : This function Should not be modified, when the callback is needed,
 204:../../Drivers/STM32N6xx_HAL_Driver/Src/stm32n6xx_hal.c ****             the HAL_MspInit could be implemented in the user file
 205:../../Drivers/STM32N6xx_HAL_Driver/Src/stm32n6xx_hal.c ****    */
 206:../../Drivers/STM32N6xx_HAL_Driver/Src/stm32n6xx_hal.c **** }
  39              		.loc 1 206 1 view .LVU1
  40 0000 7047     		bx	lr
  41              		.cfi_endproc
  42              	.LFE864:
  44              		.section	.text.HAL_MspDeInit,"ax",%progbits
  45              		.align	1
  46              		.weak	HAL_MspDeInit
  47              		.syntax unified
  48              		.thumb
  49              		.thumb_func
  51              	HAL_MspDeInit:
  52              	.LFB865:
 207:../../Drivers/STM32N6xx_HAL_Driver/Src/stm32n6xx_hal.c **** 
 208:../../Drivers/STM32N6xx_HAL_Driver/Src/stm32n6xx_hal.c **** /**
 209:../../Drivers/STM32N6xx_HAL_Driver/Src/stm32n6xx_hal.c ****   * @brief  DeInitializes the MSP.
 210:../../Drivers/STM32N6xx_HAL_Driver/Src/stm32n6xx_hal.c ****   * @retval None
 211:../../Drivers/STM32N6xx_HAL_Driver/Src/stm32n6xx_hal.c ****   */
 212:../../Drivers/STM32N6xx_HAL_Driver/Src/stm32n6xx_hal.c **** __weak void HAL_MspDeInit(void)
 213:../../Drivers/STM32N6xx_HAL_Driver/Src/stm32n6xx_hal.c **** {
  53              		.loc 1 213 1 view -0
  54              		.cfi_startproc
  55              		@ args = 0, pretend = 0, frame = 0
  56              		@ frame_needed = 0, uses_anonymous_args = 0
  57              		@ link register save eliminated.
 214:../../Drivers/STM32N6xx_HAL_Driver/Src/stm32n6xx_hal.c ****   /* NOTE : This function Should not be modified, when the callback is needed,
 215:../../Drivers/STM32N6xx_HAL_Driver/Src/stm32n6xx_hal.c ****             the HAL_MspDeInit could be implemented in the user file
 216:../../Drivers/STM32N6xx_HAL_Driver/Src/stm32n6xx_hal.c ****    */
 217:../../Drivers/STM32N6xx_HAL_Driver/Src/stm32n6xx_hal.c **** }
  58              		.loc 1 217 1 view .LVU3
  59 0000 7047     		bx	lr
  60              		.cfi_endproc
  61              	.LFE865:
  63              		.section	.text.HAL_DeInit,"ax",%progbits
  64              		.align	1
  65              		.global	HAL_DeInit
  66              		.syntax unified
  67              		.thumb
  68              		.thumb_func
  70              	HAL_DeInit:
  71              	.LFB863:
 161:../../Drivers/STM32N6xx_HAL_Driver/Src/stm32n6xx_hal.c ****   /* Reset of all peripherals */
  72              		.loc 1 161 1 view -0
ARM GAS  C:\Users\SMART\AppData\Local\Temp\ccwDMaLv.s 			page 6


  73              		.cfi_startproc
  74              		@ args = 0, pretend = 0, frame = 0
  75              		@ frame_needed = 0, uses_anonymous_args = 0
  76 0000 10B5     		push	{r4, lr}
  77              	.LCFI0:
  78              		.cfi_def_cfa_offset 8
  79              		.cfi_offset 4, -8
  80              		.cfi_offset 14, -4
 163:../../Drivers/STM32N6xx_HAL_Driver/Src/stm32n6xx_hal.c ****   __HAL_RCC_APB1_RELEASE_RESET();
  81              		.loc 1 163 3 view .LVU5
 163:../../Drivers/STM32N6xx_HAL_Driver/Src/stm32n6xx_hal.c ****   __HAL_RCC_APB1_RELEASE_RESET();
  82              		.loc 1 163 3 view .LVU6
  83 0002 1F4B     		ldr	r3, .L5
  84 0004 1F4A     		ldr	r2, .L5+4
  85 0006 C3F8242A 		str	r2, [r3, #2596]
 163:../../Drivers/STM32N6xx_HAL_Driver/Src/stm32n6xx_hal.c ****   __HAL_RCC_APB1_RELEASE_RESET();
  86              		.loc 1 163 3 view .LVU7
  87 000a 1F4A     		ldr	r2, .L5+8
  88 000c C3F8282A 		str	r2, [r3, #2600]
 163:../../Drivers/STM32N6xx_HAL_Driver/Src/stm32n6xx_hal.c ****   __HAL_RCC_APB1_RELEASE_RESET();
  89              		.loc 1 163 3 view .LVU8
 164:../../Drivers/STM32N6xx_HAL_Driver/Src/stm32n6xx_hal.c **** 
  90              		.loc 1 164 3 view .LVU9
 164:../../Drivers/STM32N6xx_HAL_Driver/Src/stm32n6xx_hal.c **** 
  91              		.loc 1 164 3 view .LVU10
  92 0010 0024     		movs	r4, #0
  93 0012 C3F8244A 		str	r4, [r3, #2596]
 164:../../Drivers/STM32N6xx_HAL_Driver/Src/stm32n6xx_hal.c **** 
  94              		.loc 1 164 3 view .LVU11
  95 0016 C3F8284A 		str	r4, [r3, #2600]
 164:../../Drivers/STM32N6xx_HAL_Driver/Src/stm32n6xx_hal.c **** 
  96              		.loc 1 164 3 view .LVU12
 166:../../Drivers/STM32N6xx_HAL_Driver/Src/stm32n6xx_hal.c ****   __HAL_RCC_APB2_RELEASE_RESET();
  97              		.loc 1 166 3 view .LVU13
  98 001a 1C4A     		ldr	r2, .L5+12
  99 001c C3F82C2A 		str	r2, [r3, #2604]
 167:../../Drivers/STM32N6xx_HAL_Driver/Src/stm32n6xx_hal.c **** 
 100              		.loc 1 167 3 view .LVU14
 101 0020 C3F82C4A 		str	r4, [r3, #2604]
 169:../../Drivers/STM32N6xx_HAL_Driver/Src/stm32n6xx_hal.c ****   __HAL_RCC_APB4_RELEASE_RESET();
 102              		.loc 1 169 3 view .LVU15
 169:../../Drivers/STM32N6xx_HAL_Driver/Src/stm32n6xx_hal.c ****   __HAL_RCC_APB4_RELEASE_RESET();
 103              		.loc 1 169 3 view .LVU16
 104 0024 1A4A     		ldr	r2, .L5+16
 105 0026 C3F8342A 		str	r2, [r3, #2612]
 169:../../Drivers/STM32N6xx_HAL_Driver/Src/stm32n6xx_hal.c ****   __HAL_RCC_APB4_RELEASE_RESET();
 106              		.loc 1 169 3 view .LVU17
 107 002a 0522     		movs	r2, #5
 108 002c C3F8382A 		str	r2, [r3, #2616]
 169:../../Drivers/STM32N6xx_HAL_Driver/Src/stm32n6xx_hal.c ****   __HAL_RCC_APB4_RELEASE_RESET();
 109              		.loc 1 169 3 view .LVU18
 170:../../Drivers/STM32N6xx_HAL_Driver/Src/stm32n6xx_hal.c **** 
 110              		.loc 1 170 3 view .LVU19
 170:../../Drivers/STM32N6xx_HAL_Driver/Src/stm32n6xx_hal.c **** 
 111              		.loc 1 170 3 view .LVU20
 112 0030 C3F8344A 		str	r4, [r3, #2612]
 170:../../Drivers/STM32N6xx_HAL_Driver/Src/stm32n6xx_hal.c **** 
ARM GAS  C:\Users\SMART\AppData\Local\Temp\ccwDMaLv.s 			page 7


 113              		.loc 1 170 3 view .LVU21
 114 0034 C3F8384A 		str	r4, [r3, #2616]
 170:../../Drivers/STM32N6xx_HAL_Driver/Src/stm32n6xx_hal.c **** 
 115              		.loc 1 170 3 view .LVU22
 172:../../Drivers/STM32N6xx_HAL_Driver/Src/stm32n6xx_hal.c ****   __HAL_RCC_APB5_RELEASE_RESET();
 116              		.loc 1 172 3 view .LVU23
 117 0038 7622     		movs	r2, #118
 118 003a C3F83C2A 		str	r2, [r3, #2620]
 173:../../Drivers/STM32N6xx_HAL_Driver/Src/stm32n6xx_hal.c **** 
 119              		.loc 1 173 3 view .LVU24
 120 003e C3F83C4A 		str	r4, [r3, #2620]
 175:../../Drivers/STM32N6xx_HAL_Driver/Src/stm32n6xx_hal.c ****   __HAL_RCC_AHB1_RELEASE_RESET();
 121              		.loc 1 175 3 view .LVU25
 122 0042 3022     		movs	r2, #48
 123 0044 C3F8102A 		str	r2, [r3, #2576]
 175:../../Drivers/STM32N6xx_HAL_Driver/Src/stm32n6xx_hal.c ****   __HAL_RCC_AHB1_RELEASE_RESET();
 124              		.loc 1 175 31 view .LVU26
 176:../../Drivers/STM32N6xx_HAL_Driver/Src/stm32n6xx_hal.c **** 
 125              		.loc 1 176 3 view .LVU27
 126 0048 C3F8104A 		str	r4, [r3, #2576]
 178:../../Drivers/STM32N6xx_HAL_Driver/Src/stm32n6xx_hal.c ****   __HAL_RCC_AHB2_RELEASE_RESET();
 127              		.loc 1 178 3 view .LVU28
 128 004c 4FF44432 		mov	r2, #200704
 129 0050 C3F8142A 		str	r2, [r3, #2580]
 178:../../Drivers/STM32N6xx_HAL_Driver/Src/stm32n6xx_hal.c ****   __HAL_RCC_AHB2_RELEASE_RESET();
 130              		.loc 1 178 31 view .LVU29
 179:../../Drivers/STM32N6xx_HAL_Driver/Src/stm32n6xx_hal.c **** 
 131              		.loc 1 179 3 view .LVU30
 132 0054 C3F8144A 		str	r4, [r3, #2580]
 181:../../Drivers/STM32N6xx_HAL_Driver/Src/stm32n6xx_hal.c ****   __HAL_RCC_AHB3_RELEASE_RESET();
 133              		.loc 1 181 3 view .LVU31
 134 0058 40F21752 		movw	r2, #1303
 135 005c C3F8182A 		str	r2, [r3, #2584]
 181:../../Drivers/STM32N6xx_HAL_Driver/Src/stm32n6xx_hal.c ****   __HAL_RCC_AHB3_RELEASE_RESET();
 136              		.loc 1 181 31 view .LVU32
 182:../../Drivers/STM32N6xx_HAL_Driver/Src/stm32n6xx_hal.c **** 
 137              		.loc 1 182 3 view .LVU33
 138 0060 C3F8184A 		str	r4, [r3, #2584]
 184:../../Drivers/STM32N6xx_HAL_Driver/Src/stm32n6xx_hal.c ****   __HAL_RCC_AHB4_RELEASE_RESET();
 139              		.loc 1 184 3 view .LVU34
 140 0064 0B4A     		ldr	r2, .L5+20
 141 0066 C3F81C2A 		str	r2, [r3, #2588]
 184:../../Drivers/STM32N6xx_HAL_Driver/Src/stm32n6xx_hal.c ****   __HAL_RCC_AHB4_RELEASE_RESET();
 142              		.loc 1 184 31 view .LVU35
 185:../../Drivers/STM32N6xx_HAL_Driver/Src/stm32n6xx_hal.c **** 
 143              		.loc 1 185 3 view .LVU36
 144 006a C3F81C4A 		str	r4, [r3, #2588]
 187:../../Drivers/STM32N6xx_HAL_Driver/Src/stm32n6xx_hal.c ****   __HAL_RCC_AHB5_RELEASE_RESET();
 145              		.loc 1 187 3 view .LVU37
 146 006e 0A4A     		ldr	r2, .L5+24
 147 0070 C3F8202A 		str	r2, [r3, #2592]
 188:../../Drivers/STM32N6xx_HAL_Driver/Src/stm32n6xx_hal.c **** 
 148              		.loc 1 188 3 view .LVU38
 149 0074 C3F8204A 		str	r4, [r3, #2592]
 191:../../Drivers/STM32N6xx_HAL_Driver/Src/stm32n6xx_hal.c **** 
 150              		.loc 1 191 3 view .LVU39
 151 0078 FFF7FEFF 		bl	HAL_MspDeInit
ARM GAS  C:\Users\SMART\AppData\Local\Temp\ccwDMaLv.s 			page 8


 152              	.LVL0:
 194:../../Drivers/STM32N6xx_HAL_Driver/Src/stm32n6xx_hal.c **** }
 153              		.loc 1 194 3 view .LVU40
 195:../../Drivers/STM32N6xx_HAL_Driver/Src/stm32n6xx_hal.c **** 
 154              		.loc 1 195 1 is_stmt 0 view .LVU41
 155 007c 2046     		mov	r0, r4
 156 007e 10BD     		pop	{r4, pc}
 157              	.L6:
 158              		.align	2
 159              	.L5:
 160 0080 00800256 		.word	1443004416
 161 0084 FFF3FFC3 		.word	-1006636033
 162 0088 20010400 		.word	262432
 163 008c F3B07F00 		.word	8368371
 164 0090 AC9E0100 		.word	106156
 165 0094 FFE00D00 		.word	909567
 166 0098 FB319AFF 		.word	-6671877
 167              		.cfi_endproc
 168              	.LFE863:
 170              		.section	.text.HAL_InitTick,"ax",%progbits
 171              		.align	1
 172              		.weak	HAL_InitTick
 173              		.syntax unified
 174              		.thumb
 175              		.thumb_func
 177              	HAL_InitTick:
 178              	.LVL1:
 179              	.LFB866:
 218:../../Drivers/STM32N6xx_HAL_Driver/Src/stm32n6xx_hal.c **** 
 219:../../Drivers/STM32N6xx_HAL_Driver/Src/stm32n6xx_hal.c **** /**
 220:../../Drivers/STM32N6xx_HAL_Driver/Src/stm32n6xx_hal.c ****   * @brief This function configures the source of the time base.
 221:../../Drivers/STM32N6xx_HAL_Driver/Src/stm32n6xx_hal.c ****   *        The time source is configured to have 1ms time base with a dedicated
 222:../../Drivers/STM32N6xx_HAL_Driver/Src/stm32n6xx_hal.c ****   *        Tick interrupt priority.
 223:../../Drivers/STM32N6xx_HAL_Driver/Src/stm32n6xx_hal.c ****   * @note This function is called  automatically at the beginning of program after
 224:../../Drivers/STM32N6xx_HAL_Driver/Src/stm32n6xx_hal.c ****   *       reset by HAL_Init() or at any time when clock is reconfigured  by HAL_RCC_ClockConfig().
 225:../../Drivers/STM32N6xx_HAL_Driver/Src/stm32n6xx_hal.c ****   * @note In the default implementation, SysTick timer is the source of time base.
 226:../../Drivers/STM32N6xx_HAL_Driver/Src/stm32n6xx_hal.c ****   *       It is used to generate interrupts at regular time intervals.
 227:../../Drivers/STM32N6xx_HAL_Driver/Src/stm32n6xx_hal.c ****   *       Care must be taken if HAL_Delay() is called from a peripheral ISR process,
 228:../../Drivers/STM32N6xx_HAL_Driver/Src/stm32n6xx_hal.c ****   *       The SysTick interrupt must have higher priority (numerically lower)
 229:../../Drivers/STM32N6xx_HAL_Driver/Src/stm32n6xx_hal.c ****   *       than the peripheral interrupt. Otherwise the caller ISR process will be blocked.
 230:../../Drivers/STM32N6xx_HAL_Driver/Src/stm32n6xx_hal.c ****   *       The function is declared as __weak  to be overwritten  in case of other
 231:../../Drivers/STM32N6xx_HAL_Driver/Src/stm32n6xx_hal.c ****   *       implementation  in user file.
 232:../../Drivers/STM32N6xx_HAL_Driver/Src/stm32n6xx_hal.c ****   * @param TickPriority: Tick interrupt priority.
 233:../../Drivers/STM32N6xx_HAL_Driver/Src/stm32n6xx_hal.c ****   * @retval HAL status
 234:../../Drivers/STM32N6xx_HAL_Driver/Src/stm32n6xx_hal.c ****   */
 235:../../Drivers/STM32N6xx_HAL_Driver/Src/stm32n6xx_hal.c **** __weak HAL_StatusTypeDef HAL_InitTick(uint32_t TickPriority)
 236:../../Drivers/STM32N6xx_HAL_Driver/Src/stm32n6xx_hal.c **** {
 180              		.loc 1 236 1 is_stmt 1 view -0
 181              		.cfi_startproc
 182              		@ args = 0, pretend = 0, frame = 0
 183              		@ frame_needed = 0, uses_anonymous_args = 0
 237:../../Drivers/STM32N6xx_HAL_Driver/Src/stm32n6xx_hal.c ****   /* Check uwTickFreq for MisraC 2012 (even if uwTickFreq is a enum type that don't take the value 
 238:../../Drivers/STM32N6xx_HAL_Driver/Src/stm32n6xx_hal.c ****   if ((uint32_t)uwTickFreq == 0UL)
 184              		.loc 1 238 3 view .LVU43
 185              		.loc 1 238 28 is_stmt 0 view .LVU44
 186 0000 104B     		ldr	r3, .L18
 187 0002 1B78     		ldrb	r3, [r3]	@ zero_extendqisi2
ARM GAS  C:\Users\SMART\AppData\Local\Temp\ccwDMaLv.s 			page 9


 188              		.loc 1 238 6 view .LVU45
 189 0004 0BB9     		cbnz	r3, .L16
 239:../../Drivers/STM32N6xx_HAL_Driver/Src/stm32n6xx_hal.c ****   {
 240:../../Drivers/STM32N6xx_HAL_Driver/Src/stm32n6xx_hal.c ****     return HAL_ERROR;
 190              		.loc 1 240 12 view .LVU46
 191 0006 0120     		movs	r0, #1
 192              	.LVL2:
 241:../../Drivers/STM32N6xx_HAL_Driver/Src/stm32n6xx_hal.c ****   }
 242:../../Drivers/STM32N6xx_HAL_Driver/Src/stm32n6xx_hal.c **** 
 243:../../Drivers/STM32N6xx_HAL_Driver/Src/stm32n6xx_hal.c ****   /* Configure the SysTick to have interrupt in 1ms time basis*/
 244:../../Drivers/STM32N6xx_HAL_Driver/Src/stm32n6xx_hal.c ****   if (HAL_SYSTICK_Config(SystemCoreClock / (1000UL / (uint32_t)uwTickFreq)) > 0U)
 245:../../Drivers/STM32N6xx_HAL_Driver/Src/stm32n6xx_hal.c ****   {
 246:../../Drivers/STM32N6xx_HAL_Driver/Src/stm32n6xx_hal.c ****     return HAL_ERROR;
 247:../../Drivers/STM32N6xx_HAL_Driver/Src/stm32n6xx_hal.c ****   }
 248:../../Drivers/STM32N6xx_HAL_Driver/Src/stm32n6xx_hal.c **** 
 249:../../Drivers/STM32N6xx_HAL_Driver/Src/stm32n6xx_hal.c ****   /* Configure the SysTick IRQ priority */
 250:../../Drivers/STM32N6xx_HAL_Driver/Src/stm32n6xx_hal.c ****   if (TickPriority < (1UL << __NVIC_PRIO_BITS))
 251:../../Drivers/STM32N6xx_HAL_Driver/Src/stm32n6xx_hal.c ****   {
 252:../../Drivers/STM32N6xx_HAL_Driver/Src/stm32n6xx_hal.c ****     HAL_NVIC_SetPriority(SysTick_IRQn, TickPriority, 0U);
 253:../../Drivers/STM32N6xx_HAL_Driver/Src/stm32n6xx_hal.c ****     uwTickPrio = TickPriority;
 254:../../Drivers/STM32N6xx_HAL_Driver/Src/stm32n6xx_hal.c ****   }
 255:../../Drivers/STM32N6xx_HAL_Driver/Src/stm32n6xx_hal.c ****   else
 256:../../Drivers/STM32N6xx_HAL_Driver/Src/stm32n6xx_hal.c ****   {
 257:../../Drivers/STM32N6xx_HAL_Driver/Src/stm32n6xx_hal.c ****     return HAL_ERROR;
 258:../../Drivers/STM32N6xx_HAL_Driver/Src/stm32n6xx_hal.c ****   }
 259:../../Drivers/STM32N6xx_HAL_Driver/Src/stm32n6xx_hal.c **** 
 260:../../Drivers/STM32N6xx_HAL_Driver/Src/stm32n6xx_hal.c ****   /* Return function status */
 261:../../Drivers/STM32N6xx_HAL_Driver/Src/stm32n6xx_hal.c ****   return HAL_OK;
 262:../../Drivers/STM32N6xx_HAL_Driver/Src/stm32n6xx_hal.c **** }
 193              		.loc 1 262 1 view .LVU47
 194 0008 7047     		bx	lr
 195              	.LVL3:
 196              	.L16:
 236:../../Drivers/STM32N6xx_HAL_Driver/Src/stm32n6xx_hal.c ****   /* Check uwTickFreq for MisraC 2012 (even if uwTickFreq is a enum type that don't take the value 
 197              		.loc 1 236 1 view .LVU48
 198 000a 10B5     		push	{r4, lr}
 199              	.LCFI1:
 200              		.cfi_def_cfa_offset 8
 201              		.cfi_offset 4, -8
 202              		.cfi_offset 14, -4
 203 000c 0446     		mov	r4, r0
 244:../../Drivers/STM32N6xx_HAL_Driver/Src/stm32n6xx_hal.c ****   {
 204              		.loc 1 244 3 is_stmt 1 view .LVU49
 244:../../Drivers/STM32N6xx_HAL_Driver/Src/stm32n6xx_hal.c ****   {
 205              		.loc 1 244 52 is_stmt 0 view .LVU50
 206 000e 4FF47A70 		mov	r0, #1000
 207              	.LVL4:
 244:../../Drivers/STM32N6xx_HAL_Driver/Src/stm32n6xx_hal.c ****   {
 208              		.loc 1 244 52 view .LVU51
 209 0012 B0FBF3F3 		udiv	r3, r0, r3
 244:../../Drivers/STM32N6xx_HAL_Driver/Src/stm32n6xx_hal.c ****   {
 210              		.loc 1 244 7 view .LVU52
 211 0016 0C4A     		ldr	r2, .L18+4
 212 0018 1068     		ldr	r0, [r2]
 213 001a B0FBF3F0 		udiv	r0, r0, r3
 214 001e FFF7FEFF 		bl	HAL_SYSTICK_Config
 215              	.LVL5:
ARM GAS  C:\Users\SMART\AppData\Local\Temp\ccwDMaLv.s 			page 10


 244:../../Drivers/STM32N6xx_HAL_Driver/Src/stm32n6xx_hal.c ****   {
 216              		.loc 1 244 6 discriminator 1 view .LVU53
 217 0022 68B9     		cbnz	r0, .L10
 250:../../Drivers/STM32N6xx_HAL_Driver/Src/stm32n6xx_hal.c ****   {
 218              		.loc 1 250 3 is_stmt 1 view .LVU54
 250:../../Drivers/STM32N6xx_HAL_Driver/Src/stm32n6xx_hal.c ****   {
 219              		.loc 1 250 6 is_stmt 0 view .LVU55
 220 0024 0F2C     		cmp	r4, #15
 221 0026 01D9     		bls	.L17
 257:../../Drivers/STM32N6xx_HAL_Driver/Src/stm32n6xx_hal.c ****   }
 222              		.loc 1 257 12 view .LVU56
 223 0028 0120     		movs	r0, #1
 224 002a 0AE0     		b	.L8
 225              	.L17:
 252:../../Drivers/STM32N6xx_HAL_Driver/Src/stm32n6xx_hal.c ****     uwTickPrio = TickPriority;
 226              		.loc 1 252 5 is_stmt 1 view .LVU57
 227 002c 0022     		movs	r2, #0
 228 002e 2146     		mov	r1, r4
 229 0030 4FF0FF30 		mov	r0, #-1
 230 0034 FFF7FEFF 		bl	HAL_NVIC_SetPriority
 231              	.LVL6:
 253:../../Drivers/STM32N6xx_HAL_Driver/Src/stm32n6xx_hal.c ****   }
 232              		.loc 1 253 5 view .LVU58
 253:../../Drivers/STM32N6xx_HAL_Driver/Src/stm32n6xx_hal.c ****   }
 233              		.loc 1 253 16 is_stmt 0 view .LVU59
 234 0038 044B     		ldr	r3, .L18+8
 235 003a 1C60     		str	r4, [r3]
 261:../../Drivers/STM32N6xx_HAL_Driver/Src/stm32n6xx_hal.c **** }
 236              		.loc 1 261 3 is_stmt 1 view .LVU60
 261:../../Drivers/STM32N6xx_HAL_Driver/Src/stm32n6xx_hal.c **** }
 237              		.loc 1 261 10 is_stmt 0 view .LVU61
 238 003c 0020     		movs	r0, #0
 239 003e 00E0     		b	.L8
 240              	.L10:
 246:../../Drivers/STM32N6xx_HAL_Driver/Src/stm32n6xx_hal.c ****   }
 241              		.loc 1 246 12 view .LVU62
 242 0040 0120     		movs	r0, #1
 243              	.L8:
 244              		.loc 1 262 1 view .LVU63
 245 0042 10BD     		pop	{r4, pc}
 246              	.LVL7:
 247              	.L19:
 248              		.loc 1 262 1 view .LVU64
 249              		.align	2
 250              	.L18:
 251 0044 00000000 		.word	uwTickFreq
 252 0048 00000000 		.word	SystemCoreClock
 253 004c 00000000 		.word	uwTickPrio
 254              		.cfi_endproc
 255              	.LFE866:
 257              		.section	.text.HAL_Init,"ax",%progbits
 258              		.align	1
 259              		.global	HAL_Init
 260              		.syntax unified
 261              		.thumb
 262              		.thumb_func
 264              	HAL_Init:
ARM GAS  C:\Users\SMART\AppData\Local\Temp\ccwDMaLv.s 			page 11


 265              	.LFB862:
 133:../../Drivers/STM32N6xx_HAL_Driver/Src/stm32n6xx_hal.c ****   /* Set Interrupt Group Priority */
 266              		.loc 1 133 1 is_stmt 1 view -0
 267              		.cfi_startproc
 268              		@ args = 0, pretend = 0, frame = 0
 269              		@ frame_needed = 0, uses_anonymous_args = 0
 270 0000 10B5     		push	{r4, lr}
 271              	.LCFI2:
 272              		.cfi_def_cfa_offset 8
 273              		.cfi_offset 4, -8
 274              		.cfi_offset 14, -4
 135:../../Drivers/STM32N6xx_HAL_Driver/Src/stm32n6xx_hal.c **** 
 275              		.loc 1 135 3 view .LVU66
 276 0002 0320     		movs	r0, #3
 277 0004 FFF7FEFF 		bl	HAL_NVIC_SetPriorityGrouping
 278              	.LVL8:
 138:../../Drivers/STM32N6xx_HAL_Driver/Src/stm32n6xx_hal.c **** 
 279              		.loc 1 138 3 view .LVU67
 280 0008 FFF7FEFF 		bl	SystemCoreClockUpdate
 281              	.LVL9:
 141:../../Drivers/STM32N6xx_HAL_Driver/Src/stm32n6xx_hal.c ****   {
 282              		.loc 1 141 3 view .LVU68
 141:../../Drivers/STM32N6xx_HAL_Driver/Src/stm32n6xx_hal.c ****   {
 283              		.loc 1 141 7 is_stmt 0 view .LVU69
 284 000c 0020     		movs	r0, #0
 285 000e FFF7FEFF 		bl	HAL_InitTick
 286              	.LVL10:
 141:../../Drivers/STM32N6xx_HAL_Driver/Src/stm32n6xx_hal.c ****   {
 287              		.loc 1 141 6 discriminator 1 view .LVU70
 288 0012 10B1     		cbz	r0, .L24
 143:../../Drivers/STM32N6xx_HAL_Driver/Src/stm32n6xx_hal.c ****   }
 289              		.loc 1 143 12 view .LVU71
 290 0014 0124     		movs	r4, #1
 291              	.L21:
 151:../../Drivers/STM32N6xx_HAL_Driver/Src/stm32n6xx_hal.c **** 
 292              		.loc 1 151 1 view .LVU72
 293 0016 2046     		mov	r0, r4
 294 0018 10BD     		pop	{r4, pc}
 295              	.L24:
 296 001a 0446     		mov	r4, r0
 147:../../Drivers/STM32N6xx_HAL_Driver/Src/stm32n6xx_hal.c **** 
 297              		.loc 1 147 3 is_stmt 1 view .LVU73
 298 001c FFF7FEFF 		bl	HAL_MspInit
 299              	.LVL11:
 150:../../Drivers/STM32N6xx_HAL_Driver/Src/stm32n6xx_hal.c **** }
 300              		.loc 1 150 3 view .LVU74
 150:../../Drivers/STM32N6xx_HAL_Driver/Src/stm32n6xx_hal.c **** }
 301              		.loc 1 150 10 is_stmt 0 view .LVU75
 302 0020 F9E7     		b	.L21
 303              		.cfi_endproc
 304              	.LFE862:
 306              		.section	.text.HAL_IncTick,"ax",%progbits
 307              		.align	1
 308              		.weak	HAL_IncTick
 309              		.syntax unified
 310              		.thumb
 311              		.thumb_func
ARM GAS  C:\Users\SMART\AppData\Local\Temp\ccwDMaLv.s 			page 12


 313              	HAL_IncTick:
 314              	.LFB867:
 263:../../Drivers/STM32N6xx_HAL_Driver/Src/stm32n6xx_hal.c **** 
 264:../../Drivers/STM32N6xx_HAL_Driver/Src/stm32n6xx_hal.c **** /**
 265:../../Drivers/STM32N6xx_HAL_Driver/Src/stm32n6xx_hal.c ****   * @}
 266:../../Drivers/STM32N6xx_HAL_Driver/Src/stm32n6xx_hal.c ****   */
 267:../../Drivers/STM32N6xx_HAL_Driver/Src/stm32n6xx_hal.c **** 
 268:../../Drivers/STM32N6xx_HAL_Driver/Src/stm32n6xx_hal.c **** /** @defgroup HAL_Group2 HAL Control functions
 269:../../Drivers/STM32N6xx_HAL_Driver/Src/stm32n6xx_hal.c ****   *  @brief    HAL Control functions
 270:../../Drivers/STM32N6xx_HAL_Driver/Src/stm32n6xx_hal.c ****   *
 271:../../Drivers/STM32N6xx_HAL_Driver/Src/stm32n6xx_hal.c **** @verbatim
 272:../../Drivers/STM32N6xx_HAL_Driver/Src/stm32n6xx_hal.c ****  ===============================================================================
 273:../../Drivers/STM32N6xx_HAL_Driver/Src/stm32n6xx_hal.c ****                       ##### HAL Control functions #####
 274:../../Drivers/STM32N6xx_HAL_Driver/Src/stm32n6xx_hal.c ****  ===============================================================================
 275:../../Drivers/STM32N6xx_HAL_Driver/Src/stm32n6xx_hal.c ****     [..]  This section provides functions allowing to:
 276:../../Drivers/STM32N6xx_HAL_Driver/Src/stm32n6xx_hal.c ****       (+) Provide a tick value in millisecond
 277:../../Drivers/STM32N6xx_HAL_Driver/Src/stm32n6xx_hal.c ****       (+) Provide a blocking delay in millisecond
 278:../../Drivers/STM32N6xx_HAL_Driver/Src/stm32n6xx_hal.c ****       (+) Suspend the time base source interrupt
 279:../../Drivers/STM32N6xx_HAL_Driver/Src/stm32n6xx_hal.c ****       (+) Resume the time base source interrupt
 280:../../Drivers/STM32N6xx_HAL_Driver/Src/stm32n6xx_hal.c ****       (+) Get the HAL API driver version
 281:../../Drivers/STM32N6xx_HAL_Driver/Src/stm32n6xx_hal.c ****       (+) Get the device identifier
 282:../../Drivers/STM32N6xx_HAL_Driver/Src/stm32n6xx_hal.c ****       (+) Get the device revision identifier
 283:../../Drivers/STM32N6xx_HAL_Driver/Src/stm32n6xx_hal.c ****       (+) Enable/Disable Debug module during SLEEP mode
 284:../../Drivers/STM32N6xx_HAL_Driver/Src/stm32n6xx_hal.c ****       (+) Enable/Disable Debug module during STOP mode
 285:../../Drivers/STM32N6xx_HAL_Driver/Src/stm32n6xx_hal.c ****       (+) Enable/Disable Debug module during STANDBY mode
 286:../../Drivers/STM32N6xx_HAL_Driver/Src/stm32n6xx_hal.c **** 
 287:../../Drivers/STM32N6xx_HAL_Driver/Src/stm32n6xx_hal.c **** @endverbatim
 288:../../Drivers/STM32N6xx_HAL_Driver/Src/stm32n6xx_hal.c ****   * @{
 289:../../Drivers/STM32N6xx_HAL_Driver/Src/stm32n6xx_hal.c ****   */
 290:../../Drivers/STM32N6xx_HAL_Driver/Src/stm32n6xx_hal.c **** 
 291:../../Drivers/STM32N6xx_HAL_Driver/Src/stm32n6xx_hal.c **** /**
 292:../../Drivers/STM32N6xx_HAL_Driver/Src/stm32n6xx_hal.c ****   * @brief This function is called to increment a global variable "uwTick"
 293:../../Drivers/STM32N6xx_HAL_Driver/Src/stm32n6xx_hal.c ****   *        used as application time base.
 294:../../Drivers/STM32N6xx_HAL_Driver/Src/stm32n6xx_hal.c ****   * @note In the default implementation, this variable is incremented each 1ms
 295:../../Drivers/STM32N6xx_HAL_Driver/Src/stm32n6xx_hal.c ****   *       in Systick ISR.
 296:../../Drivers/STM32N6xx_HAL_Driver/Src/stm32n6xx_hal.c ****   * @note This function is declared as __weak to be overwritten in case of other
 297:../../Drivers/STM32N6xx_HAL_Driver/Src/stm32n6xx_hal.c ****   *       implementations in user file.
 298:../../Drivers/STM32N6xx_HAL_Driver/Src/stm32n6xx_hal.c ****   * @retval None
 299:../../Drivers/STM32N6xx_HAL_Driver/Src/stm32n6xx_hal.c ****   */
 300:../../Drivers/STM32N6xx_HAL_Driver/Src/stm32n6xx_hal.c **** __weak void HAL_IncTick(void)
 301:../../Drivers/STM32N6xx_HAL_Driver/Src/stm32n6xx_hal.c **** {
 315              		.loc 1 301 1 is_stmt 1 view -0
 316              		.cfi_startproc
 317              		@ args = 0, pretend = 0, frame = 0
 318              		@ frame_needed = 0, uses_anonymous_args = 0
 319              		@ link register save eliminated.
 302:../../Drivers/STM32N6xx_HAL_Driver/Src/stm32n6xx_hal.c ****   uwTick += (uint32_t)uwTickFreq;
 320              		.loc 1 302 3 view .LVU77
 321              		.loc 1 302 13 is_stmt 0 view .LVU78
 322 0000 034B     		ldr	r3, .L26
 323 0002 1B78     		ldrb	r3, [r3]	@ zero_extendqisi2
 324              		.loc 1 302 10 view .LVU79
 325 0004 034A     		ldr	r2, .L26+4
 326 0006 1168     		ldr	r1, [r2]
 327 0008 0B44     		add	r3, r3, r1
 328 000a 1360     		str	r3, [r2]
 303:../../Drivers/STM32N6xx_HAL_Driver/Src/stm32n6xx_hal.c **** }
ARM GAS  C:\Users\SMART\AppData\Local\Temp\ccwDMaLv.s 			page 13


 329              		.loc 1 303 1 view .LVU80
 330 000c 7047     		bx	lr
 331              	.L27:
 332 000e 00BF     		.align	2
 333              	.L26:
 334 0010 00000000 		.word	uwTickFreq
 335 0014 00000000 		.word	uwTick
 336              		.cfi_endproc
 337              	.LFE867:
 339              		.section	.text.HAL_GetTick,"ax",%progbits
 340              		.align	1
 341              		.weak	HAL_GetTick
 342              		.syntax unified
 343              		.thumb
 344              		.thumb_func
 346              	HAL_GetTick:
 347              	.LFB868:
 304:../../Drivers/STM32N6xx_HAL_Driver/Src/stm32n6xx_hal.c **** 
 305:../../Drivers/STM32N6xx_HAL_Driver/Src/stm32n6xx_hal.c **** /**
 306:../../Drivers/STM32N6xx_HAL_Driver/Src/stm32n6xx_hal.c ****   * @brief Provides a tick value in millisecond.
 307:../../Drivers/STM32N6xx_HAL_Driver/Src/stm32n6xx_hal.c ****   * @note This function is declared as __weak to be overwritten in case of other
 308:../../Drivers/STM32N6xx_HAL_Driver/Src/stm32n6xx_hal.c ****   *       implementations in user file.
 309:../../Drivers/STM32N6xx_HAL_Driver/Src/stm32n6xx_hal.c ****   * @retval tick value
 310:../../Drivers/STM32N6xx_HAL_Driver/Src/stm32n6xx_hal.c ****   */
 311:../../Drivers/STM32N6xx_HAL_Driver/Src/stm32n6xx_hal.c **** __weak uint32_t HAL_GetTick(void)
 312:../../Drivers/STM32N6xx_HAL_Driver/Src/stm32n6xx_hal.c **** {
 348              		.loc 1 312 1 is_stmt 1 view -0
 349              		.cfi_startproc
 350              		@ args = 0, pretend = 0, frame = 0
 351              		@ frame_needed = 0, uses_anonymous_args = 0
 352              		@ link register save eliminated.
 313:../../Drivers/STM32N6xx_HAL_Driver/Src/stm32n6xx_hal.c ****   return uwTick;
 353              		.loc 1 313 3 view .LVU82
 354              		.loc 1 313 10 is_stmt 0 view .LVU83
 355 0000 014B     		ldr	r3, .L29
 356 0002 1868     		ldr	r0, [r3]
 314:../../Drivers/STM32N6xx_HAL_Driver/Src/stm32n6xx_hal.c **** }
 357              		.loc 1 314 1 view .LVU84
 358 0004 7047     		bx	lr
 359              	.L30:
 360 0006 00BF     		.align	2
 361              	.L29:
 362 0008 00000000 		.word	uwTick
 363              		.cfi_endproc
 364              	.LFE868:
 366              		.section	.text.HAL_GetTickPrio,"ax",%progbits
 367              		.align	1
 368              		.global	HAL_GetTickPrio
 369              		.syntax unified
 370              		.thumb
 371              		.thumb_func
 373              	HAL_GetTickPrio:
 374              	.LFB869:
 315:../../Drivers/STM32N6xx_HAL_Driver/Src/stm32n6xx_hal.c **** 
 316:../../Drivers/STM32N6xx_HAL_Driver/Src/stm32n6xx_hal.c **** /**
 317:../../Drivers/STM32N6xx_HAL_Driver/Src/stm32n6xx_hal.c ****   * @brief This function returns a tick priority.
 318:../../Drivers/STM32N6xx_HAL_Driver/Src/stm32n6xx_hal.c ****   * @retval tick priority
ARM GAS  C:\Users\SMART\AppData\Local\Temp\ccwDMaLv.s 			page 14


 319:../../Drivers/STM32N6xx_HAL_Driver/Src/stm32n6xx_hal.c ****   */
 320:../../Drivers/STM32N6xx_HAL_Driver/Src/stm32n6xx_hal.c **** uint32_t HAL_GetTickPrio(void)
 321:../../Drivers/STM32N6xx_HAL_Driver/Src/stm32n6xx_hal.c **** {
 375              		.loc 1 321 1 is_stmt 1 view -0
 376              		.cfi_startproc
 377              		@ args = 0, pretend = 0, frame = 0
 378              		@ frame_needed = 0, uses_anonymous_args = 0
 379              		@ link register save eliminated.
 322:../../Drivers/STM32N6xx_HAL_Driver/Src/stm32n6xx_hal.c ****   return uwTickPrio;
 380              		.loc 1 322 3 view .LVU86
 323:../../Drivers/STM32N6xx_HAL_Driver/Src/stm32n6xx_hal.c **** }
 381              		.loc 1 323 1 is_stmt 0 view .LVU87
 382 0000 014B     		ldr	r3, .L32
 383 0002 1868     		ldr	r0, [r3]
 384 0004 7047     		bx	lr
 385              	.L33:
 386 0006 00BF     		.align	2
 387              	.L32:
 388 0008 00000000 		.word	uwTickPrio
 389              		.cfi_endproc
 390              	.LFE869:
 392              		.section	.text.HAL_SetTickFreq,"ax",%progbits
 393              		.align	1
 394              		.global	HAL_SetTickFreq
 395              		.syntax unified
 396              		.thumb
 397              		.thumb_func
 399              	HAL_SetTickFreq:
 400              	.LVL12:
 401              	.LFB870:
 324:../../Drivers/STM32N6xx_HAL_Driver/Src/stm32n6xx_hal.c **** 
 325:../../Drivers/STM32N6xx_HAL_Driver/Src/stm32n6xx_hal.c **** /**
 326:../../Drivers/STM32N6xx_HAL_Driver/Src/stm32n6xx_hal.c ****   * @brief Set new tick Freq.
 327:../../Drivers/STM32N6xx_HAL_Driver/Src/stm32n6xx_hal.c ****   * @param Freq Tick frequency, value of @ref HAL_TickFreqTypeDef.
 328:../../Drivers/STM32N6xx_HAL_Driver/Src/stm32n6xx_hal.c ****   * @retval HAL status
 329:../../Drivers/STM32N6xx_HAL_Driver/Src/stm32n6xx_hal.c ****   */
 330:../../Drivers/STM32N6xx_HAL_Driver/Src/stm32n6xx_hal.c **** HAL_StatusTypeDef HAL_SetTickFreq(HAL_TickFreqTypeDef Freq)
 331:../../Drivers/STM32N6xx_HAL_Driver/Src/stm32n6xx_hal.c **** {
 402              		.loc 1 331 1 is_stmt 1 view -0
 403              		.cfi_startproc
 404              		@ args = 0, pretend = 0, frame = 0
 405              		@ frame_needed = 0, uses_anonymous_args = 0
 406              		.loc 1 331 1 is_stmt 0 view .LVU89
 407 0000 10B5     		push	{r4, lr}
 408              	.LCFI3:
 409              		.cfi_def_cfa_offset 8
 410              		.cfi_offset 4, -8
 411              		.cfi_offset 14, -4
 332:../../Drivers/STM32N6xx_HAL_Driver/Src/stm32n6xx_hal.c ****   HAL_StatusTypeDef status  = HAL_OK;
 412              		.loc 1 332 3 is_stmt 1 view .LVU90
 413              	.LVL13:
 333:../../Drivers/STM32N6xx_HAL_Driver/Src/stm32n6xx_hal.c ****   HAL_TickFreqTypeDef prevTickFreq;
 414              		.loc 1 333 3 view .LVU91
 334:../../Drivers/STM32N6xx_HAL_Driver/Src/stm32n6xx_hal.c **** 
 335:../../Drivers/STM32N6xx_HAL_Driver/Src/stm32n6xx_hal.c ****   assert_param(IS_TICKFREQ(Freq));
 415              		.loc 1 335 3 view .LVU92
 336:../../Drivers/STM32N6xx_HAL_Driver/Src/stm32n6xx_hal.c **** 
ARM GAS  C:\Users\SMART\AppData\Local\Temp\ccwDMaLv.s 			page 15


 337:../../Drivers/STM32N6xx_HAL_Driver/Src/stm32n6xx_hal.c ****   if (uwTickFreq != Freq)
 416              		.loc 1 337 3 view .LVU93
 417              		.loc 1 337 18 is_stmt 0 view .LVU94
 418 0002 084B     		ldr	r3, .L39
 419 0004 1C78     		ldrb	r4, [r3]	@ zero_extendqisi2
 420              		.loc 1 337 6 view .LVU95
 421 0006 8442     		cmp	r4, r0
 422 0008 01D1     		bne	.L38
 332:../../Drivers/STM32N6xx_HAL_Driver/Src/stm32n6xx_hal.c ****   HAL_TickFreqTypeDef prevTickFreq;
 423              		.loc 1 332 21 view .LVU96
 424 000a 0020     		movs	r0, #0
 425              	.LVL14:
 426              	.L35:
 338:../../Drivers/STM32N6xx_HAL_Driver/Src/stm32n6xx_hal.c ****   {
 339:../../Drivers/STM32N6xx_HAL_Driver/Src/stm32n6xx_hal.c ****     /* Back up uwTickFreq frequency */
 340:../../Drivers/STM32N6xx_HAL_Driver/Src/stm32n6xx_hal.c ****     prevTickFreq = uwTickFreq;
 341:../../Drivers/STM32N6xx_HAL_Driver/Src/stm32n6xx_hal.c **** 
 342:../../Drivers/STM32N6xx_HAL_Driver/Src/stm32n6xx_hal.c ****     /* Update uwTickFreq global variable used by HAL_InitTick() */
 343:../../Drivers/STM32N6xx_HAL_Driver/Src/stm32n6xx_hal.c ****     uwTickFreq = Freq;
 344:../../Drivers/STM32N6xx_HAL_Driver/Src/stm32n6xx_hal.c **** 
 345:../../Drivers/STM32N6xx_HAL_Driver/Src/stm32n6xx_hal.c ****     /* Apply the new tick Freq  */
 346:../../Drivers/STM32N6xx_HAL_Driver/Src/stm32n6xx_hal.c ****     status = HAL_InitTick(uwTickPrio);
 347:../../Drivers/STM32N6xx_HAL_Driver/Src/stm32n6xx_hal.c ****     if (status != HAL_OK)
 348:../../Drivers/STM32N6xx_HAL_Driver/Src/stm32n6xx_hal.c ****     {
 349:../../Drivers/STM32N6xx_HAL_Driver/Src/stm32n6xx_hal.c ****       /* Restore previous tick frequency */
 350:../../Drivers/STM32N6xx_HAL_Driver/Src/stm32n6xx_hal.c ****       uwTickFreq = prevTickFreq;
 351:../../Drivers/STM32N6xx_HAL_Driver/Src/stm32n6xx_hal.c ****     }
 352:../../Drivers/STM32N6xx_HAL_Driver/Src/stm32n6xx_hal.c ****   }
 353:../../Drivers/STM32N6xx_HAL_Driver/Src/stm32n6xx_hal.c **** 
 354:../../Drivers/STM32N6xx_HAL_Driver/Src/stm32n6xx_hal.c ****   return status;
 427              		.loc 1 354 3 is_stmt 1 view .LVU97
 355:../../Drivers/STM32N6xx_HAL_Driver/Src/stm32n6xx_hal.c **** }
 428              		.loc 1 355 1 is_stmt 0 view .LVU98
 429 000c 10BD     		pop	{r4, pc}
 430              	.LVL15:
 431              	.L38:
 340:../../Drivers/STM32N6xx_HAL_Driver/Src/stm32n6xx_hal.c **** 
 432              		.loc 1 340 5 is_stmt 1 view .LVU99
 343:../../Drivers/STM32N6xx_HAL_Driver/Src/stm32n6xx_hal.c **** 
 433              		.loc 1 343 5 view .LVU100
 343:../../Drivers/STM32N6xx_HAL_Driver/Src/stm32n6xx_hal.c **** 
 434              		.loc 1 343 16 is_stmt 0 view .LVU101
 435 000e 1870     		strb	r0, [r3]
 346:../../Drivers/STM32N6xx_HAL_Driver/Src/stm32n6xx_hal.c ****     if (status != HAL_OK)
 436              		.loc 1 346 5 is_stmt 1 view .LVU102
 346:../../Drivers/STM32N6xx_HAL_Driver/Src/stm32n6xx_hal.c ****     if (status != HAL_OK)
 437              		.loc 1 346 14 is_stmt 0 view .LVU103
 438 0010 054B     		ldr	r3, .L39+4
 439 0012 1868     		ldr	r0, [r3]
 440              	.LVL16:
 346:../../Drivers/STM32N6xx_HAL_Driver/Src/stm32n6xx_hal.c ****     if (status != HAL_OK)
 441              		.loc 1 346 14 view .LVU104
 442 0014 FFF7FEFF 		bl	HAL_InitTick
 443              	.LVL17:
 347:../../Drivers/STM32N6xx_HAL_Driver/Src/stm32n6xx_hal.c ****     {
 444              		.loc 1 347 5 is_stmt 1 view .LVU105
 347:../../Drivers/STM32N6xx_HAL_Driver/Src/stm32n6xx_hal.c ****     {
ARM GAS  C:\Users\SMART\AppData\Local\Temp\ccwDMaLv.s 			page 16


 445              		.loc 1 347 8 is_stmt 0 view .LVU106
 446 0018 0028     		cmp	r0, #0
 447 001a F7D0     		beq	.L35
 350:../../Drivers/STM32N6xx_HAL_Driver/Src/stm32n6xx_hal.c ****     }
 448              		.loc 1 350 7 is_stmt 1 view .LVU107
 350:../../Drivers/STM32N6xx_HAL_Driver/Src/stm32n6xx_hal.c ****     }
 449              		.loc 1 350 18 is_stmt 0 view .LVU108
 450 001c 014B     		ldr	r3, .L39
 451 001e 1C70     		strb	r4, [r3]
 452 0020 F4E7     		b	.L35
 453              	.L40:
 454 0022 00BF     		.align	2
 455              	.L39:
 456 0024 00000000 		.word	uwTickFreq
 457 0028 00000000 		.word	uwTickPrio
 458              		.cfi_endproc
 459              	.LFE870:
 461              		.section	.text.HAL_GetTickFreq,"ax",%progbits
 462              		.align	1
 463              		.global	HAL_GetTickFreq
 464              		.syntax unified
 465              		.thumb
 466              		.thumb_func
 468              	HAL_GetTickFreq:
 469              	.LFB871:
 356:../../Drivers/STM32N6xx_HAL_Driver/Src/stm32n6xx_hal.c **** 
 357:../../Drivers/STM32N6xx_HAL_Driver/Src/stm32n6xx_hal.c **** /**
 358:../../Drivers/STM32N6xx_HAL_Driver/Src/stm32n6xx_hal.c ****   * @brief Return tick frequency.
 359:../../Drivers/STM32N6xx_HAL_Driver/Src/stm32n6xx_hal.c ****   * @retval Tick frequency.
 360:../../Drivers/STM32N6xx_HAL_Driver/Src/stm32n6xx_hal.c ****   *         Value of @ref HAL_TickFreqTypeDef.
 361:../../Drivers/STM32N6xx_HAL_Driver/Src/stm32n6xx_hal.c ****   */
 362:../../Drivers/STM32N6xx_HAL_Driver/Src/stm32n6xx_hal.c **** HAL_TickFreqTypeDef HAL_GetTickFreq(void)
 363:../../Drivers/STM32N6xx_HAL_Driver/Src/stm32n6xx_hal.c **** {
 470              		.loc 1 363 1 is_stmt 1 view -0
 471              		.cfi_startproc
 472              		@ args = 0, pretend = 0, frame = 0
 473              		@ frame_needed = 0, uses_anonymous_args = 0
 474              		@ link register save eliminated.
 364:../../Drivers/STM32N6xx_HAL_Driver/Src/stm32n6xx_hal.c ****   return uwTickFreq;
 475              		.loc 1 364 3 view .LVU110
 365:../../Drivers/STM32N6xx_HAL_Driver/Src/stm32n6xx_hal.c **** }
 476              		.loc 1 365 1 is_stmt 0 view .LVU111
 477 0000 014B     		ldr	r3, .L42
 478 0002 1878     		ldrb	r0, [r3]	@ zero_extendqisi2
 479 0004 7047     		bx	lr
 480              	.L43:
 481 0006 00BF     		.align	2
 482              	.L42:
 483 0008 00000000 		.word	uwTickFreq
 484              		.cfi_endproc
 485              	.LFE871:
 487              		.section	.text.HAL_Delay,"ax",%progbits
 488              		.align	1
 489              		.weak	HAL_Delay
 490              		.syntax unified
 491              		.thumb
 492              		.thumb_func
ARM GAS  C:\Users\SMART\AppData\Local\Temp\ccwDMaLv.s 			page 17


 494              	HAL_Delay:
 495              	.LVL18:
 496              	.LFB872:
 366:../../Drivers/STM32N6xx_HAL_Driver/Src/stm32n6xx_hal.c **** 
 367:../../Drivers/STM32N6xx_HAL_Driver/Src/stm32n6xx_hal.c **** /**
 368:../../Drivers/STM32N6xx_HAL_Driver/Src/stm32n6xx_hal.c ****   * @brief This function provides minimum delay (in milliseconds) based
 369:../../Drivers/STM32N6xx_HAL_Driver/Src/stm32n6xx_hal.c ****   *        on variable incremented.
 370:../../Drivers/STM32N6xx_HAL_Driver/Src/stm32n6xx_hal.c ****   * @note In the default implementation , SysTick timer is the source of time base.
 371:../../Drivers/STM32N6xx_HAL_Driver/Src/stm32n6xx_hal.c ****   *       It is used to generate interrupts at regular time intervals where uwTick
 372:../../Drivers/STM32N6xx_HAL_Driver/Src/stm32n6xx_hal.c ****   *       is incremented.
 373:../../Drivers/STM32N6xx_HAL_Driver/Src/stm32n6xx_hal.c ****   * @note This function is declared as __weak to be overwritten in case of other
 374:../../Drivers/STM32N6xx_HAL_Driver/Src/stm32n6xx_hal.c ****   *       implementations in user file.
 375:../../Drivers/STM32N6xx_HAL_Driver/Src/stm32n6xx_hal.c ****   * @param Delay Specifies the delay time length, in milliseconds.
 376:../../Drivers/STM32N6xx_HAL_Driver/Src/stm32n6xx_hal.c ****   * @retval None
 377:../../Drivers/STM32N6xx_HAL_Driver/Src/stm32n6xx_hal.c ****   */
 378:../../Drivers/STM32N6xx_HAL_Driver/Src/stm32n6xx_hal.c **** __weak void HAL_Delay(uint32_t Delay)
 379:../../Drivers/STM32N6xx_HAL_Driver/Src/stm32n6xx_hal.c **** {
 497              		.loc 1 379 1 is_stmt 1 view -0
 498              		.cfi_startproc
 499              		@ args = 0, pretend = 0, frame = 0
 500              		@ frame_needed = 0, uses_anonymous_args = 0
 501              		.loc 1 379 1 is_stmt 0 view .LVU113
 502 0000 38B5     		push	{r3, r4, r5, lr}
 503              	.LCFI4:
 504              		.cfi_def_cfa_offset 16
 505              		.cfi_offset 3, -16
 506              		.cfi_offset 4, -12
 507              		.cfi_offset 5, -8
 508              		.cfi_offset 14, -4
 509 0002 0446     		mov	r4, r0
 380:../../Drivers/STM32N6xx_HAL_Driver/Src/stm32n6xx_hal.c ****   uint32_t tickstart = HAL_GetTick();
 510              		.loc 1 380 3 is_stmt 1 view .LVU114
 511              		.loc 1 380 24 is_stmt 0 view .LVU115
 512 0004 FFF7FEFF 		bl	HAL_GetTick
 513              	.LVL19:
 514              		.loc 1 380 24 view .LVU116
 515 0008 0546     		mov	r5, r0
 516              	.LVL20:
 381:../../Drivers/STM32N6xx_HAL_Driver/Src/stm32n6xx_hal.c ****   uint32_t wait = Delay;
 517              		.loc 1 381 3 is_stmt 1 view .LVU117
 382:../../Drivers/STM32N6xx_HAL_Driver/Src/stm32n6xx_hal.c **** 
 383:../../Drivers/STM32N6xx_HAL_Driver/Src/stm32n6xx_hal.c ****   /* Add a freq to guarantee minimum wait */
 384:../../Drivers/STM32N6xx_HAL_Driver/Src/stm32n6xx_hal.c ****   if (wait < HAL_MAX_DELAY)
 518              		.loc 1 384 3 view .LVU118
 519              		.loc 1 384 6 is_stmt 0 view .LVU119
 520 000a B4F1FF3F 		cmp	r4, #-1
 521 000e 02D0     		beq	.L46
 385:../../Drivers/STM32N6xx_HAL_Driver/Src/stm32n6xx_hal.c ****   {
 386:../../Drivers/STM32N6xx_HAL_Driver/Src/stm32n6xx_hal.c ****     wait += (uint32_t)(uwTickFreq);
 522              		.loc 1 386 5 is_stmt 1 view .LVU120
 523              		.loc 1 386 13 is_stmt 0 view .LVU121
 524 0010 044B     		ldr	r3, .L48
 525 0012 1B78     		ldrb	r3, [r3]	@ zero_extendqisi2
 526              		.loc 1 386 10 view .LVU122
 527 0014 1C44     		add	r4, r4, r3
 528              	.LVL21:
 529              	.L46:
ARM GAS  C:\Users\SMART\AppData\Local\Temp\ccwDMaLv.s 			page 18


 387:../../Drivers/STM32N6xx_HAL_Driver/Src/stm32n6xx_hal.c ****   }
 388:../../Drivers/STM32N6xx_HAL_Driver/Src/stm32n6xx_hal.c **** 
 389:../../Drivers/STM32N6xx_HAL_Driver/Src/stm32n6xx_hal.c ****   while ((HAL_GetTick() - tickstart) < wait)
 390:../../Drivers/STM32N6xx_HAL_Driver/Src/stm32n6xx_hal.c ****   {
 391:../../Drivers/STM32N6xx_HAL_Driver/Src/stm32n6xx_hal.c ****   }
 530              		.loc 1 391 3 is_stmt 1 view .LVU123
 389:../../Drivers/STM32N6xx_HAL_Driver/Src/stm32n6xx_hal.c ****   {
 531              		.loc 1 389 38 discriminator 1 view .LVU124
 389:../../Drivers/STM32N6xx_HAL_Driver/Src/stm32n6xx_hal.c ****   {
 532              		.loc 1 389 11 is_stmt 0 discriminator 1 view .LVU125
 533 0016 FFF7FEFF 		bl	HAL_GetTick
 534              	.LVL22:
 389:../../Drivers/STM32N6xx_HAL_Driver/Src/stm32n6xx_hal.c ****   {
 535              		.loc 1 389 25 discriminator 1 view .LVU126
 536 001a 401B     		subs	r0, r0, r5
 389:../../Drivers/STM32N6xx_HAL_Driver/Src/stm32n6xx_hal.c ****   {
 537              		.loc 1 389 38 discriminator 1 view .LVU127
 538 001c A042     		cmp	r0, r4
 539 001e FAD3     		bcc	.L46
 392:../../Drivers/STM32N6xx_HAL_Driver/Src/stm32n6xx_hal.c **** }
 540              		.loc 1 392 1 view .LVU128
 541 0020 38BD     		pop	{r3, r4, r5, pc}
 542              	.LVL23:
 543              	.L49:
 544              		.loc 1 392 1 view .LVU129
 545 0022 00BF     		.align	2
 546              	.L48:
 547 0024 00000000 		.word	uwTickFreq
 548              		.cfi_endproc
 549              	.LFE872:
 551              		.section	.text.HAL_SuspendTick,"ax",%progbits
 552              		.align	1
 553              		.weak	HAL_SuspendTick
 554              		.syntax unified
 555              		.thumb
 556              		.thumb_func
 558              	HAL_SuspendTick:
 559              	.LFB873:
 393:../../Drivers/STM32N6xx_HAL_Driver/Src/stm32n6xx_hal.c **** 
 394:../../Drivers/STM32N6xx_HAL_Driver/Src/stm32n6xx_hal.c **** /**
 395:../../Drivers/STM32N6xx_HAL_Driver/Src/stm32n6xx_hal.c ****   * @brief Suspend Tick increment.
 396:../../Drivers/STM32N6xx_HAL_Driver/Src/stm32n6xx_hal.c ****   * @note In the default implementation , SysTick timer is the source of time base. It is
 397:../../Drivers/STM32N6xx_HAL_Driver/Src/stm32n6xx_hal.c ****   *       used to generate interrupts at regular time intervals. Once HAL_SuspendTick()
 398:../../Drivers/STM32N6xx_HAL_Driver/Src/stm32n6xx_hal.c ****   *       is called, the SysTick interrupt will be disabled and so Tick increment
 399:../../Drivers/STM32N6xx_HAL_Driver/Src/stm32n6xx_hal.c ****   *       is suspended.
 400:../../Drivers/STM32N6xx_HAL_Driver/Src/stm32n6xx_hal.c ****   * @note This function is declared as __weak to be overwritten in case of other
 401:../../Drivers/STM32N6xx_HAL_Driver/Src/stm32n6xx_hal.c ****   *       implementations in user file.
 402:../../Drivers/STM32N6xx_HAL_Driver/Src/stm32n6xx_hal.c ****   * @retval None
 403:../../Drivers/STM32N6xx_HAL_Driver/Src/stm32n6xx_hal.c ****   */
 404:../../Drivers/STM32N6xx_HAL_Driver/Src/stm32n6xx_hal.c **** __weak void HAL_SuspendTick(void)
 405:../../Drivers/STM32N6xx_HAL_Driver/Src/stm32n6xx_hal.c **** {
 560              		.loc 1 405 1 is_stmt 1 view -0
 561              		.cfi_startproc
 562              		@ args = 0, pretend = 0, frame = 0
 563              		@ frame_needed = 0, uses_anonymous_args = 0
 564              		@ link register save eliminated.
 406:../../Drivers/STM32N6xx_HAL_Driver/Src/stm32n6xx_hal.c ****   /* Disable SysTick Interrupt */
ARM GAS  C:\Users\SMART\AppData\Local\Temp\ccwDMaLv.s 			page 19


 407:../../Drivers/STM32N6xx_HAL_Driver/Src/stm32n6xx_hal.c ****   SysTick->CTRL &= ~SysTick_CTRL_TICKINT_Msk;
 565              		.loc 1 407 3 view .LVU131
 566              		.loc 1 407 10 is_stmt 0 view .LVU132
 567 0000 4FF0E022 		mov	r2, #-536813568
 568 0004 1369     		ldr	r3, [r2, #16]
 569              		.loc 1 407 17 view .LVU133
 570 0006 23F00203 		bic	r3, r3, #2
 571 000a 1361     		str	r3, [r2, #16]
 408:../../Drivers/STM32N6xx_HAL_Driver/Src/stm32n6xx_hal.c **** }
 572              		.loc 1 408 1 view .LVU134
 573 000c 7047     		bx	lr
 574              		.cfi_endproc
 575              	.LFE873:
 577              		.section	.text.HAL_ResumeTick,"ax",%progbits
 578              		.align	1
 579              		.weak	HAL_ResumeTick
 580              		.syntax unified
 581              		.thumb
 582              		.thumb_func
 584              	HAL_ResumeTick:
 585              	.LFB874:
 409:../../Drivers/STM32N6xx_HAL_Driver/Src/stm32n6xx_hal.c **** 
 410:../../Drivers/STM32N6xx_HAL_Driver/Src/stm32n6xx_hal.c **** /**
 411:../../Drivers/STM32N6xx_HAL_Driver/Src/stm32n6xx_hal.c ****   * @brief Resume Tick increment.
 412:../../Drivers/STM32N6xx_HAL_Driver/Src/stm32n6xx_hal.c ****   * @note In the default implementation , SysTick timer is the source of time base. It is
 413:../../Drivers/STM32N6xx_HAL_Driver/Src/stm32n6xx_hal.c ****   *       used to generate interrupts at regular time intervals. Once HAL_ResumeTick()
 414:../../Drivers/STM32N6xx_HAL_Driver/Src/stm32n6xx_hal.c ****   *       is called, the SysTick interrupt will be enabled and so Tick increment
 415:../../Drivers/STM32N6xx_HAL_Driver/Src/stm32n6xx_hal.c ****   *       is resumed.
 416:../../Drivers/STM32N6xx_HAL_Driver/Src/stm32n6xx_hal.c ****   * @note This function is declared as __weak to be overwritten in case of other
 417:../../Drivers/STM32N6xx_HAL_Driver/Src/stm32n6xx_hal.c ****   *       implementations in user file.
 418:../../Drivers/STM32N6xx_HAL_Driver/Src/stm32n6xx_hal.c ****   * @retval None
 419:../../Drivers/STM32N6xx_HAL_Driver/Src/stm32n6xx_hal.c ****   */
 420:../../Drivers/STM32N6xx_HAL_Driver/Src/stm32n6xx_hal.c **** __weak void HAL_ResumeTick(void)
 421:../../Drivers/STM32N6xx_HAL_Driver/Src/stm32n6xx_hal.c **** {
 586              		.loc 1 421 1 is_stmt 1 view -0
 587              		.cfi_startproc
 588              		@ args = 0, pretend = 0, frame = 0
 589              		@ frame_needed = 0, uses_anonymous_args = 0
 590              		@ link register save eliminated.
 422:../../Drivers/STM32N6xx_HAL_Driver/Src/stm32n6xx_hal.c ****   /* Enable SysTick Interrupt */
 423:../../Drivers/STM32N6xx_HAL_Driver/Src/stm32n6xx_hal.c ****   SysTick->CTRL  |= SysTick_CTRL_TICKINT_Msk;
 591              		.loc 1 423 3 view .LVU136
 592              		.loc 1 423 10 is_stmt 0 view .LVU137
 593 0000 4FF0E022 		mov	r2, #-536813568
 594 0004 1369     		ldr	r3, [r2, #16]
 595              		.loc 1 423 18 view .LVU138
 596 0006 43F00203 		orr	r3, r3, #2
 597 000a 1361     		str	r3, [r2, #16]
 424:../../Drivers/STM32N6xx_HAL_Driver/Src/stm32n6xx_hal.c **** }
 598              		.loc 1 424 1 view .LVU139
 599 000c 7047     		bx	lr
 600              		.cfi_endproc
 601              	.LFE874:
 603              		.section	.text.HAL_GetHalVersion,"ax",%progbits
 604              		.align	1
 605              		.global	HAL_GetHalVersion
 606              		.syntax unified
ARM GAS  C:\Users\SMART\AppData\Local\Temp\ccwDMaLv.s 			page 20


 607              		.thumb
 608              		.thumb_func
 610              	HAL_GetHalVersion:
 611              	.LFB875:
 425:../../Drivers/STM32N6xx_HAL_Driver/Src/stm32n6xx_hal.c **** 
 426:../../Drivers/STM32N6xx_HAL_Driver/Src/stm32n6xx_hal.c **** /**
 427:../../Drivers/STM32N6xx_HAL_Driver/Src/stm32n6xx_hal.c ****   * @brief  Returns the HAL revision
 428:../../Drivers/STM32N6xx_HAL_Driver/Src/stm32n6xx_hal.c ****   * @retval version : 0xXYZR (8bits for each decimal, R for RC)
 429:../../Drivers/STM32N6xx_HAL_Driver/Src/stm32n6xx_hal.c ****   */
 430:../../Drivers/STM32N6xx_HAL_Driver/Src/stm32n6xx_hal.c **** uint32_t HAL_GetHalVersion(void)
 431:../../Drivers/STM32N6xx_HAL_Driver/Src/stm32n6xx_hal.c **** {
 612              		.loc 1 431 1 is_stmt 1 view -0
 613              		.cfi_startproc
 614              		@ args = 0, pretend = 0, frame = 0
 615              		@ frame_needed = 0, uses_anonymous_args = 0
 616              		@ link register save eliminated.
 432:../../Drivers/STM32N6xx_HAL_Driver/Src/stm32n6xx_hal.c ****   return __STM32N6xx_HAL_VERSION;
 617              		.loc 1 432 3 view .LVU141
 433:../../Drivers/STM32N6xx_HAL_Driver/Src/stm32n6xx_hal.c **** }
 618              		.loc 1 433 1 is_stmt 0 view .LVU142
 619 0000 0048     		ldr	r0, .L53
 620 0002 7047     		bx	lr
 621              	.L54:
 622              		.align	2
 623              	.L53:
 624 0004 00000301 		.word	16973824
 625              		.cfi_endproc
 626              	.LFE875:
 628              		.section	.text.HAL_GetREVID,"ax",%progbits
 629              		.align	1
 630              		.global	HAL_GetREVID
 631              		.syntax unified
 632              		.thumb
 633              		.thumb_func
 635              	HAL_GetREVID:
 636              	.LFB876:
 434:../../Drivers/STM32N6xx_HAL_Driver/Src/stm32n6xx_hal.c **** 
 435:../../Drivers/STM32N6xx_HAL_Driver/Src/stm32n6xx_hal.c **** /**
 436:../../Drivers/STM32N6xx_HAL_Driver/Src/stm32n6xx_hal.c ****   * @brief  Returns the device revision identifier
 437:../../Drivers/STM32N6xx_HAL_Driver/Src/stm32n6xx_hal.c ****   * @note Returned Revision ID can be
 438:../../Drivers/STM32N6xx_HAL_Driver/Src/stm32n6xx_hal.c ****   *       0x00000100 for Cut1.0
 439:../../Drivers/STM32N6xx_HAL_Driver/Src/stm32n6xx_hal.c ****   *       0x00000101 for Cut1.1
 440:../../Drivers/STM32N6xx_HAL_Driver/Src/stm32n6xx_hal.c ****   *       0x00000200 for Cut2.0
 441:../../Drivers/STM32N6xx_HAL_Driver/Src/stm32n6xx_hal.c ****   * @retval Device revision identifier
 442:../../Drivers/STM32N6xx_HAL_Driver/Src/stm32n6xx_hal.c ****   */
 443:../../Drivers/STM32N6xx_HAL_Driver/Src/stm32n6xx_hal.c **** uint32_t HAL_GetREVID(void)
 444:../../Drivers/STM32N6xx_HAL_Driver/Src/stm32n6xx_hal.c **** {
 637              		.loc 1 444 1 is_stmt 1 view -0
 638              		.cfi_startproc
 639              		@ args = 0, pretend = 0, frame = 0
 640              		@ frame_needed = 0, uses_anonymous_args = 0
 641              		@ link register save eliminated.
 445:../../Drivers/STM32N6xx_HAL_Driver/Src/stm32n6xx_hal.c ****   return *(uint32_t *)(REVID_BASE);
 642              		.loc 1 445 3 view .LVU144
 446:../../Drivers/STM32N6xx_HAL_Driver/Src/stm32n6xx_hal.c **** }
 643              		.loc 1 446 1 is_stmt 0 view .LVU145
 644 0000 014B     		ldr	r3, .L56
ARM GAS  C:\Users\SMART\AppData\Local\Temp\ccwDMaLv.s 			page 21


 645 0002 5868     		ldr	r0, [r3, #4]
 646 0004 7047     		bx	lr
 647              	.L57:
 648 0006 00BF     		.align	2
 649              	.L56:
 650 0008 00100018 		.word	402657280
 651              		.cfi_endproc
 652              	.LFE876:
 654              		.section	.text.HAL_GetDEVID,"ax",%progbits
 655              		.align	1
 656              		.global	HAL_GetDEVID
 657              		.syntax unified
 658              		.thumb
 659              		.thumb_func
 661              	HAL_GetDEVID:
 662              	.LFB877:
 447:../../Drivers/STM32N6xx_HAL_Driver/Src/stm32n6xx_hal.c **** 
 448:../../Drivers/STM32N6xx_HAL_Driver/Src/stm32n6xx_hal.c **** #if defined(CPU_IN_SECURE_STATE)
 449:../../Drivers/STM32N6xx_HAL_Driver/Src/stm32n6xx_hal.c **** /**
 450:../../Drivers/STM32N6xx_HAL_Driver/Src/stm32n6xx_hal.c ****   * @brief  Returns the device identifier
 451:../../Drivers/STM32N6xx_HAL_Driver/Src/stm32n6xx_hal.c ****   * @note This function can only be used if the HAL BSEC module is enabled in the hal configuration
 452:../../Drivers/STM32N6xx_HAL_Driver/Src/stm32n6xx_hal.c ****   *       The BSEC clock must be enabled before calling this function
 453:../../Drivers/STM32N6xx_HAL_Driver/Src/stm32n6xx_hal.c ****   *       Returned Device ID can be
 454:../../Drivers/STM32N6xx_HAL_Driver/Src/stm32n6xx_hal.c ****   *       0x00006200 for STM32N645xx
 455:../../Drivers/STM32N6xx_HAL_Driver/Src/stm32n6xx_hal.c ****   *       0x00006000 for STM32N655xx
 456:../../Drivers/STM32N6xx_HAL_Driver/Src/stm32n6xx_hal.c ****   *       0x00002200 for STM32N647xx
 457:../../Drivers/STM32N6xx_HAL_Driver/Src/stm32n6xx_hal.c ****   *       0x00002000 for STM32N657xx
 458:../../Drivers/STM32N6xx_HAL_Driver/Src/stm32n6xx_hal.c ****   *       0xFFFFFFFF if an error occurs
 459:../../Drivers/STM32N6xx_HAL_Driver/Src/stm32n6xx_hal.c ****   * @retval Device identifier
 460:../../Drivers/STM32N6xx_HAL_Driver/Src/stm32n6xx_hal.c ****   */
 461:../../Drivers/STM32N6xx_HAL_Driver/Src/stm32n6xx_hal.c **** uint32_t HAL_GetDEVID(void)
 462:../../Drivers/STM32N6xx_HAL_Driver/Src/stm32n6xx_hal.c **** {
 663              		.loc 1 462 1 is_stmt 1 view -0
 664              		.cfi_startproc
 665              		@ args = 0, pretend = 0, frame = 0
 666              		@ frame_needed = 0, uses_anonymous_args = 0
 667              		@ link register save eliminated.
 463:../../Drivers/STM32N6xx_HAL_Driver/Src/stm32n6xx_hal.c **** #if defined(HAL_BSEC_MODULE_ENABLED)
 464:../../Drivers/STM32N6xx_HAL_Driver/Src/stm32n6xx_hal.c **** #define BSEC_FUSE_ADDRESS               9U
 465:../../Drivers/STM32N6xx_HAL_Driver/Src/stm32n6xx_hal.c ****   uint32_t data;
 466:../../Drivers/STM32N6xx_HAL_Driver/Src/stm32n6xx_hal.c ****   if(__HAL_RCC_BSEC_IS_CLK_ENABLED() == 0UL){
 467:../../Drivers/STM32N6xx_HAL_Driver/Src/stm32n6xx_hal.c ****     data = 0xFFFFFFFFU;
 468:../../Drivers/STM32N6xx_HAL_Driver/Src/stm32n6xx_hal.c ****   }
 469:../../Drivers/STM32N6xx_HAL_Driver/Src/stm32n6xx_hal.c ****   else
 470:../../Drivers/STM32N6xx_HAL_Driver/Src/stm32n6xx_hal.c ****   {
 471:../../Drivers/STM32N6xx_HAL_Driver/Src/stm32n6xx_hal.c ****     BSEC_HandleTypeDef sBsecHandler = {0};
 472:../../Drivers/STM32N6xx_HAL_Driver/Src/stm32n6xx_hal.c ****     sBsecHandler.Instance = BSEC;
 473:../../Drivers/STM32N6xx_HAL_Driver/Src/stm32n6xx_hal.c **** 
 474:../../Drivers/STM32N6xx_HAL_Driver/Src/stm32n6xx_hal.c ****     if(HAL_BSEC_OTP_Read(&sBsecHandler, BSEC_FUSE_ADDRESS, &data) != HAL_OK){
 475:../../Drivers/STM32N6xx_HAL_Driver/Src/stm32n6xx_hal.c ****       data = 0xFFFFFFFFU;
 476:../../Drivers/STM32N6xx_HAL_Driver/Src/stm32n6xx_hal.c ****     }
 477:../../Drivers/STM32N6xx_HAL_Driver/Src/stm32n6xx_hal.c ****   }
 478:../../Drivers/STM32N6xx_HAL_Driver/Src/stm32n6xx_hal.c ****   return data;
 479:../../Drivers/STM32N6xx_HAL_Driver/Src/stm32n6xx_hal.c **** #else
 480:../../Drivers/STM32N6xx_HAL_Driver/Src/stm32n6xx_hal.c ****   return 0xFFFFFFFFU;
 668              		.loc 1 480 3 view .LVU147
 481:../../Drivers/STM32N6xx_HAL_Driver/Src/stm32n6xx_hal.c **** #endif /* HAL_BSEC_MODULE_ENABLED */
ARM GAS  C:\Users\SMART\AppData\Local\Temp\ccwDMaLv.s 			page 22


 482:../../Drivers/STM32N6xx_HAL_Driver/Src/stm32n6xx_hal.c **** }
 669              		.loc 1 482 1 is_stmt 0 view .LVU148
 670 0000 4FF0FF30 		mov	r0, #-1
 671 0004 7047     		bx	lr
 672              		.cfi_endproc
 673              	.LFE877:
 675              		.section	.text.HAL_GetUIDw0,"ax",%progbits
 676              		.align	1
 677              		.global	HAL_GetUIDw0
 678              		.syntax unified
 679              		.thumb
 680              		.thumb_func
 682              	HAL_GetUIDw0:
 683              	.LFB878:
 483:../../Drivers/STM32N6xx_HAL_Driver/Src/stm32n6xx_hal.c **** #endif /* CPU_IN_SECURE_STATE */
 484:../../Drivers/STM32N6xx_HAL_Driver/Src/stm32n6xx_hal.c **** 
 485:../../Drivers/STM32N6xx_HAL_Driver/Src/stm32n6xx_hal.c **** /**
 486:../../Drivers/STM32N6xx_HAL_Driver/Src/stm32n6xx_hal.c ****   * @brief  Return the first word of the unique device identifier (UID based on 96 bits)
 487:../../Drivers/STM32N6xx_HAL_Driver/Src/stm32n6xx_hal.c ****   * @note   The application must ensures that SYSCFG clock is enabled.
 488:../../Drivers/STM32N6xx_HAL_Driver/Src/stm32n6xx_hal.c ****   * @retval Device identifier
 489:../../Drivers/STM32N6xx_HAL_Driver/Src/stm32n6xx_hal.c ****   */
 490:../../Drivers/STM32N6xx_HAL_Driver/Src/stm32n6xx_hal.c **** uint32_t HAL_GetUIDw0(void)
 491:../../Drivers/STM32N6xx_HAL_Driver/Src/stm32n6xx_hal.c **** {
 684              		.loc 1 491 1 is_stmt 1 view -0
 685              		.cfi_startproc
 686              		@ args = 0, pretend = 0, frame = 0
 687              		@ frame_needed = 0, uses_anonymous_args = 0
 688              		@ link register save eliminated.
 492:../../Drivers/STM32N6xx_HAL_Driver/Src/stm32n6xx_hal.c ****   return (READ_REG(*((uint32_t *)UID_BASE)));
 689              		.loc 1 492 3 view .LVU150
 493:../../Drivers/STM32N6xx_HAL_Driver/Src/stm32n6xx_hal.c **** }
 690              		.loc 1 493 1 is_stmt 0 view .LVU151
 691 0000 014B     		ldr	r3, .L60
 692 0002 5869     		ldr	r0, [r3, #20]
 693 0004 7047     		bx	lr
 694              	.L61:
 695 0006 00BF     		.align	2
 696              	.L60:
 697 0008 00900056 		.word	1442877440
 698              		.cfi_endproc
 699              	.LFE878:
 701              		.section	.text.HAL_GetUIDw1,"ax",%progbits
 702              		.align	1
 703              		.global	HAL_GetUIDw1
 704              		.syntax unified
 705              		.thumb
 706              		.thumb_func
 708              	HAL_GetUIDw1:
 709              	.LFB879:
 494:../../Drivers/STM32N6xx_HAL_Driver/Src/stm32n6xx_hal.c **** 
 495:../../Drivers/STM32N6xx_HAL_Driver/Src/stm32n6xx_hal.c **** /**
 496:../../Drivers/STM32N6xx_HAL_Driver/Src/stm32n6xx_hal.c ****   * @brief  Return the second word of the unique device identifier (UID based on 96 bits)
 497:../../Drivers/STM32N6xx_HAL_Driver/Src/stm32n6xx_hal.c ****   * @note   The application must ensures that SYSCFG clock is enabled.
 498:../../Drivers/STM32N6xx_HAL_Driver/Src/stm32n6xx_hal.c ****   * @retval Device identifier
 499:../../Drivers/STM32N6xx_HAL_Driver/Src/stm32n6xx_hal.c ****   */
 500:../../Drivers/STM32N6xx_HAL_Driver/Src/stm32n6xx_hal.c **** uint32_t HAL_GetUIDw1(void)
 501:../../Drivers/STM32N6xx_HAL_Driver/Src/stm32n6xx_hal.c **** {
ARM GAS  C:\Users\SMART\AppData\Local\Temp\ccwDMaLv.s 			page 23


 710              		.loc 1 501 1 is_stmt 1 view -0
 711              		.cfi_startproc
 712              		@ args = 0, pretend = 0, frame = 0
 713              		@ frame_needed = 0, uses_anonymous_args = 0
 714              		@ link register save eliminated.
 502:../../Drivers/STM32N6xx_HAL_Driver/Src/stm32n6xx_hal.c ****   return (READ_REG(*((uint32_t *)(UID_BASE + 4U))));
 715              		.loc 1 502 3 view .LVU153
 503:../../Drivers/STM32N6xx_HAL_Driver/Src/stm32n6xx_hal.c **** }
 716              		.loc 1 503 1 is_stmt 0 view .LVU154
 717 0000 014B     		ldr	r3, .L63
 718 0002 9869     		ldr	r0, [r3, #24]
 719 0004 7047     		bx	lr
 720              	.L64:
 721 0006 00BF     		.align	2
 722              	.L63:
 723 0008 00900056 		.word	1442877440
 724              		.cfi_endproc
 725              	.LFE879:
 727              		.section	.text.HAL_GetUIDw2,"ax",%progbits
 728              		.align	1
 729              		.global	HAL_GetUIDw2
 730              		.syntax unified
 731              		.thumb
 732              		.thumb_func
 734              	HAL_GetUIDw2:
 735              	.LFB880:
 504:../../Drivers/STM32N6xx_HAL_Driver/Src/stm32n6xx_hal.c **** 
 505:../../Drivers/STM32N6xx_HAL_Driver/Src/stm32n6xx_hal.c **** /**
 506:../../Drivers/STM32N6xx_HAL_Driver/Src/stm32n6xx_hal.c ****   * @brief  Return the third word of the unique device identifier (UID based on 96 bits)
 507:../../Drivers/STM32N6xx_HAL_Driver/Src/stm32n6xx_hal.c ****   * @note   The application must ensures that SYSCFG clock is enabled.
 508:../../Drivers/STM32N6xx_HAL_Driver/Src/stm32n6xx_hal.c ****   * @retval Device identifier
 509:../../Drivers/STM32N6xx_HAL_Driver/Src/stm32n6xx_hal.c ****   */
 510:../../Drivers/STM32N6xx_HAL_Driver/Src/stm32n6xx_hal.c **** uint32_t HAL_GetUIDw2(void)
 511:../../Drivers/STM32N6xx_HAL_Driver/Src/stm32n6xx_hal.c **** {
 736              		.loc 1 511 1 is_stmt 1 view -0
 737              		.cfi_startproc
 738              		@ args = 0, pretend = 0, frame = 0
 739              		@ frame_needed = 0, uses_anonymous_args = 0
 740              		@ link register save eliminated.
 512:../../Drivers/STM32N6xx_HAL_Driver/Src/stm32n6xx_hal.c ****   return (READ_REG(*((uint32_t *)(UID_BASE + 8U))));
 741              		.loc 1 512 3 view .LVU156
 513:../../Drivers/STM32N6xx_HAL_Driver/Src/stm32n6xx_hal.c **** }
 742              		.loc 1 513 1 is_stmt 0 view .LVU157
 743 0000 014B     		ldr	r3, .L66
 744 0002 D869     		ldr	r0, [r3, #28]
 745 0004 7047     		bx	lr
 746              	.L67:
 747 0006 00BF     		.align	2
 748              	.L66:
 749 0008 00900056 		.word	1442877440
 750              		.cfi_endproc
 751              	.LFE880:
 753              		.section	.text.HAL_DBGMCU_EnableDBGSleepMode,"ax",%progbits
 754              		.align	1
 755              		.global	HAL_DBGMCU_EnableDBGSleepMode
 756              		.syntax unified
 757              		.thumb
ARM GAS  C:\Users\SMART\AppData\Local\Temp\ccwDMaLv.s 			page 24


 758              		.thumb_func
 760              	HAL_DBGMCU_EnableDBGSleepMode:
 761              	.LFB881:
 514:../../Drivers/STM32N6xx_HAL_Driver/Src/stm32n6xx_hal.c **** 
 515:../../Drivers/STM32N6xx_HAL_Driver/Src/stm32n6xx_hal.c **** /**
 516:../../Drivers/STM32N6xx_HAL_Driver/Src/stm32n6xx_hal.c ****   * @}
 517:../../Drivers/STM32N6xx_HAL_Driver/Src/stm32n6xx_hal.c ****   */
 518:../../Drivers/STM32N6xx_HAL_Driver/Src/stm32n6xx_hal.c **** 
 519:../../Drivers/STM32N6xx_HAL_Driver/Src/stm32n6xx_hal.c **** /** @defgroup HAL_Exported_Functions_Group3 HAL Debug functions
 520:../../Drivers/STM32N6xx_HAL_Driver/Src/stm32n6xx_hal.c ****   *  @brief    HAL Debug functions
 521:../../Drivers/STM32N6xx_HAL_Driver/Src/stm32n6xx_hal.c ****   *
 522:../../Drivers/STM32N6xx_HAL_Driver/Src/stm32n6xx_hal.c **** @verbatim
 523:../../Drivers/STM32N6xx_HAL_Driver/Src/stm32n6xx_hal.c ****  ===============================================================================
 524:../../Drivers/STM32N6xx_HAL_Driver/Src/stm32n6xx_hal.c ****                       ##### HAL Debug functions #####
 525:../../Drivers/STM32N6xx_HAL_Driver/Src/stm32n6xx_hal.c ****  ===============================================================================
 526:../../Drivers/STM32N6xx_HAL_Driver/Src/stm32n6xx_hal.c ****     [..]  This section provides functions allowing to:
 527:../../Drivers/STM32N6xx_HAL_Driver/Src/stm32n6xx_hal.c ****       (+) Enable/Disable Debug module during Sleep mode
 528:../../Drivers/STM32N6xx_HAL_Driver/Src/stm32n6xx_hal.c ****       (+) Enable/Disable Debug module during Stop modes
 529:../../Drivers/STM32N6xx_HAL_Driver/Src/stm32n6xx_hal.c ****       (+) Enable/Disable Debug module during Stanby mode
 530:../../Drivers/STM32N6xx_HAL_Driver/Src/stm32n6xx_hal.c **** 
 531:../../Drivers/STM32N6xx_HAL_Driver/Src/stm32n6xx_hal.c **** @endverbatim
 532:../../Drivers/STM32N6xx_HAL_Driver/Src/stm32n6xx_hal.c ****   * @{
 533:../../Drivers/STM32N6xx_HAL_Driver/Src/stm32n6xx_hal.c ****   */
 534:../../Drivers/STM32N6xx_HAL_Driver/Src/stm32n6xx_hal.c **** 
 535:../../Drivers/STM32N6xx_HAL_Driver/Src/stm32n6xx_hal.c **** /**
 536:../../Drivers/STM32N6xx_HAL_Driver/Src/stm32n6xx_hal.c ****   * @brief  Enable the Debug Module during Sleep mode.
 537:../../Drivers/STM32N6xx_HAL_Driver/Src/stm32n6xx_hal.c ****   * @retval None
 538:../../Drivers/STM32N6xx_HAL_Driver/Src/stm32n6xx_hal.c ****   */
 539:../../Drivers/STM32N6xx_HAL_Driver/Src/stm32n6xx_hal.c **** void HAL_DBGMCU_EnableDBGSleepMode(void)
 540:../../Drivers/STM32N6xx_HAL_Driver/Src/stm32n6xx_hal.c **** {
 762              		.loc 1 540 1 is_stmt 1 view -0
 763              		.cfi_startproc
 764              		@ args = 0, pretend = 0, frame = 0
 765              		@ frame_needed = 0, uses_anonymous_args = 0
 766              		@ link register save eliminated.
 541:../../Drivers/STM32N6xx_HAL_Driver/Src/stm32n6xx_hal.c ****   SET_BIT(DBGMCU->CR, DBGMCU_CR_DBG_SLEEP);
 767              		.loc 1 541 3 view .LVU159
 768 0000 024A     		ldr	r2, .L69
 769 0002 5368     		ldr	r3, [r2, #4]
 770 0004 43F00103 		orr	r3, r3, #1
 771 0008 5360     		str	r3, [r2, #4]
 542:../../Drivers/STM32N6xx_HAL_Driver/Src/stm32n6xx_hal.c **** }
 772              		.loc 1 542 1 is_stmt 0 view .LVU160
 773 000a 7047     		bx	lr
 774              	.L70:
 775              		.align	2
 776              	.L69:
 777 000c 00100054 		.word	1409290240
 778              		.cfi_endproc
 779              	.LFE881:
 781              		.section	.text.HAL_DBGMCU_DisableDBGSleepMode,"ax",%progbits
 782              		.align	1
 783              		.global	HAL_DBGMCU_DisableDBGSleepMode
 784              		.syntax unified
 785              		.thumb
 786              		.thumb_func
 788              	HAL_DBGMCU_DisableDBGSleepMode:
ARM GAS  C:\Users\SMART\AppData\Local\Temp\ccwDMaLv.s 			page 25


 789              	.LFB882:
 543:../../Drivers/STM32N6xx_HAL_Driver/Src/stm32n6xx_hal.c **** 
 544:../../Drivers/STM32N6xx_HAL_Driver/Src/stm32n6xx_hal.c **** /**
 545:../../Drivers/STM32N6xx_HAL_Driver/Src/stm32n6xx_hal.c ****   * @brief  Disable the Debug Module during Sleep mode.
 546:../../Drivers/STM32N6xx_HAL_Driver/Src/stm32n6xx_hal.c ****   * @retval None
 547:../../Drivers/STM32N6xx_HAL_Driver/Src/stm32n6xx_hal.c ****   */
 548:../../Drivers/STM32N6xx_HAL_Driver/Src/stm32n6xx_hal.c **** void HAL_DBGMCU_DisableDBGSleepMode(void)
 549:../../Drivers/STM32N6xx_HAL_Driver/Src/stm32n6xx_hal.c **** {
 790              		.loc 1 549 1 is_stmt 1 view -0
 791              		.cfi_startproc
 792              		@ args = 0, pretend = 0, frame = 0
 793              		@ frame_needed = 0, uses_anonymous_args = 0
 794              		@ link register save eliminated.
 550:../../Drivers/STM32N6xx_HAL_Driver/Src/stm32n6xx_hal.c ****   CLEAR_BIT(DBGMCU->CR, DBGMCU_CR_DBG_SLEEP);
 795              		.loc 1 550 3 view .LVU162
 796 0000 024A     		ldr	r2, .L72
 797 0002 5368     		ldr	r3, [r2, #4]
 798 0004 23F00103 		bic	r3, r3, #1
 799 0008 5360     		str	r3, [r2, #4]
 551:../../Drivers/STM32N6xx_HAL_Driver/Src/stm32n6xx_hal.c **** }
 800              		.loc 1 551 1 is_stmt 0 view .LVU163
 801 000a 7047     		bx	lr
 802              	.L73:
 803              		.align	2
 804              	.L72:
 805 000c 00100054 		.word	1409290240
 806              		.cfi_endproc
 807              	.LFE882:
 809              		.section	.text.HAL_DBGMCU_EnableDBGStopMode,"ax",%progbits
 810              		.align	1
 811              		.global	HAL_DBGMCU_EnableDBGStopMode
 812              		.syntax unified
 813              		.thumb
 814              		.thumb_func
 816              	HAL_DBGMCU_EnableDBGStopMode:
 817              	.LFB883:
 552:../../Drivers/STM32N6xx_HAL_Driver/Src/stm32n6xx_hal.c **** 
 553:../../Drivers/STM32N6xx_HAL_Driver/Src/stm32n6xx_hal.c **** /**
 554:../../Drivers/STM32N6xx_HAL_Driver/Src/stm32n6xx_hal.c ****   * @brief  Enable the Debug Module during Stop mode.
 555:../../Drivers/STM32N6xx_HAL_Driver/Src/stm32n6xx_hal.c ****   * @retval None
 556:../../Drivers/STM32N6xx_HAL_Driver/Src/stm32n6xx_hal.c ****   */
 557:../../Drivers/STM32N6xx_HAL_Driver/Src/stm32n6xx_hal.c **** void HAL_DBGMCU_EnableDBGStopMode(void)
 558:../../Drivers/STM32N6xx_HAL_Driver/Src/stm32n6xx_hal.c **** {
 818              		.loc 1 558 1 is_stmt 1 view -0
 819              		.cfi_startproc
 820              		@ args = 0, pretend = 0, frame = 0
 821              		@ frame_needed = 0, uses_anonymous_args = 0
 822              		@ link register save eliminated.
 559:../../Drivers/STM32N6xx_HAL_Driver/Src/stm32n6xx_hal.c ****   SET_BIT(DBGMCU->CR, DBGMCU_CR_DBG_STOP);
 823              		.loc 1 559 3 view .LVU165
 824 0000 024A     		ldr	r2, .L75
 825 0002 5368     		ldr	r3, [r2, #4]
 826 0004 43F00203 		orr	r3, r3, #2
 827 0008 5360     		str	r3, [r2, #4]
 560:../../Drivers/STM32N6xx_HAL_Driver/Src/stm32n6xx_hal.c **** }
 828              		.loc 1 560 1 is_stmt 0 view .LVU166
 829 000a 7047     		bx	lr
ARM GAS  C:\Users\SMART\AppData\Local\Temp\ccwDMaLv.s 			page 26


 830              	.L76:
 831              		.align	2
 832              	.L75:
 833 000c 00100054 		.word	1409290240
 834              		.cfi_endproc
 835              	.LFE883:
 837              		.section	.text.HAL_DBGMCU_DisableDBGStopMode,"ax",%progbits
 838              		.align	1
 839              		.global	HAL_DBGMCU_DisableDBGStopMode
 840              		.syntax unified
 841              		.thumb
 842              		.thumb_func
 844              	HAL_DBGMCU_DisableDBGStopMode:
 845              	.LFB884:
 561:../../Drivers/STM32N6xx_HAL_Driver/Src/stm32n6xx_hal.c **** 
 562:../../Drivers/STM32N6xx_HAL_Driver/Src/stm32n6xx_hal.c **** /**
 563:../../Drivers/STM32N6xx_HAL_Driver/Src/stm32n6xx_hal.c ****   * @brief  Disable the Debug Module during Stop mode.
 564:../../Drivers/STM32N6xx_HAL_Driver/Src/stm32n6xx_hal.c ****   * @retval None
 565:../../Drivers/STM32N6xx_HAL_Driver/Src/stm32n6xx_hal.c ****   */
 566:../../Drivers/STM32N6xx_HAL_Driver/Src/stm32n6xx_hal.c **** void HAL_DBGMCU_DisableDBGStopMode(void)
 567:../../Drivers/STM32N6xx_HAL_Driver/Src/stm32n6xx_hal.c **** {
 846              		.loc 1 567 1 is_stmt 1 view -0
 847              		.cfi_startproc
 848              		@ args = 0, pretend = 0, frame = 0
 849              		@ frame_needed = 0, uses_anonymous_args = 0
 850              		@ link register save eliminated.
 568:../../Drivers/STM32N6xx_HAL_Driver/Src/stm32n6xx_hal.c ****   CLEAR_BIT(DBGMCU->CR, DBGMCU_CR_DBG_STOP);
 851              		.loc 1 568 3 view .LVU168
 852 0000 024A     		ldr	r2, .L78
 853 0002 5368     		ldr	r3, [r2, #4]
 854 0004 23F00203 		bic	r3, r3, #2
 855 0008 5360     		str	r3, [r2, #4]
 569:../../Drivers/STM32N6xx_HAL_Driver/Src/stm32n6xx_hal.c **** }
 856              		.loc 1 569 1 is_stmt 0 view .LVU169
 857 000a 7047     		bx	lr
 858              	.L79:
 859              		.align	2
 860              	.L78:
 861 000c 00100054 		.word	1409290240
 862              		.cfi_endproc
 863              	.LFE884:
 865              		.section	.text.HAL_DBGMCU_EnableDBGStandbyMode,"ax",%progbits
 866              		.align	1
 867              		.global	HAL_DBGMCU_EnableDBGStandbyMode
 868              		.syntax unified
 869              		.thumb
 870              		.thumb_func
 872              	HAL_DBGMCU_EnableDBGStandbyMode:
 873              	.LFB885:
 570:../../Drivers/STM32N6xx_HAL_Driver/Src/stm32n6xx_hal.c **** 
 571:../../Drivers/STM32N6xx_HAL_Driver/Src/stm32n6xx_hal.c **** /**
 572:../../Drivers/STM32N6xx_HAL_Driver/Src/stm32n6xx_hal.c ****   * @brief  Enable the Debug Module during Stanby mode.
 573:../../Drivers/STM32N6xx_HAL_Driver/Src/stm32n6xx_hal.c ****   * @retval None
 574:../../Drivers/STM32N6xx_HAL_Driver/Src/stm32n6xx_hal.c ****   */
 575:../../Drivers/STM32N6xx_HAL_Driver/Src/stm32n6xx_hal.c **** void HAL_DBGMCU_EnableDBGStandbyMode(void)
 576:../../Drivers/STM32N6xx_HAL_Driver/Src/stm32n6xx_hal.c **** {
 874              		.loc 1 576 1 is_stmt 1 view -0
ARM GAS  C:\Users\SMART\AppData\Local\Temp\ccwDMaLv.s 			page 27


 875              		.cfi_startproc
 876              		@ args = 0, pretend = 0, frame = 0
 877              		@ frame_needed = 0, uses_anonymous_args = 0
 878              		@ link register save eliminated.
 577:../../Drivers/STM32N6xx_HAL_Driver/Src/stm32n6xx_hal.c ****   SET_BIT(DBGMCU->CR, DBGMCU_CR_DBG_STANDBY);
 879              		.loc 1 577 3 view .LVU171
 880 0000 024A     		ldr	r2, .L81
 881 0002 5368     		ldr	r3, [r2, #4]
 882 0004 43F00403 		orr	r3, r3, #4
 883 0008 5360     		str	r3, [r2, #4]
 578:../../Drivers/STM32N6xx_HAL_Driver/Src/stm32n6xx_hal.c **** }
 884              		.loc 1 578 1 is_stmt 0 view .LVU172
 885 000a 7047     		bx	lr
 886              	.L82:
 887              		.align	2
 888              	.L81:
 889 000c 00100054 		.word	1409290240
 890              		.cfi_endproc
 891              	.LFE885:
 893              		.section	.text.HAL_DBGMCU_DisableDBGStandbyMode,"ax",%progbits
 894              		.align	1
 895              		.global	HAL_DBGMCU_DisableDBGStandbyMode
 896              		.syntax unified
 897              		.thumb
 898              		.thumb_func
 900              	HAL_DBGMCU_DisableDBGStandbyMode:
 901              	.LFB886:
 579:../../Drivers/STM32N6xx_HAL_Driver/Src/stm32n6xx_hal.c **** 
 580:../../Drivers/STM32N6xx_HAL_Driver/Src/stm32n6xx_hal.c **** /**
 581:../../Drivers/STM32N6xx_HAL_Driver/Src/stm32n6xx_hal.c ****   * @brief  Disable the Debug Module during Stanby mode.
 582:../../Drivers/STM32N6xx_HAL_Driver/Src/stm32n6xx_hal.c ****   * @retval None
 583:../../Drivers/STM32N6xx_HAL_Driver/Src/stm32n6xx_hal.c ****   */
 584:../../Drivers/STM32N6xx_HAL_Driver/Src/stm32n6xx_hal.c **** void HAL_DBGMCU_DisableDBGStandbyMode(void)
 585:../../Drivers/STM32N6xx_HAL_Driver/Src/stm32n6xx_hal.c **** {
 902              		.loc 1 585 1 is_stmt 1 view -0
 903              		.cfi_startproc
 904              		@ args = 0, pretend = 0, frame = 0
 905              		@ frame_needed = 0, uses_anonymous_args = 0
 906              		@ link register save eliminated.
 586:../../Drivers/STM32N6xx_HAL_Driver/Src/stm32n6xx_hal.c ****   CLEAR_BIT(DBGMCU->CR, DBGMCU_CR_DBG_STANDBY);
 907              		.loc 1 586 3 view .LVU174
 908 0000 024A     		ldr	r2, .L84
 909 0002 5368     		ldr	r3, [r2, #4]
 910 0004 23F00403 		bic	r3, r3, #4
 911 0008 5360     		str	r3, [r2, #4]
 587:../../Drivers/STM32N6xx_HAL_Driver/Src/stm32n6xx_hal.c **** }
 912              		.loc 1 587 1 is_stmt 0 view .LVU175
 913 000a 7047     		bx	lr
 914              	.L85:
 915              		.align	2
 916              	.L84:
 917 000c 00100054 		.word	1409290240
 918              		.cfi_endproc
 919              	.LFE886:
 921              		.section	.text.HAL_SYSCFG_EnablePullDown,"ax",%progbits
 922              		.align	1
 923              		.global	HAL_SYSCFG_EnablePullDown
ARM GAS  C:\Users\SMART\AppData\Local\Temp\ccwDMaLv.s 			page 28


 924              		.syntax unified
 925              		.thumb
 926              		.thumb_func
 928              	HAL_SYSCFG_EnablePullDown:
 929              	.LVL24:
 930              	.LFB887:
 588:../../Drivers/STM32N6xx_HAL_Driver/Src/stm32n6xx_hal.c **** 
 589:../../Drivers/STM32N6xx_HAL_Driver/Src/stm32n6xx_hal.c **** /**
 590:../../Drivers/STM32N6xx_HAL_Driver/Src/stm32n6xx_hal.c ****   * @}
 591:../../Drivers/STM32N6xx_HAL_Driver/Src/stm32n6xx_hal.c ****   */
 592:../../Drivers/STM32N6xx_HAL_Driver/Src/stm32n6xx_hal.c **** 
 593:../../Drivers/STM32N6xx_HAL_Driver/Src/stm32n6xx_hal.c **** /** @defgroup HAL_Exported_Functions_Group4 HAL SYSCFG configuration functions
 594:../../Drivers/STM32N6xx_HAL_Driver/Src/stm32n6xx_hal.c ****   *  @brief    HAL SYSCFG configuration functions
 595:../../Drivers/STM32N6xx_HAL_Driver/Src/stm32n6xx_hal.c ****   *
 596:../../Drivers/STM32N6xx_HAL_Driver/Src/stm32n6xx_hal.c **** @verbatim
 597:../../Drivers/STM32N6xx_HAL_Driver/Src/stm32n6xx_hal.c ****  ===============================================================================
 598:../../Drivers/STM32N6xx_HAL_Driver/Src/stm32n6xx_hal.c ****                       ##### HAL SYSCFG configuration functions #####
 599:../../Drivers/STM32N6xx_HAL_Driver/Src/stm32n6xx_hal.c ****  ===============================================================================
 600:../../Drivers/STM32N6xx_HAL_Driver/Src/stm32n6xx_hal.c ****     [..]  This section provides functions allowing to:
 601:../../Drivers/STM32N6xx_HAL_Driver/Src/stm32n6xx_hal.c ****       (+) Enable or disable BOOT pins pull-down.
 602:../../Drivers/STM32N6xx_HAL_Driver/Src/stm32n6xx_hal.c ****       (+) Lock and get locks status of system items.
 603:../../Drivers/STM32N6xx_HAL_Driver/Src/stm32n6xx_hal.c ****       (+) Set (and get) TCM size and DTCM size.
 604:../../Drivers/STM32N6xx_HAL_Driver/Src/stm32n6xx_hal.c ****       (+) Lock (and get) write accesses.
 605:../../Drivers/STM32N6xx_HAL_Driver/Src/stm32n6xx_hal.c ****       (+) Enable or disable wait state on extended ITCM and DTCM.
 606:../../Drivers/STM32N6xx_HAL_Driver/Src/stm32n6xx_hal.c ****       (+) Enable or disable external RW margin input for TCM memories.
 607:../../Drivers/STM32N6xx_HAL_Driver/Src/stm32n6xx_hal.c ****       (+) Set and get the TCM biasing level.
 608:../../Drivers/STM32N6xx_HAL_Driver/Src/stm32n6xx_hal.c ****       (+) Enable or disable the external RW for caches memories.
 609:../../Drivers/STM32N6xx_HAL_Driver/Src/stm32n6xx_hal.c ****       (+) Set and get the cache biasing level.
 610:../../Drivers/STM32N6xx_HAL_Driver/Src/stm32n6xx_hal.c ****       (+) Enable or disable the Power-on reset upon SW system request.
 611:../../Drivers/STM32N6xx_HAL_Driver/Src/stm32n6xx_hal.c ****       (+) Enable or disable that Lockup requests a warm reset to the RCC
 612:../../Drivers/STM32N6xx_HAL_Driver/Src/stm32n6xx_hal.c ****       (+) Enable or disable that Lockup generates a NMI on the core
 613:../../Drivers/STM32N6xx_HAL_Driver/Src/stm32n6xx_hal.c ****       (+) Clear Error capture in write posting buffer
 614:../../Drivers/STM32N6xx_HAL_Driver/Src/stm32n6xx_hal.c ****       (+) Reserve VENCRAM for VENC or release it (any use allowed)
 615:../../Drivers/STM32N6xx_HAL_Driver/Src/stm32n6xx_hal.c ****       (+) Enable or disable PKA, SAES, CRYP1/2 and HASH reset in case of potential tamper
 616:../../Drivers/STM32N6xx_HAL_Driver/Src/stm32n6xx_hal.c ****       (+) Set/Get write/read Qos for NP1, NP2 or CPU.
 617:../../Drivers/STM32N6xx_HAL_Driver/Src/stm32n6xx_hal.c ****       (+) Enable or disable SDMMC early-write response.
 618:../../Drivers/STM32N6xx_HAL_Driver/Src/stm32n6xx_hal.c ****       (+) Enable or disable USB early-write response.
 619:../../Drivers/STM32N6xx_HAL_Driver/Src/stm32n6xx_hal.c ****       (+) Enable or disable the NPU NIC, NPU NOC or CPU NOC clock gating.
 620:../../Drivers/STM32N6xx_HAL_Driver/Src/stm32n6xx_hal.c ****       (+) Enable or disable the VDDIOx compensation cell.
 621:../../Drivers/STM32N6xx_HAL_Driver/Src/stm32n6xx_hal.c ****       (+) Configure or get VDDIOx compensation cells.
 622:../../Drivers/STM32N6xx_HAL_Driver/Src/stm32n6xx_hal.c ****       (+) Get VDDIOx compensation ready status.
 623:../../Drivers/STM32N6xx_HAL_Driver/Src/stm32n6xx_hal.c ****       (+) Enable or disable the VDD compensation cell.
 624:../../Drivers/STM32N6xx_HAL_Driver/Src/stm32n6xx_hal.c ****       (+) Configure or get VDD compensation cells.
 625:../../Drivers/STM32N6xx_HAL_Driver/Src/stm32n6xx_hal.c ****       (+) Configure or get the Timer Break input for error flag
 626:../../Drivers/STM32N6xx_HAL_Driver/Src/stm32n6xx_hal.c ****       (+) Set and get secure OS allocation of specific CID to the DMA channel
 627:../../Drivers/STM32N6xx_HAL_Driver/Src/stm32n6xx_hal.c ****       (+) Set and get non-secure OS allocation of specific CID to the DMA channel
 628:../../Drivers/STM32N6xx_HAL_Driver/Src/stm32n6xx_hal.c ****       (+) Enable or disable Retiming on RX path.
 629:../../Drivers/STM32N6xx_HAL_Driver/Src/stm32n6xx_hal.c ****       (+) Enable or disable Retiming on TX path.
 630:../../Drivers/STM32N6xx_HAL_Driver/Src/stm32n6xx_hal.c ****       (+) Set and get Delay on feedback clock.
 631:../../Drivers/STM32N6xx_HAL_Driver/Src/stm32n6xx_hal.c ****       (+) Enable or disable the interleaving on NPU RAM.
 632:../../Drivers/STM32N6xx_HAL_Driver/Src/stm32n6xx_hal.c ****       (+) Get BOOT pin connection status
 633:../../Drivers/STM32N6xx_HAL_Driver/Src/stm32n6xx_hal.c ****       (+) Get the address of first error in P-AHB write-posting buffer
 634:../../Drivers/STM32N6xx_HAL_Driver/Src/stm32n6xx_hal.c **** 
 635:../../Drivers/STM32N6xx_HAL_Driver/Src/stm32n6xx_hal.c **** @endverbatim
 636:../../Drivers/STM32N6xx_HAL_Driver/Src/stm32n6xx_hal.c ****   * @{
 637:../../Drivers/STM32N6xx_HAL_Driver/Src/stm32n6xx_hal.c ****   */
 638:../../Drivers/STM32N6xx_HAL_Driver/Src/stm32n6xx_hal.c **** 
ARM GAS  C:\Users\SMART\AppData\Local\Temp\ccwDMaLv.s 			page 29


 639:../../Drivers/STM32N6xx_HAL_Driver/Src/stm32n6xx_hal.c **** /**
 640:../../Drivers/STM32N6xx_HAL_Driver/Src/stm32n6xx_hal.c ****   * @brief  Enable the Pull Down on BOOT pin.
 641:../../Drivers/STM32N6xx_HAL_Driver/Src/stm32n6xx_hal.c ****   * @param  BootId Specifies the boot pins.
 642:../../Drivers/STM32N6xx_HAL_Driver/Src/stm32n6xx_hal.c ****   *         This parameter can one of the following values:
 643:../../Drivers/STM32N6xx_HAL_Driver/Src/stm32n6xx_hal.c ****   *            @arg SYSCFG_BOOT_0 boot 0 pin
 644:../../Drivers/STM32N6xx_HAL_Driver/Src/stm32n6xx_hal.c ****   *            @arg SYSCFG_BOOT_1 boot 1 pin
 645:../../Drivers/STM32N6xx_HAL_Driver/Src/stm32n6xx_hal.c ****   * @retval None
 646:../../Drivers/STM32N6xx_HAL_Driver/Src/stm32n6xx_hal.c ****   */
 647:../../Drivers/STM32N6xx_HAL_Driver/Src/stm32n6xx_hal.c **** void HAL_SYSCFG_EnablePullDown(uint32_t BootId)
 648:../../Drivers/STM32N6xx_HAL_Driver/Src/stm32n6xx_hal.c **** {
 931              		.loc 1 648 1 is_stmt 1 view -0
 932              		.cfi_startproc
 933              		@ args = 0, pretend = 0, frame = 0
 934              		@ frame_needed = 0, uses_anonymous_args = 0
 935              		@ link register save eliminated.
 649:../../Drivers/STM32N6xx_HAL_Driver/Src/stm32n6xx_hal.c ****   /* Check the parameters */
 650:../../Drivers/STM32N6xx_HAL_Driver/Src/stm32n6xx_hal.c ****   assert_param(IS_SYSCFG_BOOT_ID(BootId));
 936              		.loc 1 650 3 view .LVU177
 651:../../Drivers/STM32N6xx_HAL_Driver/Src/stm32n6xx_hal.c **** 
 652:../../Drivers/STM32N6xx_HAL_Driver/Src/stm32n6xx_hal.c ****   SET_BIT(SYSCFG->BOOTCR, BootId);
 937              		.loc 1 652 3 view .LVU178
 938 0000 024A     		ldr	r2, .L87
 939 0002 1368     		ldr	r3, [r2]
 940 0004 0343     		orrs	r3, r3, r0
 941 0006 1360     		str	r3, [r2]
 653:../../Drivers/STM32N6xx_HAL_Driver/Src/stm32n6xx_hal.c **** }
 942              		.loc 1 653 1 is_stmt 0 view .LVU179
 943 0008 7047     		bx	lr
 944              	.L88:
 945 000a 00BF     		.align	2
 946              	.L87:
 947 000c 00800056 		.word	1442873344
 948              		.cfi_endproc
 949              	.LFE887:
 951              		.section	.text.HAL_SYSCFG_DisablePullDown,"ax",%progbits
 952              		.align	1
 953              		.global	HAL_SYSCFG_DisablePullDown
 954              		.syntax unified
 955              		.thumb
 956              		.thumb_func
 958              	HAL_SYSCFG_DisablePullDown:
 959              	.LVL25:
 960              	.LFB888:
 654:../../Drivers/STM32N6xx_HAL_Driver/Src/stm32n6xx_hal.c **** 
 655:../../Drivers/STM32N6xx_HAL_Driver/Src/stm32n6xx_hal.c **** /**
 656:../../Drivers/STM32N6xx_HAL_Driver/Src/stm32n6xx_hal.c ****   * @brief  Disable the Pull Down on BOOT pin.
 657:../../Drivers/STM32N6xx_HAL_Driver/Src/stm32n6xx_hal.c ****   * @param  BootId Specifies the boot pins.
 658:../../Drivers/STM32N6xx_HAL_Driver/Src/stm32n6xx_hal.c ****   *         This parameter can one of the following values:
 659:../../Drivers/STM32N6xx_HAL_Driver/Src/stm32n6xx_hal.c ****   *            @arg SYSCFG_BOOT_0 boot 0 pin
 660:../../Drivers/STM32N6xx_HAL_Driver/Src/stm32n6xx_hal.c ****   *            @arg SYSCFG_BOOT_1 boot 1 pin
 661:../../Drivers/STM32N6xx_HAL_Driver/Src/stm32n6xx_hal.c ****   * @retval None
 662:../../Drivers/STM32N6xx_HAL_Driver/Src/stm32n6xx_hal.c ****   */
 663:../../Drivers/STM32N6xx_HAL_Driver/Src/stm32n6xx_hal.c **** void HAL_SYSCFG_DisablePullDown(uint32_t BootId)
 664:../../Drivers/STM32N6xx_HAL_Driver/Src/stm32n6xx_hal.c **** {
 961              		.loc 1 664 1 is_stmt 1 view -0
 962              		.cfi_startproc
 963              		@ args = 0, pretend = 0, frame = 0
ARM GAS  C:\Users\SMART\AppData\Local\Temp\ccwDMaLv.s 			page 30


 964              		@ frame_needed = 0, uses_anonymous_args = 0
 965              		@ link register save eliminated.
 665:../../Drivers/STM32N6xx_HAL_Driver/Src/stm32n6xx_hal.c ****   /* Check the parameters */
 666:../../Drivers/STM32N6xx_HAL_Driver/Src/stm32n6xx_hal.c ****   assert_param(IS_SYSCFG_BOOT_ID(BootId));
 966              		.loc 1 666 3 view .LVU181
 667:../../Drivers/STM32N6xx_HAL_Driver/Src/stm32n6xx_hal.c **** 
 668:../../Drivers/STM32N6xx_HAL_Driver/Src/stm32n6xx_hal.c ****   CLEAR_BIT(SYSCFG->BOOTCR, BootId);
 967              		.loc 1 668 3 view .LVU182
 968 0000 024A     		ldr	r2, .L90
 969 0002 1368     		ldr	r3, [r2]
 970 0004 23EA0003 		bic	r3, r3, r0
 971 0008 1360     		str	r3, [r2]
 669:../../Drivers/STM32N6xx_HAL_Driver/Src/stm32n6xx_hal.c **** }
 972              		.loc 1 669 1 is_stmt 0 view .LVU183
 973 000a 7047     		bx	lr
 974              	.L91:
 975              		.align	2
 976              	.L90:
 977 000c 00800056 		.word	1442873344
 978              		.cfi_endproc
 979              	.LFE888:
 981              		.section	.text.HAL_SYSCFG_Lock,"ax",%progbits
 982              		.align	1
 983              		.global	HAL_SYSCFG_Lock
 984              		.syntax unified
 985              		.thumb
 986              		.thumb_func
 988              	HAL_SYSCFG_Lock:
 989              	.LVL26:
 990              	.LFB889:
 670:../../Drivers/STM32N6xx_HAL_Driver/Src/stm32n6xx_hal.c **** 
 671:../../Drivers/STM32N6xx_HAL_Driver/Src/stm32n6xx_hal.c **** /**
 672:../../Drivers/STM32N6xx_HAL_Driver/Src/stm32n6xx_hal.c ****   * @brief  Lock the SYSCFG item(s).
 673:../../Drivers/STM32N6xx_HAL_Driver/Src/stm32n6xx_hal.c ****   * @note   Lock(s) cleared only at system reset
 674:../../Drivers/STM32N6xx_HAL_Driver/Src/stm32n6xx_hal.c ****   * @param  Item Item(s) to set lock on.
 675:../../Drivers/STM32N6xx_HAL_Driver/Src/stm32n6xx_hal.c ****   *         This parameter can be a combination of @ref SYSCFG_Lock_items
 676:../../Drivers/STM32N6xx_HAL_Driver/Src/stm32n6xx_hal.c ****   * @retval None
 677:../../Drivers/STM32N6xx_HAL_Driver/Src/stm32n6xx_hal.c ****   */
 678:../../Drivers/STM32N6xx_HAL_Driver/Src/stm32n6xx_hal.c **** void HAL_SYSCFG_Lock(uint32_t Item)
 679:../../Drivers/STM32N6xx_HAL_Driver/Src/stm32n6xx_hal.c **** {
 991              		.loc 1 679 1 is_stmt 1 view -0
 992              		.cfi_startproc
 993              		@ args = 0, pretend = 0, frame = 0
 994              		@ frame_needed = 0, uses_anonymous_args = 0
 995              		@ link register save eliminated.
 680:../../Drivers/STM32N6xx_HAL_Driver/Src/stm32n6xx_hal.c ****   /* Check the parameters */
 681:../../Drivers/STM32N6xx_HAL_Driver/Src/stm32n6xx_hal.c ****   assert_param(IS_SYSCFG_LOCK_ITEMS(Item));
 996              		.loc 1 681 3 view .LVU185
 682:../../Drivers/STM32N6xx_HAL_Driver/Src/stm32n6xx_hal.c **** 
 683:../../Drivers/STM32N6xx_HAL_Driver/Src/stm32n6xx_hal.c ****   MODIFY_REG(SYSCFG->CM55CR, SYSCFG_LOCK_ALL, Item);
 997              		.loc 1 683 3 view .LVU186
 998 0000 034A     		ldr	r2, .L93
 999 0002 5368     		ldr	r3, [r2, #4]
 1000 0004 23F47C13 		bic	r3, r3, #4128768
 1001 0008 0343     		orrs	r3, r3, r0
 1002 000a 5360     		str	r3, [r2, #4]
 684:../../Drivers/STM32N6xx_HAL_Driver/Src/stm32n6xx_hal.c **** }
ARM GAS  C:\Users\SMART\AppData\Local\Temp\ccwDMaLv.s 			page 31


 1003              		.loc 1 684 1 is_stmt 0 view .LVU187
 1004 000c 7047     		bx	lr
 1005              	.L94:
 1006 000e 00BF     		.align	2
 1007              	.L93:
 1008 0010 00800056 		.word	1442873344
 1009              		.cfi_endproc
 1010              	.LFE889:
 1012              		.section	.text.HAL_SYSCFG_GetLock,"ax",%progbits
 1013              		.align	1
 1014              		.global	HAL_SYSCFG_GetLock
 1015              		.syntax unified
 1016              		.thumb
 1017              		.thumb_func
 1019              	HAL_SYSCFG_GetLock:
 1020              	.LVL27:
 1021              	.LFB890:
 685:../../Drivers/STM32N6xx_HAL_Driver/Src/stm32n6xx_hal.c **** 
 686:../../Drivers/STM32N6xx_HAL_Driver/Src/stm32n6xx_hal.c **** /**
 687:../../Drivers/STM32N6xx_HAL_Driver/Src/stm32n6xx_hal.c ****   * @brief  Get the lock state of SYSCFG item.
 688:../../Drivers/STM32N6xx_HAL_Driver/Src/stm32n6xx_hal.c ****   * @param  pItem Pointer to return locked items
 689:../../Drivers/STM32N6xx_HAL_Driver/Src/stm32n6xx_hal.c ****   *         the return value can be a combination of @ref SYSCFG_Lock_items
 690:../../Drivers/STM32N6xx_HAL_Driver/Src/stm32n6xx_hal.c ****   * @retval HAL status
 691:../../Drivers/STM32N6xx_HAL_Driver/Src/stm32n6xx_hal.c ****   */
 692:../../Drivers/STM32N6xx_HAL_Driver/Src/stm32n6xx_hal.c **** HAL_StatusTypeDef HAL_SYSCFG_GetLock(uint32_t *pItem)
 693:../../Drivers/STM32N6xx_HAL_Driver/Src/stm32n6xx_hal.c **** {
 1022              		.loc 1 693 1 is_stmt 1 view -0
 1023              		.cfi_startproc
 1024              		@ args = 0, pretend = 0, frame = 0
 1025              		@ frame_needed = 0, uses_anonymous_args = 0
 1026              		@ link register save eliminated.
 694:../../Drivers/STM32N6xx_HAL_Driver/Src/stm32n6xx_hal.c ****   /* Check null pointer */
 695:../../Drivers/STM32N6xx_HAL_Driver/Src/stm32n6xx_hal.c ****   if (pItem == NULL)
 1027              		.loc 1 695 3 view .LVU189
 1028              		.loc 1 695 6 is_stmt 0 view .LVU190
 1029 0000 30B1     		cbz	r0, .L97
 696:../../Drivers/STM32N6xx_HAL_Driver/Src/stm32n6xx_hal.c ****   {
 697:../../Drivers/STM32N6xx_HAL_Driver/Src/stm32n6xx_hal.c ****     return HAL_ERROR;
 698:../../Drivers/STM32N6xx_HAL_Driver/Src/stm32n6xx_hal.c ****   }
 699:../../Drivers/STM32N6xx_HAL_Driver/Src/stm32n6xx_hal.c **** 
 700:../../Drivers/STM32N6xx_HAL_Driver/Src/stm32n6xx_hal.c ****   /* Get the non-secure lock state */
 701:../../Drivers/STM32N6xx_HAL_Driver/Src/stm32n6xx_hal.c ****   *pItem = READ_BIT(SYSCFG->CM55CR, SYSCFG_LOCK_ALL);
 1030              		.loc 1 701 3 is_stmt 1 view .LVU191
 1031              		.loc 1 701 12 is_stmt 0 view .LVU192
 1032 0002 044B     		ldr	r3, .L98
 1033 0004 5B68     		ldr	r3, [r3, #4]
 1034 0006 03F47C13 		and	r3, r3, #4128768
 1035              		.loc 1 701 10 view .LVU193
 1036 000a 0360     		str	r3, [r0]
 702:../../Drivers/STM32N6xx_HAL_Driver/Src/stm32n6xx_hal.c **** 
 703:../../Drivers/STM32N6xx_HAL_Driver/Src/stm32n6xx_hal.c ****   return HAL_OK;
 1037              		.loc 1 703 3 is_stmt 1 view .LVU194
 1038              		.loc 1 703 10 is_stmt 0 view .LVU195
 1039 000c 0020     		movs	r0, #0
 1040              	.LVL28:
 1041              		.loc 1 703 10 view .LVU196
 1042 000e 7047     		bx	lr
ARM GAS  C:\Users\SMART\AppData\Local\Temp\ccwDMaLv.s 			page 32


 1043              	.LVL29:
 1044              	.L97:
 697:../../Drivers/STM32N6xx_HAL_Driver/Src/stm32n6xx_hal.c ****   }
 1045              		.loc 1 697 12 view .LVU197
 1046 0010 0120     		movs	r0, #1
 1047              	.LVL30:
 704:../../Drivers/STM32N6xx_HAL_Driver/Src/stm32n6xx_hal.c **** }
 1048              		.loc 1 704 1 view .LVU198
 1049 0012 7047     		bx	lr
 1050              	.L99:
 1051              		.align	2
 1052              	.L98:
 1053 0014 00800056 		.word	1442873344
 1054              		.cfi_endproc
 1055              	.LFE890:
 1057              		.section	.text.HAL_SYSCFG_SetTCMSize,"ax",%progbits
 1058              		.align	1
 1059              		.global	HAL_SYSCFG_SetTCMSize
 1060              		.syntax unified
 1061              		.thumb
 1062              		.thumb_func
 1064              	HAL_SYSCFG_SetTCMSize:
 1065              	.LVL31:
 1066              	.LFB891:
 705:../../Drivers/STM32N6xx_HAL_Driver/Src/stm32n6xx_hal.c **** 
 706:../../Drivers/STM32N6xx_HAL_Driver/Src/stm32n6xx_hal.c **** /**
 707:../../Drivers/STM32N6xx_HAL_Driver/Src/stm32n6xx_hal.c ****   * @brief  Set the DTCM and ITCM memory sizes.
 708:../../Drivers/STM32N6xx_HAL_Driver/Src/stm32n6xx_hal.c ****   * @note   Write-once TCM configuration change.
 709:../../Drivers/STM32N6xx_HAL_Driver/Src/stm32n6xx_hal.c ****   * @note   Effective change applied upon new power-on reset by calling
 710:../../Drivers/STM32N6xx_HAL_Driver/Src/stm32n6xx_hal.c ****   *         HAL_SYSCFG_EnablePowerOnReset() and NVIC_SystemReset()
 711:../../Drivers/STM32N6xx_HAL_Driver/Src/stm32n6xx_hal.c ****   * @param  DtcmSize DTCM memory size
 712:../../Drivers/STM32N6xx_HAL_Driver/Src/stm32n6xx_hal.c ****   *         This parameter can one of the following values:
 713:../../Drivers/STM32N6xx_HAL_Driver/Src/stm32n6xx_hal.c ****   *            @arg SYSCFG_DTCM_128K 128K
 714:../../Drivers/STM32N6xx_HAL_Driver/Src/stm32n6xx_hal.c ****   *            @arg SYSCFG_DTCM_256K 256K
 715:../../Drivers/STM32N6xx_HAL_Driver/Src/stm32n6xx_hal.c ****   * @param  ItcmSize ITCM memory size
 716:../../Drivers/STM32N6xx_HAL_Driver/Src/stm32n6xx_hal.c ****   *         This parameter can one of the following values:
 717:../../Drivers/STM32N6xx_HAL_Driver/Src/stm32n6xx_hal.c ****   *            @arg SYSCFG_ITCM_64K  64K
 718:../../Drivers/STM32N6xx_HAL_Driver/Src/stm32n6xx_hal.c ****   *            @arg SYSCFG_ITCM_128K 128K
 719:../../Drivers/STM32N6xx_HAL_Driver/Src/stm32n6xx_hal.c ****   *            @arg SYSCFG_ITCM_256K 256K
 720:../../Drivers/STM32N6xx_HAL_Driver/Src/stm32n6xx_hal.c ****   * @retval None
 721:../../Drivers/STM32N6xx_HAL_Driver/Src/stm32n6xx_hal.c ****   */
 722:../../Drivers/STM32N6xx_HAL_Driver/Src/stm32n6xx_hal.c **** void HAL_SYSCFG_SetTCMSize(uint32_t DtcmSize, uint32_t ItcmSize)
 723:../../Drivers/STM32N6xx_HAL_Driver/Src/stm32n6xx_hal.c **** {
 1067              		.loc 1 723 1 is_stmt 1 view -0
 1068              		.cfi_startproc
 1069              		@ args = 0, pretend = 0, frame = 0
 1070              		@ frame_needed = 0, uses_anonymous_args = 0
 1071              		@ link register save eliminated.
 724:../../Drivers/STM32N6xx_HAL_Driver/Src/stm32n6xx_hal.c ****   /* Check the parameters */
 725:../../Drivers/STM32N6xx_HAL_Driver/Src/stm32n6xx_hal.c ****   assert_param(IS_SYSCFG_DTCM_SIZE(DtcmSize));
 1072              		.loc 1 725 3 view .LVU200
 726:../../Drivers/STM32N6xx_HAL_Driver/Src/stm32n6xx_hal.c ****   assert_param(IS_SYSCFG_ITCM_SIZE(ItcmSize));
 1073              		.loc 1 726 3 view .LVU201
 727:../../Drivers/STM32N6xx_HAL_Driver/Src/stm32n6xx_hal.c **** 
 728:../../Drivers/STM32N6xx_HAL_Driver/Src/stm32n6xx_hal.c ****   MODIFY_REG(SYSCFG->CM55TCMCR, SYSCFG_CM55TCMCR_CFGDTCMSZ | SYSCFG_CM55TCMCR_CFGITCMSZ, DtcmSize |
 1074              		.loc 1 728 3 view .LVU202
 1075 0000 034A     		ldr	r2, .L101
ARM GAS  C:\Users\SMART\AppData\Local\Temp\ccwDMaLv.s 			page 33


 1076 0002 9368     		ldr	r3, [r2, #8]
 1077 0004 23F0FF03 		bic	r3, r3, #255
 1078 0008 0843     		orrs	r0, r0, r1
 1079              	.LVL32:
 1080              		.loc 1 728 3 is_stmt 0 view .LVU203
 1081 000a 0343     		orrs	r3, r3, r0
 1082 000c 9360     		str	r3, [r2, #8]
 729:../../Drivers/STM32N6xx_HAL_Driver/Src/stm32n6xx_hal.c **** }
 1083              		.loc 1 729 1 view .LVU204
 1084 000e 7047     		bx	lr
 1085              	.L102:
 1086              		.align	2
 1087              	.L101:
 1088 0010 00800056 		.word	1442873344
 1089              		.cfi_endproc
 1090              	.LFE891:
 1092              		.section	.text.HAL_SYSCFG_GetTCMSize,"ax",%progbits
 1093              		.align	1
 1094              		.global	HAL_SYSCFG_GetTCMSize
 1095              		.syntax unified
 1096              		.thumb
 1097              		.thumb_func
 1099              	HAL_SYSCFG_GetTCMSize:
 1100              	.LVL33:
 1101              	.LFB892:
 730:../../Drivers/STM32N6xx_HAL_Driver/Src/stm32n6xx_hal.c **** 
 731:../../Drivers/STM32N6xx_HAL_Driver/Src/stm32n6xx_hal.c **** /**
 732:../../Drivers/STM32N6xx_HAL_Driver/Src/stm32n6xx_hal.c ****   * @brief  Get the DTCM and ITCM memory sizes.
 733:../../Drivers/STM32N6xx_HAL_Driver/Src/stm32n6xx_hal.c ****   * @param  pDtcmSize Pointer to return DTCM memory size
 734:../../Drivers/STM32N6xx_HAL_Driver/Src/stm32n6xx_hal.c ****   *         This return value can be one of
 735:../../Drivers/STM32N6xx_HAL_Driver/Src/stm32n6xx_hal.c ****   *            @arg SYSCFG_DTCM_128K 128K
 736:../../Drivers/STM32N6xx_HAL_Driver/Src/stm32n6xx_hal.c ****   *            @arg SYSCFG_DTCM_256K 256K
 737:../../Drivers/STM32N6xx_HAL_Driver/Src/stm32n6xx_hal.c ****   * @param  pItcmSize Pointer to return ITCM memory size
 738:../../Drivers/STM32N6xx_HAL_Driver/Src/stm32n6xx_hal.c ****   *         This return value can be one of
 739:../../Drivers/STM32N6xx_HAL_Driver/Src/stm32n6xx_hal.c ****   *            @arg SYSCFG_ITCM_64K  64K
 740:../../Drivers/STM32N6xx_HAL_Driver/Src/stm32n6xx_hal.c ****   *            @arg SYSCFG_ITCM_128K 128K
 741:../../Drivers/STM32N6xx_HAL_Driver/Src/stm32n6xx_hal.c ****   *            @arg SYSCFG_ITCM_256K 256K
 742:../../Drivers/STM32N6xx_HAL_Driver/Src/stm32n6xx_hal.c ****   * @retval HAL status
 743:../../Drivers/STM32N6xx_HAL_Driver/Src/stm32n6xx_hal.c ****    */
 744:../../Drivers/STM32N6xx_HAL_Driver/Src/stm32n6xx_hal.c **** HAL_StatusTypeDef HAL_SYSCFG_GetTCMSize(uint32_t *pDtcmSize, uint32_t *pItcmSize)
 745:../../Drivers/STM32N6xx_HAL_Driver/Src/stm32n6xx_hal.c **** {
 1102              		.loc 1 745 1 is_stmt 1 view -0
 1103              		.cfi_startproc
 1104              		@ args = 0, pretend = 0, frame = 0
 1105              		@ frame_needed = 0, uses_anonymous_args = 0
 1106              		@ link register save eliminated.
 746:../../Drivers/STM32N6xx_HAL_Driver/Src/stm32n6xx_hal.c ****   uint32_t values;
 1107              		.loc 1 746 3 view .LVU206
 747:../../Drivers/STM32N6xx_HAL_Driver/Src/stm32n6xx_hal.c **** 
 748:../../Drivers/STM32N6xx_HAL_Driver/Src/stm32n6xx_hal.c ****   /* Check null pointer */
 749:../../Drivers/STM32N6xx_HAL_Driver/Src/stm32n6xx_hal.c ****   if ((pDtcmSize == NULL) || (pItcmSize == NULL))
 1108              		.loc 1 749 3 view .LVU207
 1109              		.loc 1 749 6 is_stmt 0 view .LVU208
 1110 0000 0246     		mov	r2, r0
 1111 0002 50B1     		cbz	r0, .L105
 1112              		.loc 1 749 27 discriminator 1 view .LVU209
 1113 0004 59B1     		cbz	r1, .L106
ARM GAS  C:\Users\SMART\AppData\Local\Temp\ccwDMaLv.s 			page 34


 750:../../Drivers/STM32N6xx_HAL_Driver/Src/stm32n6xx_hal.c ****   {
 751:../../Drivers/STM32N6xx_HAL_Driver/Src/stm32n6xx_hal.c ****     return HAL_ERROR;
 752:../../Drivers/STM32N6xx_HAL_Driver/Src/stm32n6xx_hal.c ****   }
 753:../../Drivers/STM32N6xx_HAL_Driver/Src/stm32n6xx_hal.c **** 
 754:../../Drivers/STM32N6xx_HAL_Driver/Src/stm32n6xx_hal.c ****   values = READ_REG(SYSCFG->CM55TCMCR);
 1114              		.loc 1 754 3 is_stmt 1 view .LVU210
 1115              		.loc 1 754 10 is_stmt 0 view .LVU211
 1116 0006 074B     		ldr	r3, .L107
 1117 0008 9B68     		ldr	r3, [r3, #8]
 1118              	.LVL34:
 755:../../Drivers/STM32N6xx_HAL_Driver/Src/stm32n6xx_hal.c ****   *pDtcmSize = (values & 0xF0U);
 1119              		.loc 1 755 3 is_stmt 1 view .LVU212
 1120              		.loc 1 755 24 is_stmt 0 view .LVU213
 1121 000a 03F0F000 		and	r0, r3, #240
 1122              	.LVL35:
 1123              		.loc 1 755 14 view .LVU214
 1124 000e 1060     		str	r0, [r2]
 756:../../Drivers/STM32N6xx_HAL_Driver/Src/stm32n6xx_hal.c ****   *pItcmSize = (values & 0xFU);
 1125              		.loc 1 756 3 is_stmt 1 view .LVU215
 1126              		.loc 1 756 24 is_stmt 0 view .LVU216
 1127 0010 03F00F03 		and	r3, r3, #15
 1128              	.LVL36:
 1129              		.loc 1 756 14 view .LVU217
 1130 0014 0B60     		str	r3, [r1]
 757:../../Drivers/STM32N6xx_HAL_Driver/Src/stm32n6xx_hal.c **** 
 758:../../Drivers/STM32N6xx_HAL_Driver/Src/stm32n6xx_hal.c ****   return HAL_OK;
 1131              		.loc 1 758 3 is_stmt 1 view .LVU218
 1132              		.loc 1 758 10 is_stmt 0 view .LVU219
 1133 0016 0020     		movs	r0, #0
 1134 0018 7047     		bx	lr
 1135              	.LVL37:
 1136              	.L105:
 751:../../Drivers/STM32N6xx_HAL_Driver/Src/stm32n6xx_hal.c ****   }
 1137              		.loc 1 751 12 view .LVU220
 1138 001a 0120     		movs	r0, #1
 1139              	.LVL38:
 751:../../Drivers/STM32N6xx_HAL_Driver/Src/stm32n6xx_hal.c ****   }
 1140              		.loc 1 751 12 view .LVU221
 1141 001c 7047     		bx	lr
 1142              	.LVL39:
 1143              	.L106:
 751:../../Drivers/STM32N6xx_HAL_Driver/Src/stm32n6xx_hal.c ****   }
 1144              		.loc 1 751 12 view .LVU222
 1145 001e 0120     		movs	r0, #1
 1146              	.LVL40:
 759:../../Drivers/STM32N6xx_HAL_Driver/Src/stm32n6xx_hal.c **** }
 1147              		.loc 1 759 1 view .LVU223
 1148 0020 7047     		bx	lr
 1149              	.L108:
 1150 0022 00BF     		.align	2
 1151              	.L107:
 1152 0024 00800056 		.word	1442873344
 1153              		.cfi_endproc
 1154              	.LFE892:
 1156              		.section	.text.HAL_SYSCFG_LockWriteAccess,"ax",%progbits
 1157              		.align	1
 1158              		.global	HAL_SYSCFG_LockWriteAccess
ARM GAS  C:\Users\SMART\AppData\Local\Temp\ccwDMaLv.s 			page 35


 1159              		.syntax unified
 1160              		.thumb
 1161              		.thumb_func
 1163              	HAL_SYSCFG_LockWriteAccess:
 1164              	.LVL41:
 1165              	.LFB893:
 760:../../Drivers/STM32N6xx_HAL_Driver/Src/stm32n6xx_hal.c **** 
 761:../../Drivers/STM32N6xx_HAL_Driver/Src/stm32n6xx_hal.c **** /**
 762:../../Drivers/STM32N6xx_HAL_Driver/Src/stm32n6xx_hal.c ****   * @brief  Lock the SYSCFG write access item(s).
 763:../../Drivers/STM32N6xx_HAL_Driver/Src/stm32n6xx_hal.c ****   * @note   Lock(s) cleared only at system reset
 764:../../Drivers/STM32N6xx_HAL_Driver/Src/stm32n6xx_hal.c ****   * @param  Item Item(s) to set lock on.
 765:../../Drivers/STM32N6xx_HAL_Driver/Src/stm32n6xx_hal.c ****   *         This parameter can be a combination of @ref SYSCFG_WRITE_access
 766:../../Drivers/STM32N6xx_HAL_Driver/Src/stm32n6xx_hal.c ****   * @retval None
 767:../../Drivers/STM32N6xx_HAL_Driver/Src/stm32n6xx_hal.c ****   */
 768:../../Drivers/STM32N6xx_HAL_Driver/Src/stm32n6xx_hal.c **** void HAL_SYSCFG_LockWriteAccess(uint32_t Item)
 769:../../Drivers/STM32N6xx_HAL_Driver/Src/stm32n6xx_hal.c **** {
 1166              		.loc 1 769 1 is_stmt 1 view -0
 1167              		.cfi_startproc
 1168              		@ args = 0, pretend = 0, frame = 0
 1169              		@ frame_needed = 0, uses_anonymous_args = 0
 1170              		@ link register save eliminated.
 770:../../Drivers/STM32N6xx_HAL_Driver/Src/stm32n6xx_hal.c ****   /* Check the parameters */
 771:../../Drivers/STM32N6xx_HAL_Driver/Src/stm32n6xx_hal.c ****   assert_param(IS_SYSCFG_LOCK_WRACCESS(Item));
 1171              		.loc 1 771 3 view .LVU225
 772:../../Drivers/STM32N6xx_HAL_Driver/Src/stm32n6xx_hal.c **** 
 773:../../Drivers/STM32N6xx_HAL_Driver/Src/stm32n6xx_hal.c ****   MODIFY_REG(SYSCFG->CM55TCMCR, SYSCFG_LOCK_WR_ALL, Item);
 1172              		.loc 1 773 3 view .LVU226
 1173 0000 034A     		ldr	r2, .L110
 1174 0002 9368     		ldr	r3, [r2, #8]
 1175 0004 23F4E023 		bic	r3, r3, #458752
 1176 0008 0343     		orrs	r3, r3, r0
 1177 000a 9360     		str	r3, [r2, #8]
 774:../../Drivers/STM32N6xx_HAL_Driver/Src/stm32n6xx_hal.c **** }
 1178              		.loc 1 774 1 is_stmt 0 view .LVU227
 1179 000c 7047     		bx	lr
 1180              	.L111:
 1181 000e 00BF     		.align	2
 1182              	.L110:
 1183 0010 00800056 		.word	1442873344
 1184              		.cfi_endproc
 1185              	.LFE893:
 1187              		.section	.text.HAL_SYSCFG_GetLockWriteAccess,"ax",%progbits
 1188              		.align	1
 1189              		.global	HAL_SYSCFG_GetLockWriteAccess
 1190              		.syntax unified
 1191              		.thumb
 1192              		.thumb_func
 1194              	HAL_SYSCFG_GetLockWriteAccess:
 1195              	.LVL42:
 1196              	.LFB894:
 775:../../Drivers/STM32N6xx_HAL_Driver/Src/stm32n6xx_hal.c **** 
 776:../../Drivers/STM32N6xx_HAL_Driver/Src/stm32n6xx_hal.c **** /**
 777:../../Drivers/STM32N6xx_HAL_Driver/Src/stm32n6xx_hal.c ****   * @brief  Get the lock state of SYSCFG  write access item.
 778:../../Drivers/STM32N6xx_HAL_Driver/Src/stm32n6xx_hal.c ****   * @param  pItem pointer to return locked items
 779:../../Drivers/STM32N6xx_HAL_Driver/Src/stm32n6xx_hal.c ****   *         the return value can be a combination of @ref SYSCFG_WRITE_access
 780:../../Drivers/STM32N6xx_HAL_Driver/Src/stm32n6xx_hal.c ****   * @retval HAL status
 781:../../Drivers/STM32N6xx_HAL_Driver/Src/stm32n6xx_hal.c ****   */
ARM GAS  C:\Users\SMART\AppData\Local\Temp\ccwDMaLv.s 			page 36


 782:../../Drivers/STM32N6xx_HAL_Driver/Src/stm32n6xx_hal.c **** HAL_StatusTypeDef HAL_SYSCFG_GetLockWriteAccess(uint32_t *pItem)
 783:../../Drivers/STM32N6xx_HAL_Driver/Src/stm32n6xx_hal.c **** {
 1197              		.loc 1 783 1 is_stmt 1 view -0
 1198              		.cfi_startproc
 1199              		@ args = 0, pretend = 0, frame = 0
 1200              		@ frame_needed = 0, uses_anonymous_args = 0
 1201              		@ link register save eliminated.
 784:../../Drivers/STM32N6xx_HAL_Driver/Src/stm32n6xx_hal.c ****   /* Check null pointer */
 785:../../Drivers/STM32N6xx_HAL_Driver/Src/stm32n6xx_hal.c ****   if (pItem == NULL)
 1202              		.loc 1 785 3 view .LVU229
 1203              		.loc 1 785 6 is_stmt 0 view .LVU230
 1204 0000 30B1     		cbz	r0, .L114
 786:../../Drivers/STM32N6xx_HAL_Driver/Src/stm32n6xx_hal.c ****   {
 787:../../Drivers/STM32N6xx_HAL_Driver/Src/stm32n6xx_hal.c ****     return HAL_ERROR;
 788:../../Drivers/STM32N6xx_HAL_Driver/Src/stm32n6xx_hal.c ****   }
 789:../../Drivers/STM32N6xx_HAL_Driver/Src/stm32n6xx_hal.c **** 
 790:../../Drivers/STM32N6xx_HAL_Driver/Src/stm32n6xx_hal.c ****   /* Get the non-secure lock state */
 791:../../Drivers/STM32N6xx_HAL_Driver/Src/stm32n6xx_hal.c ****   *pItem = READ_BIT(SYSCFG->CM55TCMCR, SYSCFG_LOCK_WR_ALL);
 1205              		.loc 1 791 3 is_stmt 1 view .LVU231
 1206              		.loc 1 791 12 is_stmt 0 view .LVU232
 1207 0002 044B     		ldr	r3, .L115
 1208 0004 9B68     		ldr	r3, [r3, #8]
 1209 0006 03F4E023 		and	r3, r3, #458752
 1210              		.loc 1 791 10 view .LVU233
 1211 000a 0360     		str	r3, [r0]
 792:../../Drivers/STM32N6xx_HAL_Driver/Src/stm32n6xx_hal.c **** 
 793:../../Drivers/STM32N6xx_HAL_Driver/Src/stm32n6xx_hal.c ****   return HAL_OK;
 1212              		.loc 1 793 3 is_stmt 1 view .LVU234
 1213              		.loc 1 793 10 is_stmt 0 view .LVU235
 1214 000c 0020     		movs	r0, #0
 1215              	.LVL43:
 1216              		.loc 1 793 10 view .LVU236
 1217 000e 7047     		bx	lr
 1218              	.LVL44:
 1219              	.L114:
 787:../../Drivers/STM32N6xx_HAL_Driver/Src/stm32n6xx_hal.c ****   }
 1220              		.loc 1 787 12 view .LVU237
 1221 0010 0120     		movs	r0, #1
 1222              	.LVL45:
 794:../../Drivers/STM32N6xx_HAL_Driver/Src/stm32n6xx_hal.c **** }
 1223              		.loc 1 794 1 view .LVU238
 1224 0012 7047     		bx	lr
 1225              	.L116:
 1226              		.align	2
 1227              	.L115:
 1228 0014 00800056 		.word	1442873344
 1229              		.cfi_endproc
 1230              	.LFE894:
 1232              		.section	.text.HAL_SYSCFG_EnableITCMWaiteState,"ax",%progbits
 1233              		.align	1
 1234              		.global	HAL_SYSCFG_EnableITCMWaiteState
 1235              		.syntax unified
 1236              		.thumb
 1237              		.thumb_func
 1239              	HAL_SYSCFG_EnableITCMWaiteState:
 1240              	.LFB895:
 795:../../Drivers/STM32N6xx_HAL_Driver/Src/stm32n6xx_hal.c **** 
ARM GAS  C:\Users\SMART\AppData\Local\Temp\ccwDMaLv.s 			page 37


 796:../../Drivers/STM32N6xx_HAL_Driver/Src/stm32n6xx_hal.c **** /**
 797:../../Drivers/STM32N6xx_HAL_Driver/Src/stm32n6xx_hal.c ****   * @brief  Enable the ITCM Wait State.
 798:../../Drivers/STM32N6xx_HAL_Driver/Src/stm32n6xx_hal.c ****   * @retval None
 799:../../Drivers/STM32N6xx_HAL_Driver/Src/stm32n6xx_hal.c ****   */
 800:../../Drivers/STM32N6xx_HAL_Driver/Src/stm32n6xx_hal.c **** void HAL_SYSCFG_EnableITCMWaiteState(void)
 801:../../Drivers/STM32N6xx_HAL_Driver/Src/stm32n6xx_hal.c **** {
 1241              		.loc 1 801 1 is_stmt 1 view -0
 1242              		.cfi_startproc
 1243              		@ args = 0, pretend = 0, frame = 0
 1244              		@ frame_needed = 0, uses_anonymous_args = 0
 1245              		@ link register save eliminated.
 802:../../Drivers/STM32N6xx_HAL_Driver/Src/stm32n6xx_hal.c ****   SET_BIT(SYSCFG->CM55TCMCR, SYSCFG_CM55TCMCR_ITCMWSDISABLE);
 1246              		.loc 1 802 3 view .LVU240
 1247 0000 024A     		ldr	r2, .L118
 1248 0002 9368     		ldr	r3, [r2, #8]
 1249 0004 43F40003 		orr	r3, r3, #8388608
 1250 0008 9360     		str	r3, [r2, #8]
 803:../../Drivers/STM32N6xx_HAL_Driver/Src/stm32n6xx_hal.c **** }
 1251              		.loc 1 803 1 is_stmt 0 view .LVU241
 1252 000a 7047     		bx	lr
 1253              	.L119:
 1254              		.align	2
 1255              	.L118:
 1256 000c 00800056 		.word	1442873344
 1257              		.cfi_endproc
 1258              	.LFE895:
 1260              		.section	.text.HAL_SYSCFG_DisableITCMWaiteState,"ax",%progbits
 1261              		.align	1
 1262              		.global	HAL_SYSCFG_DisableITCMWaiteState
 1263              		.syntax unified
 1264              		.thumb
 1265              		.thumb_func
 1267              	HAL_SYSCFG_DisableITCMWaiteState:
 1268              	.LFB896:
 804:../../Drivers/STM32N6xx_HAL_Driver/Src/stm32n6xx_hal.c **** 
 805:../../Drivers/STM32N6xx_HAL_Driver/Src/stm32n6xx_hal.c **** /**
 806:../../Drivers/STM32N6xx_HAL_Driver/Src/stm32n6xx_hal.c ****   * @brief  Disable the ITCM Wait State.
 807:../../Drivers/STM32N6xx_HAL_Driver/Src/stm32n6xx_hal.c ****   * @retval None
 808:../../Drivers/STM32N6xx_HAL_Driver/Src/stm32n6xx_hal.c ****   */
 809:../../Drivers/STM32N6xx_HAL_Driver/Src/stm32n6xx_hal.c **** void HAL_SYSCFG_DisableITCMWaiteState(void)
 810:../../Drivers/STM32N6xx_HAL_Driver/Src/stm32n6xx_hal.c **** {
 1269              		.loc 1 810 1 is_stmt 1 view -0
 1270              		.cfi_startproc
 1271              		@ args = 0, pretend = 0, frame = 0
 1272              		@ frame_needed = 0, uses_anonymous_args = 0
 1273              		@ link register save eliminated.
 811:../../Drivers/STM32N6xx_HAL_Driver/Src/stm32n6xx_hal.c ****   CLEAR_BIT(SYSCFG->CM55TCMCR, SYSCFG_CM55TCMCR_ITCMWSDISABLE);
 1274              		.loc 1 811 3 view .LVU243
 1275 0000 024A     		ldr	r2, .L121
 1276 0002 9368     		ldr	r3, [r2, #8]
 1277 0004 23F40003 		bic	r3, r3, #8388608
 1278 0008 9360     		str	r3, [r2, #8]
 812:../../Drivers/STM32N6xx_HAL_Driver/Src/stm32n6xx_hal.c **** }
 1279              		.loc 1 812 1 is_stmt 0 view .LVU244
 1280 000a 7047     		bx	lr
 1281              	.L122:
 1282              		.align	2
ARM GAS  C:\Users\SMART\AppData\Local\Temp\ccwDMaLv.s 			page 38


 1283              	.L121:
 1284 000c 00800056 		.word	1442873344
 1285              		.cfi_endproc
 1286              	.LFE896:
 1288              		.section	.text.HAL_SYSCFG_EnableDTCMWaiteState,"ax",%progbits
 1289              		.align	1
 1290              		.global	HAL_SYSCFG_EnableDTCMWaiteState
 1291              		.syntax unified
 1292              		.thumb
 1293              		.thumb_func
 1295              	HAL_SYSCFG_EnableDTCMWaiteState:
 1296              	.LFB897:
 813:../../Drivers/STM32N6xx_HAL_Driver/Src/stm32n6xx_hal.c **** 
 814:../../Drivers/STM32N6xx_HAL_Driver/Src/stm32n6xx_hal.c **** /**
 815:../../Drivers/STM32N6xx_HAL_Driver/Src/stm32n6xx_hal.c ****   * @brief  Enable the DTCM Wait State.
 816:../../Drivers/STM32N6xx_HAL_Driver/Src/stm32n6xx_hal.c ****   * @retval None
 817:../../Drivers/STM32N6xx_HAL_Driver/Src/stm32n6xx_hal.c ****   */
 818:../../Drivers/STM32N6xx_HAL_Driver/Src/stm32n6xx_hal.c **** void HAL_SYSCFG_EnableDTCMWaiteState(void)
 819:../../Drivers/STM32N6xx_HAL_Driver/Src/stm32n6xx_hal.c **** {
 1297              		.loc 1 819 1 is_stmt 1 view -0
 1298              		.cfi_startproc
 1299              		@ args = 0, pretend = 0, frame = 0
 1300              		@ frame_needed = 0, uses_anonymous_args = 0
 1301              		@ link register save eliminated.
 820:../../Drivers/STM32N6xx_HAL_Driver/Src/stm32n6xx_hal.c ****   SET_BIT(SYSCFG->CM55TCMCR, SYSCFG_CM55TCMCR_DTCMWSDISABLE);
 1302              		.loc 1 820 3 view .LVU246
 1303 0000 024A     		ldr	r2, .L124
 1304 0002 9368     		ldr	r3, [r2, #8]
 1305 0004 43F08073 		orr	r3, r3, #16777216
 1306 0008 9360     		str	r3, [r2, #8]
 821:../../Drivers/STM32N6xx_HAL_Driver/Src/stm32n6xx_hal.c **** }
 1307              		.loc 1 821 1 is_stmt 0 view .LVU247
 1308 000a 7047     		bx	lr
 1309              	.L125:
 1310              		.align	2
 1311              	.L124:
 1312 000c 00800056 		.word	1442873344
 1313              		.cfi_endproc
 1314              	.LFE897:
 1316              		.section	.text.HAL_SYSCFG_DisableDTCMWaiteState,"ax",%progbits
 1317              		.align	1
 1318              		.global	HAL_SYSCFG_DisableDTCMWaiteState
 1319              		.syntax unified
 1320              		.thumb
 1321              		.thumb_func
 1323              	HAL_SYSCFG_DisableDTCMWaiteState:
 1324              	.LFB898:
 822:../../Drivers/STM32N6xx_HAL_Driver/Src/stm32n6xx_hal.c **** 
 823:../../Drivers/STM32N6xx_HAL_Driver/Src/stm32n6xx_hal.c **** /**
 824:../../Drivers/STM32N6xx_HAL_Driver/Src/stm32n6xx_hal.c ****   * @brief  Disable the DTCM Wait State.
 825:../../Drivers/STM32N6xx_HAL_Driver/Src/stm32n6xx_hal.c ****   * @retval None
 826:../../Drivers/STM32N6xx_HAL_Driver/Src/stm32n6xx_hal.c ****   */
 827:../../Drivers/STM32N6xx_HAL_Driver/Src/stm32n6xx_hal.c **** void HAL_SYSCFG_DisableDTCMWaiteState(void)
 828:../../Drivers/STM32N6xx_HAL_Driver/Src/stm32n6xx_hal.c **** {
 1325              		.loc 1 828 1 is_stmt 1 view -0
 1326              		.cfi_startproc
 1327              		@ args = 0, pretend = 0, frame = 0
ARM GAS  C:\Users\SMART\AppData\Local\Temp\ccwDMaLv.s 			page 39


 1328              		@ frame_needed = 0, uses_anonymous_args = 0
 1329              		@ link register save eliminated.
 829:../../Drivers/STM32N6xx_HAL_Driver/Src/stm32n6xx_hal.c ****   CLEAR_BIT(SYSCFG->CM55TCMCR, SYSCFG_CM55TCMCR_DTCMWSDISABLE);
 1330              		.loc 1 829 3 view .LVU249
 1331 0000 024A     		ldr	r2, .L127
 1332 0002 9368     		ldr	r3, [r2, #8]
 1333 0004 23F08073 		bic	r3, r3, #16777216
 1334 0008 9360     		str	r3, [r2, #8]
 830:../../Drivers/STM32N6xx_HAL_Driver/Src/stm32n6xx_hal.c **** }
 1335              		.loc 1 830 1 is_stmt 0 view .LVU250
 1336 000a 7047     		bx	lr
 1337              	.L128:
 1338              		.align	2
 1339              	.L127:
 1340 000c 00800056 		.word	1442873344
 1341              		.cfi_endproc
 1342              	.LFE898:
 1344              		.section	.text.HAL_SYSCFG_EnableTCMExternalMargin,"ax",%progbits
 1345              		.align	1
 1346              		.global	HAL_SYSCFG_EnableTCMExternalMargin
 1347              		.syntax unified
 1348              		.thumb
 1349              		.thumb_func
 1351              	HAL_SYSCFG_EnableTCMExternalMargin:
 1352              	.LFB899:
 831:../../Drivers/STM32N6xx_HAL_Driver/Src/stm32n6xx_hal.c **** 
 832:../../Drivers/STM32N6xx_HAL_Driver/Src/stm32n6xx_hal.c **** /**
 833:../../Drivers/STM32N6xx_HAL_Driver/Src/stm32n6xx_hal.c ****   * @brief  Enable external RW margin inputs for TCM memories
 834:../../Drivers/STM32N6xx_HAL_Driver/Src/stm32n6xx_hal.c ****   * @retval None
 835:../../Drivers/STM32N6xx_HAL_Driver/Src/stm32n6xx_hal.c ****   */
 836:../../Drivers/STM32N6xx_HAL_Driver/Src/stm32n6xx_hal.c **** void HAL_SYSCFG_EnableTCMExternalMargin(void)
 837:../../Drivers/STM32N6xx_HAL_Driver/Src/stm32n6xx_hal.c **** {
 1353              		.loc 1 837 1 is_stmt 1 view -0
 1354              		.cfi_startproc
 1355              		@ args = 0, pretend = 0, frame = 0
 1356              		@ frame_needed = 0, uses_anonymous_args = 0
 1357              		@ link register save eliminated.
 838:../../Drivers/STM32N6xx_HAL_Driver/Src/stm32n6xx_hal.c ****   SET_BIT(SYSCFG->CM55RWMCR, SYSCFG_CM55RWMCR_RME_TCM);
 1358              		.loc 1 838 3 view .LVU252
 1359 0000 024A     		ldr	r2, .L130
 1360 0002 D368     		ldr	r3, [r2, #12]
 1361 0004 43F00103 		orr	r3, r3, #1
 1362 0008 D360     		str	r3, [r2, #12]
 839:../../Drivers/STM32N6xx_HAL_Driver/Src/stm32n6xx_hal.c **** }
 1363              		.loc 1 839 1 is_stmt 0 view .LVU253
 1364 000a 7047     		bx	lr
 1365              	.L131:
 1366              		.align	2
 1367              	.L130:
 1368 000c 00800056 		.word	1442873344
 1369              		.cfi_endproc
 1370              	.LFE899:
 1372              		.section	.text.HAL_SYSCFG_DisableTCMExternalMargin,"ax",%progbits
 1373              		.align	1
 1374              		.global	HAL_SYSCFG_DisableTCMExternalMargin
 1375              		.syntax unified
 1376              		.thumb
ARM GAS  C:\Users\SMART\AppData\Local\Temp\ccwDMaLv.s 			page 40


 1377              		.thumb_func
 1379              	HAL_SYSCFG_DisableTCMExternalMargin:
 1380              	.LFB900:
 840:../../Drivers/STM32N6xx_HAL_Driver/Src/stm32n6xx_hal.c **** 
 841:../../Drivers/STM32N6xx_HAL_Driver/Src/stm32n6xx_hal.c **** /**
 842:../../Drivers/STM32N6xx_HAL_Driver/Src/stm32n6xx_hal.c ****   * @brief  Disable external RW margin inputs for TCM memories
 843:../../Drivers/STM32N6xx_HAL_Driver/Src/stm32n6xx_hal.c ****   * @retval None
 844:../../Drivers/STM32N6xx_HAL_Driver/Src/stm32n6xx_hal.c ****   */
 845:../../Drivers/STM32N6xx_HAL_Driver/Src/stm32n6xx_hal.c **** void HAL_SYSCFG_DisableTCMExternalMargin(void)
 846:../../Drivers/STM32N6xx_HAL_Driver/Src/stm32n6xx_hal.c **** {
 1381              		.loc 1 846 1 is_stmt 1 view -0
 1382              		.cfi_startproc
 1383              		@ args = 0, pretend = 0, frame = 0
 1384              		@ frame_needed = 0, uses_anonymous_args = 0
 1385              		@ link register save eliminated.
 847:../../Drivers/STM32N6xx_HAL_Driver/Src/stm32n6xx_hal.c ****   CLEAR_BIT(SYSCFG->CM55RWMCR, SYSCFG_CM55RWMCR_RME_TCM);
 1386              		.loc 1 847 3 view .LVU255
 1387 0000 024A     		ldr	r2, .L133
 1388 0002 D368     		ldr	r3, [r2, #12]
 1389 0004 23F00103 		bic	r3, r3, #1
 1390 0008 D360     		str	r3, [r2, #12]
 848:../../Drivers/STM32N6xx_HAL_Driver/Src/stm32n6xx_hal.c **** }
 1391              		.loc 1 848 1 is_stmt 0 view .LVU256
 1392 000a 7047     		bx	lr
 1393              	.L134:
 1394              		.align	2
 1395              	.L133:
 1396 000c 00800056 		.word	1442873344
 1397              		.cfi_endproc
 1398              	.LFE900:
 1400              		.section	.text.HAL_SYSCFG_SetTCMRWMarginInput,"ax",%progbits
 1401              		.align	1
 1402              		.global	HAL_SYSCFG_SetTCMRWMarginInput
 1403              		.syntax unified
 1404              		.thumb
 1405              		.thumb_func
 1407              	HAL_SYSCFG_SetTCMRWMarginInput:
 1408              	.LVL46:
 1409              	.LFB901:
 849:../../Drivers/STM32N6xx_HAL_Driver/Src/stm32n6xx_hal.c **** 
 850:../../Drivers/STM32N6xx_HAL_Driver/Src/stm32n6xx_hal.c **** /**
 851:../../Drivers/STM32N6xx_HAL_Driver/Src/stm32n6xx_hal.c ****   * @brief  Set external RW margin inputs for TCM memories.
 852:../../Drivers/STM32N6xx_HAL_Driver/Src/stm32n6xx_hal.c ****   * @param  TcmRwMarginInput Input Margin.
 853:../../Drivers/STM32N6xx_HAL_Driver/Src/stm32n6xx_hal.c ****   * @retval None
 854:../../Drivers/STM32N6xx_HAL_Driver/Src/stm32n6xx_hal.c ****   */
 855:../../Drivers/STM32N6xx_HAL_Driver/Src/stm32n6xx_hal.c **** void HAL_SYSCFG_SetTCMRWMarginInput(uint32_t TcmRwMarginInput)
 856:../../Drivers/STM32N6xx_HAL_Driver/Src/stm32n6xx_hal.c **** {
 1410              		.loc 1 856 1 is_stmt 1 view -0
 1411              		.cfi_startproc
 1412              		@ args = 0, pretend = 0, frame = 0
 1413              		@ frame_needed = 0, uses_anonymous_args = 0
 1414              		@ link register save eliminated.
 857:../../Drivers/STM32N6xx_HAL_Driver/Src/stm32n6xx_hal.c ****   assert_param(IS_TCM_MARGIN_INPUT(TcmRwMarginInput));
 1415              		.loc 1 857 3 view .LVU258
 858:../../Drivers/STM32N6xx_HAL_Driver/Src/stm32n6xx_hal.c **** 
 859:../../Drivers/STM32N6xx_HAL_Driver/Src/stm32n6xx_hal.c ****   MODIFY_REG(SYSCFG->CM55RWMCR, SYSCFG_CM55RWMCR_RM_TCM, (TcmRwMarginInput << 1U));
 1416              		.loc 1 859 3 view .LVU259
ARM GAS  C:\Users\SMART\AppData\Local\Temp\ccwDMaLv.s 			page 41


 1417 0000 034A     		ldr	r2, .L136
 1418 0002 D368     		ldr	r3, [r2, #12]
 1419 0004 23F01E03 		bic	r3, r3, #30
 1420 0008 43EA4003 		orr	r3, r3, r0, lsl #1
 1421 000c D360     		str	r3, [r2, #12]
 860:../../Drivers/STM32N6xx_HAL_Driver/Src/stm32n6xx_hal.c **** }
 1422              		.loc 1 860 1 is_stmt 0 view .LVU260
 1423 000e 7047     		bx	lr
 1424              	.L137:
 1425              		.align	2
 1426              	.L136:
 1427 0010 00800056 		.word	1442873344
 1428              		.cfi_endproc
 1429              	.LFE901:
 1431              		.section	.text.HAL_SYSCFG_GetTCMRWMarginInput,"ax",%progbits
 1432              		.align	1
 1433              		.global	HAL_SYSCFG_GetTCMRWMarginInput
 1434              		.syntax unified
 1435              		.thumb
 1436              		.thumb_func
 1438              	HAL_SYSCFG_GetTCMRWMarginInput:
 1439              	.LVL47:
 1440              	.LFB902:
 861:../../Drivers/STM32N6xx_HAL_Driver/Src/stm32n6xx_hal.c **** 
 862:../../Drivers/STM32N6xx_HAL_Driver/Src/stm32n6xx_hal.c **** /**
 863:../../Drivers/STM32N6xx_HAL_Driver/Src/stm32n6xx_hal.c ****   * @brief  Get the External RW margin inputs for TCM memories.
 864:../../Drivers/STM32N6xx_HAL_Driver/Src/stm32n6xx_hal.c ****   * @param  pTcmRwMarginInput pointer to return Input Margin.
 865:../../Drivers/STM32N6xx_HAL_Driver/Src/stm32n6xx_hal.c ****   * @retval HAL status.
 866:../../Drivers/STM32N6xx_HAL_Driver/Src/stm32n6xx_hal.c ****   */
 867:../../Drivers/STM32N6xx_HAL_Driver/Src/stm32n6xx_hal.c **** HAL_StatusTypeDef HAL_SYSCFG_GetTCMRWMarginInput(uint32_t *pTcmRwMarginInput)
 868:../../Drivers/STM32N6xx_HAL_Driver/Src/stm32n6xx_hal.c **** {
 1441              		.loc 1 868 1 is_stmt 1 view -0
 1442              		.cfi_startproc
 1443              		@ args = 0, pretend = 0, frame = 0
 1444              		@ frame_needed = 0, uses_anonymous_args = 0
 1445              		@ link register save eliminated.
 869:../../Drivers/STM32N6xx_HAL_Driver/Src/stm32n6xx_hal.c ****   /* Check null pointer */
 870:../../Drivers/STM32N6xx_HAL_Driver/Src/stm32n6xx_hal.c ****   if (pTcmRwMarginInput == NULL)
 1446              		.loc 1 870 3 view .LVU262
 1447              		.loc 1 870 6 is_stmt 0 view .LVU263
 1448 0000 30B1     		cbz	r0, .L140
 871:../../Drivers/STM32N6xx_HAL_Driver/Src/stm32n6xx_hal.c ****   {
 872:../../Drivers/STM32N6xx_HAL_Driver/Src/stm32n6xx_hal.c ****     return HAL_ERROR;
 873:../../Drivers/STM32N6xx_HAL_Driver/Src/stm32n6xx_hal.c ****   }
 874:../../Drivers/STM32N6xx_HAL_Driver/Src/stm32n6xx_hal.c **** 
 875:../../Drivers/STM32N6xx_HAL_Driver/Src/stm32n6xx_hal.c ****   /* Get the non-secure lock state */
 876:../../Drivers/STM32N6xx_HAL_Driver/Src/stm32n6xx_hal.c ****   *pTcmRwMarginInput = (READ_BIT(SYSCFG->CM55RWMCR, SYSCFG_CM55RWMCR_RM_TCM) >> 1U);
 1449              		.loc 1 876 3 is_stmt 1 view .LVU264
 1450              		.loc 1 876 25 is_stmt 0 view .LVU265
 1451 0002 044B     		ldr	r3, .L141
 1452 0004 DB68     		ldr	r3, [r3, #12]
 1453              		.loc 1 876 78 view .LVU266
 1454 0006 C3F34303 		ubfx	r3, r3, #1, #4
 1455              		.loc 1 876 22 view .LVU267
 1456 000a 0360     		str	r3, [r0]
 877:../../Drivers/STM32N6xx_HAL_Driver/Src/stm32n6xx_hal.c **** 
 878:../../Drivers/STM32N6xx_HAL_Driver/Src/stm32n6xx_hal.c ****   return HAL_OK;
ARM GAS  C:\Users\SMART\AppData\Local\Temp\ccwDMaLv.s 			page 42


 1457              		.loc 1 878 3 is_stmt 1 view .LVU268
 1458              		.loc 1 878 10 is_stmt 0 view .LVU269
 1459 000c 0020     		movs	r0, #0
 1460              	.LVL48:
 1461              		.loc 1 878 10 view .LVU270
 1462 000e 7047     		bx	lr
 1463              	.LVL49:
 1464              	.L140:
 872:../../Drivers/STM32N6xx_HAL_Driver/Src/stm32n6xx_hal.c ****   }
 1465              		.loc 1 872 12 view .LVU271
 1466 0010 0120     		movs	r0, #1
 1467              	.LVL50:
 879:../../Drivers/STM32N6xx_HAL_Driver/Src/stm32n6xx_hal.c **** }
 1468              		.loc 1 879 1 view .LVU272
 1469 0012 7047     		bx	lr
 1470              	.L142:
 1471              		.align	2
 1472              	.L141:
 1473 0014 00800056 		.word	1442873344
 1474              		.cfi_endproc
 1475              	.LFE902:
 1477              		.section	.text.HAL_SYSCFG_SetTCMBiasingLevel,"ax",%progbits
 1478              		.align	1
 1479              		.global	HAL_SYSCFG_SetTCMBiasingLevel
 1480              		.syntax unified
 1481              		.thumb
 1482              		.thumb_func
 1484              	HAL_SYSCFG_SetTCMBiasingLevel:
 1485              	.LVL51:
 1486              	.LFB903:
 880:../../Drivers/STM32N6xx_HAL_Driver/Src/stm32n6xx_hal.c **** 
 881:../../Drivers/STM32N6xx_HAL_Driver/Src/stm32n6xx_hal.c **** /**
 882:../../Drivers/STM32N6xx_HAL_Driver/Src/stm32n6xx_hal.c ****   * @brief  Set the TCM biasing level adjust input.
 883:../../Drivers/STM32N6xx_HAL_Driver/Src/stm32n6xx_hal.c ****   * @param  Level Biaising level adjust input
 884:../../Drivers/STM32N6xx_HAL_Driver/Src/stm32n6xx_hal.c ****   *         This parameter can one of the following values:
 885:../../Drivers/STM32N6xx_HAL_Driver/Src/stm32n6xx_hal.c ****   *            @arg SYSCFG_TCM_BIAS_VNOM : Biasing level adjust input recommended for Vnom
 886:../../Drivers/STM32N6xx_HAL_Driver/Src/stm32n6xx_hal.c ****   *            @arg SYSCFG_TCM_BIAS_VNOM_10_PERCENT : Biasing level adjust input recommended for Vn
 887:../../Drivers/STM32N6xx_HAL_Driver/Src/stm32n6xx_hal.c ****   * @retval None
 888:../../Drivers/STM32N6xx_HAL_Driver/Src/stm32n6xx_hal.c ****   */
 889:../../Drivers/STM32N6xx_HAL_Driver/Src/stm32n6xx_hal.c **** void HAL_SYSCFG_SetTCMBiasingLevel(uint32_t Level)
 890:../../Drivers/STM32N6xx_HAL_Driver/Src/stm32n6xx_hal.c **** {
 1487              		.loc 1 890 1 is_stmt 1 view -0
 1488              		.cfi_startproc
 1489              		@ args = 0, pretend = 0, frame = 0
 1490              		@ frame_needed = 0, uses_anonymous_args = 0
 1491              		@ link register save eliminated.
 891:../../Drivers/STM32N6xx_HAL_Driver/Src/stm32n6xx_hal.c ****   /* Check the parameters */
 892:../../Drivers/STM32N6xx_HAL_Driver/Src/stm32n6xx_hal.c ****   assert_param(IS_SYSCFG_TCM_BIASING_LEVEL(Level));
 1492              		.loc 1 892 3 view .LVU274
 893:../../Drivers/STM32N6xx_HAL_Driver/Src/stm32n6xx_hal.c **** 
 894:../../Drivers/STM32N6xx_HAL_Driver/Src/stm32n6xx_hal.c ****   MODIFY_REG(SYSCFG->CM55RWMCR, SYSCFG_CM55RWMCR_BC2_TCM | SYSCFG_CM55RWMCR_BC1_TCM, Level);
 1493              		.loc 1 894 3 view .LVU275
 1494 0000 034A     		ldr	r2, .L144
 1495 0002 D368     		ldr	r3, [r2, #12]
 1496 0004 23F06003 		bic	r3, r3, #96
 1497 0008 0343     		orrs	r3, r3, r0
 1498 000a D360     		str	r3, [r2, #12]
ARM GAS  C:\Users\SMART\AppData\Local\Temp\ccwDMaLv.s 			page 43


 895:../../Drivers/STM32N6xx_HAL_Driver/Src/stm32n6xx_hal.c **** }
 1499              		.loc 1 895 1 is_stmt 0 view .LVU276
 1500 000c 7047     		bx	lr
 1501              	.L145:
 1502 000e 00BF     		.align	2
 1503              	.L144:
 1504 0010 00800056 		.word	1442873344
 1505              		.cfi_endproc
 1506              	.LFE903:
 1508              		.section	.text.HAL_SYSCFG_GetTCMBiasingLevel,"ax",%progbits
 1509              		.align	1
 1510              		.global	HAL_SYSCFG_GetTCMBiasingLevel
 1511              		.syntax unified
 1512              		.thumb
 1513              		.thumb_func
 1515              	HAL_SYSCFG_GetTCMBiasingLevel:
 1516              	.LVL52:
 1517              	.LFB904:
 896:../../Drivers/STM32N6xx_HAL_Driver/Src/stm32n6xx_hal.c **** 
 897:../../Drivers/STM32N6xx_HAL_Driver/Src/stm32n6xx_hal.c **** /**
 898:../../Drivers/STM32N6xx_HAL_Driver/Src/stm32n6xx_hal.c ****   * @brief  Get the TCM biasing level adjust input.
 899:../../Drivers/STM32N6xx_HAL_Driver/Src/stm32n6xx_hal.c ****   * @param  pLevel Pointer to return biasing level adjust input.
 900:../../Drivers/STM32N6xx_HAL_Driver/Src/stm32n6xx_hal.c ****   *         The return value can be one of the following values:
 901:../../Drivers/STM32N6xx_HAL_Driver/Src/stm32n6xx_hal.c ****   *            @arg SYSCFG_CACHE_BIAS_VNOM boot 0 pin: Biasing level adjust input recommended for V
 902:../../Drivers/STM32N6xx_HAL_Driver/Src/stm32n6xx_hal.c ****   *            @arg SYSCFG_CACHE_BIAS_VNOM_10_PERCENT: Biasing level adjust input recommended for V
 903:../../Drivers/STM32N6xx_HAL_Driver/Src/stm32n6xx_hal.c ****   * @retval HAL status
 904:../../Drivers/STM32N6xx_HAL_Driver/Src/stm32n6xx_hal.c ****   */
 905:../../Drivers/STM32N6xx_HAL_Driver/Src/stm32n6xx_hal.c **** HAL_StatusTypeDef HAL_SYSCFG_GetTCMBiasingLevel(uint32_t *pLevel)
 906:../../Drivers/STM32N6xx_HAL_Driver/Src/stm32n6xx_hal.c **** {
 1518              		.loc 1 906 1 is_stmt 1 view -0
 1519              		.cfi_startproc
 1520              		@ args = 0, pretend = 0, frame = 0
 1521              		@ frame_needed = 0, uses_anonymous_args = 0
 1522              		@ link register save eliminated.
 907:../../Drivers/STM32N6xx_HAL_Driver/Src/stm32n6xx_hal.c ****   /* Check null pointer */
 908:../../Drivers/STM32N6xx_HAL_Driver/Src/stm32n6xx_hal.c ****   if (pLevel == NULL)
 1523              		.loc 1 908 3 view .LVU278
 1524              		.loc 1 908 6 is_stmt 0 view .LVU279
 1525 0000 30B1     		cbz	r0, .L148
 909:../../Drivers/STM32N6xx_HAL_Driver/Src/stm32n6xx_hal.c ****   {
 910:../../Drivers/STM32N6xx_HAL_Driver/Src/stm32n6xx_hal.c ****     return HAL_ERROR;
 911:../../Drivers/STM32N6xx_HAL_Driver/Src/stm32n6xx_hal.c ****   }
 912:../../Drivers/STM32N6xx_HAL_Driver/Src/stm32n6xx_hal.c **** 
 913:../../Drivers/STM32N6xx_HAL_Driver/Src/stm32n6xx_hal.c ****   /* Get the non-secure lock state */
 914:../../Drivers/STM32N6xx_HAL_Driver/Src/stm32n6xx_hal.c ****   *pLevel = READ_BIT(SYSCFG->CM55RWMCR, SYSCFG_CM55RWMCR_BC2_TCM | SYSCFG_CM55RWMCR_BC1_TCM);
 1526              		.loc 1 914 3 is_stmt 1 view .LVU280
 1527              		.loc 1 914 13 is_stmt 0 view .LVU281
 1528 0002 044B     		ldr	r3, .L149
 1529 0004 DB68     		ldr	r3, [r3, #12]
 1530 0006 03F06003 		and	r3, r3, #96
 1531              		.loc 1 914 11 view .LVU282
 1532 000a 0360     		str	r3, [r0]
 915:../../Drivers/STM32N6xx_HAL_Driver/Src/stm32n6xx_hal.c **** 
 916:../../Drivers/STM32N6xx_HAL_Driver/Src/stm32n6xx_hal.c ****   return HAL_OK;
 1533              		.loc 1 916 3 is_stmt 1 view .LVU283
 1534              		.loc 1 916 10 is_stmt 0 view .LVU284
 1535 000c 0020     		movs	r0, #0
ARM GAS  C:\Users\SMART\AppData\Local\Temp\ccwDMaLv.s 			page 44


 1536              	.LVL53:
 1537              		.loc 1 916 10 view .LVU285
 1538 000e 7047     		bx	lr
 1539              	.LVL54:
 1540              	.L148:
 910:../../Drivers/STM32N6xx_HAL_Driver/Src/stm32n6xx_hal.c ****   }
 1541              		.loc 1 910 12 view .LVU286
 1542 0010 0120     		movs	r0, #1
 1543              	.LVL55:
 917:../../Drivers/STM32N6xx_HAL_Driver/Src/stm32n6xx_hal.c **** }
 1544              		.loc 1 917 1 view .LVU287
 1545 0012 7047     		bx	lr
 1546              	.L150:
 1547              		.align	2
 1548              	.L149:
 1549 0014 00800056 		.word	1442873344
 1550              		.cfi_endproc
 1551              	.LFE904:
 1553              		.section	.text.HAL_SYSCFG_EnableCacheExternalMargin,"ax",%progbits
 1554              		.align	1
 1555              		.global	HAL_SYSCFG_EnableCacheExternalMargin
 1556              		.syntax unified
 1557              		.thumb
 1558              		.thumb_func
 1560              	HAL_SYSCFG_EnableCacheExternalMargin:
 1561              	.LFB905:
 918:../../Drivers/STM32N6xx_HAL_Driver/Src/stm32n6xx_hal.c **** 
 919:../../Drivers/STM32N6xx_HAL_Driver/Src/stm32n6xx_hal.c **** /**
 920:../../Drivers/STM32N6xx_HAL_Driver/Src/stm32n6xx_hal.c ****   * @brief  Enable external RW margin inputs for Cache memories
 921:../../Drivers/STM32N6xx_HAL_Driver/Src/stm32n6xx_hal.c ****   * @retval None
 922:../../Drivers/STM32N6xx_HAL_Driver/Src/stm32n6xx_hal.c ****   */
 923:../../Drivers/STM32N6xx_HAL_Driver/Src/stm32n6xx_hal.c **** void HAL_SYSCFG_EnableCacheExternalMargin(void)
 924:../../Drivers/STM32N6xx_HAL_Driver/Src/stm32n6xx_hal.c **** {
 1562              		.loc 1 924 1 is_stmt 1 view -0
 1563              		.cfi_startproc
 1564              		@ args = 0, pretend = 0, frame = 0
 1565              		@ frame_needed = 0, uses_anonymous_args = 0
 1566              		@ link register save eliminated.
 925:../../Drivers/STM32N6xx_HAL_Driver/Src/stm32n6xx_hal.c ****   SET_BIT(SYSCFG->CM55RWMCR, SYSCFG_CM55RWMCR_RME_CACHE);
 1567              		.loc 1 925 3 view .LVU289
 1568 0000 024A     		ldr	r2, .L152
 1569 0002 D368     		ldr	r3, [r2, #12]
 1570 0004 43F08003 		orr	r3, r3, #128
 1571 0008 D360     		str	r3, [r2, #12]
 926:../../Drivers/STM32N6xx_HAL_Driver/Src/stm32n6xx_hal.c **** }
 1572              		.loc 1 926 1 is_stmt 0 view .LVU290
 1573 000a 7047     		bx	lr
 1574              	.L153:
 1575              		.align	2
 1576              	.L152:
 1577 000c 00800056 		.word	1442873344
 1578              		.cfi_endproc
 1579              	.LFE905:
 1581              		.section	.text.HAL_SYSCFG_DisableCacheExternalMargin,"ax",%progbits
 1582              		.align	1
 1583              		.global	HAL_SYSCFG_DisableCacheExternalMargin
 1584              		.syntax unified
ARM GAS  C:\Users\SMART\AppData\Local\Temp\ccwDMaLv.s 			page 45


 1585              		.thumb
 1586              		.thumb_func
 1588              	HAL_SYSCFG_DisableCacheExternalMargin:
 1589              	.LFB906:
 927:../../Drivers/STM32N6xx_HAL_Driver/Src/stm32n6xx_hal.c **** 
 928:../../Drivers/STM32N6xx_HAL_Driver/Src/stm32n6xx_hal.c **** /**
 929:../../Drivers/STM32N6xx_HAL_Driver/Src/stm32n6xx_hal.c ****   * @brief  Disable external RW margin inputs for Cache memories
 930:../../Drivers/STM32N6xx_HAL_Driver/Src/stm32n6xx_hal.c ****   * @retval None
 931:../../Drivers/STM32N6xx_HAL_Driver/Src/stm32n6xx_hal.c ****   */
 932:../../Drivers/STM32N6xx_HAL_Driver/Src/stm32n6xx_hal.c **** void HAL_SYSCFG_DisableCacheExternalMargin(void)
 933:../../Drivers/STM32N6xx_HAL_Driver/Src/stm32n6xx_hal.c **** {
 1590              		.loc 1 933 1 is_stmt 1 view -0
 1591              		.cfi_startproc
 1592              		@ args = 0, pretend = 0, frame = 0
 1593              		@ frame_needed = 0, uses_anonymous_args = 0
 1594              		@ link register save eliminated.
 934:../../Drivers/STM32N6xx_HAL_Driver/Src/stm32n6xx_hal.c ****   CLEAR_BIT(SYSCFG->CM55RWMCR, SYSCFG_CM55RWMCR_RME_CACHE);
 1595              		.loc 1 934 3 view .LVU292
 1596 0000 024A     		ldr	r2, .L155
 1597 0002 D368     		ldr	r3, [r2, #12]
 1598 0004 23F08003 		bic	r3, r3, #128
 1599 0008 D360     		str	r3, [r2, #12]
 935:../../Drivers/STM32N6xx_HAL_Driver/Src/stm32n6xx_hal.c **** }
 1600              		.loc 1 935 1 is_stmt 0 view .LVU293
 1601 000a 7047     		bx	lr
 1602              	.L156:
 1603              		.align	2
 1604              	.L155:
 1605 000c 00800056 		.word	1442873344
 1606              		.cfi_endproc
 1607              	.LFE906:
 1609              		.section	.text.HAL_SYSCFG_SetCacheRWMarginInput,"ax",%progbits
 1610              		.align	1
 1611              		.global	HAL_SYSCFG_SetCacheRWMarginInput
 1612              		.syntax unified
 1613              		.thumb
 1614              		.thumb_func
 1616              	HAL_SYSCFG_SetCacheRWMarginInput:
 1617              	.LVL56:
 1618              	.LFB907:
 936:../../Drivers/STM32N6xx_HAL_Driver/Src/stm32n6xx_hal.c **** 
 937:../../Drivers/STM32N6xx_HAL_Driver/Src/stm32n6xx_hal.c **** /**
 938:../../Drivers/STM32N6xx_HAL_Driver/Src/stm32n6xx_hal.c ****   * @brief  Set External RW margin inputs for Cache memories.
 939:../../Drivers/STM32N6xx_HAL_Driver/Src/stm32n6xx_hal.c ****   * @param  CacheRWMarginInput Input Margin.
 940:../../Drivers/STM32N6xx_HAL_Driver/Src/stm32n6xx_hal.c ****   * @retval None
 941:../../Drivers/STM32N6xx_HAL_Driver/Src/stm32n6xx_hal.c ****   */
 942:../../Drivers/STM32N6xx_HAL_Driver/Src/stm32n6xx_hal.c **** void HAL_SYSCFG_SetCacheRWMarginInput(uint32_t CacheRWMarginInput)
 943:../../Drivers/STM32N6xx_HAL_Driver/Src/stm32n6xx_hal.c **** {
 1619              		.loc 1 943 1 is_stmt 1 view -0
 1620              		.cfi_startproc
 1621              		@ args = 0, pretend = 0, frame = 0
 1622              		@ frame_needed = 0, uses_anonymous_args = 0
 1623              		@ link register save eliminated.
 944:../../Drivers/STM32N6xx_HAL_Driver/Src/stm32n6xx_hal.c ****   assert_param(IS_TCM_MARGIN_INPUT(CacheRWMarginInput));
 1624              		.loc 1 944 3 view .LVU295
 945:../../Drivers/STM32N6xx_HAL_Driver/Src/stm32n6xx_hal.c **** 
 946:../../Drivers/STM32N6xx_HAL_Driver/Src/stm32n6xx_hal.c ****   MODIFY_REG(SYSCFG->CM55RWMCR, SYSCFG_CM55RWMCR_RM_CACHE, (CacheRWMarginInput << 8U));
ARM GAS  C:\Users\SMART\AppData\Local\Temp\ccwDMaLv.s 			page 46


 1625              		.loc 1 946 3 view .LVU296
 1626 0000 034A     		ldr	r2, .L158
 1627 0002 D368     		ldr	r3, [r2, #12]
 1628 0004 23F47063 		bic	r3, r3, #3840
 1629 0008 43EA0023 		orr	r3, r3, r0, lsl #8
 1630 000c D360     		str	r3, [r2, #12]
 947:../../Drivers/STM32N6xx_HAL_Driver/Src/stm32n6xx_hal.c **** }
 1631              		.loc 1 947 1 is_stmt 0 view .LVU297
 1632 000e 7047     		bx	lr
 1633              	.L159:
 1634              		.align	2
 1635              	.L158:
 1636 0010 00800056 		.word	1442873344
 1637              		.cfi_endproc
 1638              	.LFE907:
 1640              		.section	.text.HAL_SYSCFG_GetCacheRWMarginInput,"ax",%progbits
 1641              		.align	1
 1642              		.global	HAL_SYSCFG_GetCacheRWMarginInput
 1643              		.syntax unified
 1644              		.thumb
 1645              		.thumb_func
 1647              	HAL_SYSCFG_GetCacheRWMarginInput:
 1648              	.LVL57:
 1649              	.LFB908:
 948:../../Drivers/STM32N6xx_HAL_Driver/Src/stm32n6xx_hal.c **** 
 949:../../Drivers/STM32N6xx_HAL_Driver/Src/stm32n6xx_hal.c **** /**
 950:../../Drivers/STM32N6xx_HAL_Driver/Src/stm32n6xx_hal.c ****   * @brief  Get the External RW margin inputs for Cache memories.
 951:../../Drivers/STM32N6xx_HAL_Driver/Src/stm32n6xx_hal.c ****   * @param  pCacheRWMarginInput Pointer to return Input Margin.
 952:../../Drivers/STM32N6xx_HAL_Driver/Src/stm32n6xx_hal.c ****   * @retval HAL status
 953:../../Drivers/STM32N6xx_HAL_Driver/Src/stm32n6xx_hal.c ****   */
 954:../../Drivers/STM32N6xx_HAL_Driver/Src/stm32n6xx_hal.c **** HAL_StatusTypeDef HAL_SYSCFG_GetCacheRWMarginInput(uint32_t *pCacheRWMarginInput)
 955:../../Drivers/STM32N6xx_HAL_Driver/Src/stm32n6xx_hal.c **** {
 1650              		.loc 1 955 1 is_stmt 1 view -0
 1651              		.cfi_startproc
 1652              		@ args = 0, pretend = 0, frame = 0
 1653              		@ frame_needed = 0, uses_anonymous_args = 0
 1654              		@ link register save eliminated.
 956:../../Drivers/STM32N6xx_HAL_Driver/Src/stm32n6xx_hal.c ****   /* Check null pointer */
 957:../../Drivers/STM32N6xx_HAL_Driver/Src/stm32n6xx_hal.c ****   if (pCacheRWMarginInput == NULL)
 1655              		.loc 1 957 3 view .LVU299
 1656              		.loc 1 957 6 is_stmt 0 view .LVU300
 1657 0000 30B1     		cbz	r0, .L162
 958:../../Drivers/STM32N6xx_HAL_Driver/Src/stm32n6xx_hal.c ****   {
 959:../../Drivers/STM32N6xx_HAL_Driver/Src/stm32n6xx_hal.c ****     return HAL_ERROR;
 960:../../Drivers/STM32N6xx_HAL_Driver/Src/stm32n6xx_hal.c ****   }
 961:../../Drivers/STM32N6xx_HAL_Driver/Src/stm32n6xx_hal.c **** 
 962:../../Drivers/STM32N6xx_HAL_Driver/Src/stm32n6xx_hal.c ****   /* Get the non-secure lock state */
 963:../../Drivers/STM32N6xx_HAL_Driver/Src/stm32n6xx_hal.c ****   *pCacheRWMarginInput = (READ_BIT(SYSCFG->CM55RWMCR, SYSCFG_CM55RWMCR_RM_CACHE) >> 8U);
 1658              		.loc 1 963 3 is_stmt 1 view .LVU301
 1659              		.loc 1 963 27 is_stmt 0 view .LVU302
 1660 0002 044B     		ldr	r3, .L163
 1661 0004 DB68     		ldr	r3, [r3, #12]
 1662              		.loc 1 963 82 view .LVU303
 1663 0006 C3F30323 		ubfx	r3, r3, #8, #4
 1664              		.loc 1 963 24 view .LVU304
 1665 000a 0360     		str	r3, [r0]
 964:../../Drivers/STM32N6xx_HAL_Driver/Src/stm32n6xx_hal.c **** 
ARM GAS  C:\Users\SMART\AppData\Local\Temp\ccwDMaLv.s 			page 47


 965:../../Drivers/STM32N6xx_HAL_Driver/Src/stm32n6xx_hal.c ****   return HAL_OK;
 1666              		.loc 1 965 3 is_stmt 1 view .LVU305
 1667              		.loc 1 965 10 is_stmt 0 view .LVU306
 1668 000c 0020     		movs	r0, #0
 1669              	.LVL58:
 1670              		.loc 1 965 10 view .LVU307
 1671 000e 7047     		bx	lr
 1672              	.LVL59:
 1673              	.L162:
 959:../../Drivers/STM32N6xx_HAL_Driver/Src/stm32n6xx_hal.c ****   }
 1674              		.loc 1 959 12 view .LVU308
 1675 0010 0120     		movs	r0, #1
 1676              	.LVL60:
 966:../../Drivers/STM32N6xx_HAL_Driver/Src/stm32n6xx_hal.c **** }
 1677              		.loc 1 966 1 view .LVU309
 1678 0012 7047     		bx	lr
 1679              	.L164:
 1680              		.align	2
 1681              	.L163:
 1682 0014 00800056 		.word	1442873344
 1683              		.cfi_endproc
 1684              	.LFE908:
 1686              		.section	.text.HAL_SYSCFG_SetCacheBiasingLevel,"ax",%progbits
 1687              		.align	1
 1688              		.global	HAL_SYSCFG_SetCacheBiasingLevel
 1689              		.syntax unified
 1690              		.thumb
 1691              		.thumb_func
 1693              	HAL_SYSCFG_SetCacheBiasingLevel:
 1694              	.LVL61:
 1695              	.LFB909:
 967:../../Drivers/STM32N6xx_HAL_Driver/Src/stm32n6xx_hal.c **** 
 968:../../Drivers/STM32N6xx_HAL_Driver/Src/stm32n6xx_hal.c **** /**
 969:../../Drivers/STM32N6xx_HAL_Driver/Src/stm32n6xx_hal.c ****   * @brief  Set the Cache biasing level adjust input.
 970:../../Drivers/STM32N6xx_HAL_Driver/Src/stm32n6xx_hal.c ****   * @param  Level the biaising level adjust input
 971:../../Drivers/STM32N6xx_HAL_Driver/Src/stm32n6xx_hal.c ****   *         This parameter can one of the following values:
 972:../../Drivers/STM32N6xx_HAL_Driver/Src/stm32n6xx_hal.c ****   *            @arg SYSCFG_CACHE_BIAS_VNOM: Biasing level adjust input recommended for Vnom
 973:../../Drivers/STM32N6xx_HAL_Driver/Src/stm32n6xx_hal.c ****   *            @arg SYSCFG_CACHE_BIAS_VNOM_10_PERCENT: Biasing level adjust input recommended for V
 974:../../Drivers/STM32N6xx_HAL_Driver/Src/stm32n6xx_hal.c ****   * @retval None
 975:../../Drivers/STM32N6xx_HAL_Driver/Src/stm32n6xx_hal.c ****   */
 976:../../Drivers/STM32N6xx_HAL_Driver/Src/stm32n6xx_hal.c **** void HAL_SYSCFG_SetCacheBiasingLevel(uint32_t Level)
 977:../../Drivers/STM32N6xx_HAL_Driver/Src/stm32n6xx_hal.c **** {
 1696              		.loc 1 977 1 is_stmt 1 view -0
 1697              		.cfi_startproc
 1698              		@ args = 0, pretend = 0, frame = 0
 1699              		@ frame_needed = 0, uses_anonymous_args = 0
 1700              		@ link register save eliminated.
 978:../../Drivers/STM32N6xx_HAL_Driver/Src/stm32n6xx_hal.c ****   /* Check the parameters */
 979:../../Drivers/STM32N6xx_HAL_Driver/Src/stm32n6xx_hal.c ****   assert_param(IS_SYSCFG_CACHE_BIASING_LEVEL(Level));
 1701              		.loc 1 979 3 view .LVU311
 980:../../Drivers/STM32N6xx_HAL_Driver/Src/stm32n6xx_hal.c **** 
 981:../../Drivers/STM32N6xx_HAL_Driver/Src/stm32n6xx_hal.c ****   MODIFY_REG(SYSCFG->CM55RWMCR, SYSCFG_CM55RWMCR_BC2_CACHE | SYSCFG_CM55RWMCR_BC1_CACHE, Level);
 1702              		.loc 1 981 3 view .LVU312
 1703 0000 034A     		ldr	r2, .L166
 1704 0002 D368     		ldr	r3, [r2, #12]
 1705 0004 23F44053 		bic	r3, r3, #12288
 1706 0008 0343     		orrs	r3, r3, r0
ARM GAS  C:\Users\SMART\AppData\Local\Temp\ccwDMaLv.s 			page 48


 1707 000a D360     		str	r3, [r2, #12]
 982:../../Drivers/STM32N6xx_HAL_Driver/Src/stm32n6xx_hal.c **** }
 1708              		.loc 1 982 1 is_stmt 0 view .LVU313
 1709 000c 7047     		bx	lr
 1710              	.L167:
 1711 000e 00BF     		.align	2
 1712              	.L166:
 1713 0010 00800056 		.word	1442873344
 1714              		.cfi_endproc
 1715              	.LFE909:
 1717              		.section	.text.HAL_SYSCFG_GetCacheBiasingLevel,"ax",%progbits
 1718              		.align	1
 1719              		.global	HAL_SYSCFG_GetCacheBiasingLevel
 1720              		.syntax unified
 1721              		.thumb
 1722              		.thumb_func
 1724              	HAL_SYSCFG_GetCacheBiasingLevel:
 1725              	.LVL62:
 1726              	.LFB910:
 983:../../Drivers/STM32N6xx_HAL_Driver/Src/stm32n6xx_hal.c **** 
 984:../../Drivers/STM32N6xx_HAL_Driver/Src/stm32n6xx_hal.c **** /**
 985:../../Drivers/STM32N6xx_HAL_Driver/Src/stm32n6xx_hal.c ****   * @brief  Get the Cache biasing level adjust input.
 986:../../Drivers/STM32N6xx_HAL_Driver/Src/stm32n6xx_hal.c ****   * @param  pLevel Pointer to return Cache biasing level adjust input.
 987:../../Drivers/STM32N6xx_HAL_Driver/Src/stm32n6xx_hal.c ****   *         The return value can be onr of the following values:
 988:../../Drivers/STM32N6xx_HAL_Driver/Src/stm32n6xx_hal.c ****   *            @arg SYSCFG_CACHE_BIAS_VNOM boot: Biasing level adjust input recommended for Vnom
 989:../../Drivers/STM32N6xx_HAL_Driver/Src/stm32n6xx_hal.c ****   *            @arg SYSCFG_CACHE_BIAS_VNOM_10_PERCENT: Biasing level adjust input recommended for V
 990:../../Drivers/STM32N6xx_HAL_Driver/Src/stm32n6xx_hal.c ****   * @retval HAL status
 991:../../Drivers/STM32N6xx_HAL_Driver/Src/stm32n6xx_hal.c ****   */
 992:../../Drivers/STM32N6xx_HAL_Driver/Src/stm32n6xx_hal.c **** HAL_StatusTypeDef HAL_SYSCFG_GetCacheBiasingLevel(uint32_t *pLevel)
 993:../../Drivers/STM32N6xx_HAL_Driver/Src/stm32n6xx_hal.c **** {
 1727              		.loc 1 993 1 is_stmt 1 view -0
 1728              		.cfi_startproc
 1729              		@ args = 0, pretend = 0, frame = 0
 1730              		@ frame_needed = 0, uses_anonymous_args = 0
 1731              		@ link register save eliminated.
 994:../../Drivers/STM32N6xx_HAL_Driver/Src/stm32n6xx_hal.c ****   /* Check null pointer */
 995:../../Drivers/STM32N6xx_HAL_Driver/Src/stm32n6xx_hal.c ****   if (pLevel == NULL)
 1732              		.loc 1 995 3 view .LVU315
 1733              		.loc 1 995 6 is_stmt 0 view .LVU316
 1734 0000 30B1     		cbz	r0, .L170
 996:../../Drivers/STM32N6xx_HAL_Driver/Src/stm32n6xx_hal.c ****   {
 997:../../Drivers/STM32N6xx_HAL_Driver/Src/stm32n6xx_hal.c ****     return HAL_ERROR;
 998:../../Drivers/STM32N6xx_HAL_Driver/Src/stm32n6xx_hal.c ****   }
 999:../../Drivers/STM32N6xx_HAL_Driver/Src/stm32n6xx_hal.c **** 
1000:../../Drivers/STM32N6xx_HAL_Driver/Src/stm32n6xx_hal.c ****   /* Get the cache biaising */
1001:../../Drivers/STM32N6xx_HAL_Driver/Src/stm32n6xx_hal.c ****   *pLevel = READ_BIT(SYSCFG->CM55RWMCR, SYSCFG_CM55RWMCR_BC2_CACHE | SYSCFG_CM55RWMCR_BC1_CACHE);
 1735              		.loc 1 1001 3 is_stmt 1 view .LVU317
 1736              		.loc 1 1001 13 is_stmt 0 view .LVU318
 1737 0002 044B     		ldr	r3, .L171
 1738 0004 DB68     		ldr	r3, [r3, #12]
 1739 0006 03F44053 		and	r3, r3, #12288
 1740              		.loc 1 1001 11 view .LVU319
 1741 000a 0360     		str	r3, [r0]
1002:../../Drivers/STM32N6xx_HAL_Driver/Src/stm32n6xx_hal.c **** 
1003:../../Drivers/STM32N6xx_HAL_Driver/Src/stm32n6xx_hal.c ****   return HAL_OK;
 1742              		.loc 1 1003 3 is_stmt 1 view .LVU320
 1743              		.loc 1 1003 10 is_stmt 0 view .LVU321
ARM GAS  C:\Users\SMART\AppData\Local\Temp\ccwDMaLv.s 			page 49


 1744 000c 0020     		movs	r0, #0
 1745              	.LVL63:
 1746              		.loc 1 1003 10 view .LVU322
 1747 000e 7047     		bx	lr
 1748              	.LVL64:
 1749              	.L170:
 997:../../Drivers/STM32N6xx_HAL_Driver/Src/stm32n6xx_hal.c ****   }
 1750              		.loc 1 997 12 view .LVU323
 1751 0010 0120     		movs	r0, #1
 1752              	.LVL65:
1004:../../Drivers/STM32N6xx_HAL_Driver/Src/stm32n6xx_hal.c **** }
 1753              		.loc 1 1004 1 view .LVU324
 1754 0012 7047     		bx	lr
 1755              	.L172:
 1756              		.align	2
 1757              	.L171:
 1758 0014 00800056 		.word	1442873344
 1759              		.cfi_endproc
 1760              	.LFE910:
 1762              		.section	.text.HAL_SYSCFG_SetSVTORAddress,"ax",%progbits
 1763              		.align	1
 1764              		.global	HAL_SYSCFG_SetSVTORAddress
 1765              		.syntax unified
 1766              		.thumb
 1767              		.thumb_func
 1769              	HAL_SYSCFG_SetSVTORAddress:
 1770              	.LVL66:
 1771              	.LFB911:
1005:../../Drivers/STM32N6xx_HAL_Driver/Src/stm32n6xx_hal.c **** 
1006:../../Drivers/STM32N6xx_HAL_Driver/Src/stm32n6xx_hal.c **** /**
1007:../../Drivers/STM32N6xx_HAL_Driver/Src/stm32n6xx_hal.c ****   * @brief  Set the secure vector table (VTOR) address.
1008:../../Drivers/STM32N6xx_HAL_Driver/Src/stm32n6xx_hal.c ****   * @note   Secure vector table address must be set to ensure return from STANDBY state.
1009:../../Drivers/STM32N6xx_HAL_Driver/Src/stm32n6xx_hal.c ****   * @param  Address Secure VTOR address
1010:../../Drivers/STM32N6xx_HAL_Driver/Src/stm32n6xx_hal.c ****   * @retval None
1011:../../Drivers/STM32N6xx_HAL_Driver/Src/stm32n6xx_hal.c ****   */
1012:../../Drivers/STM32N6xx_HAL_Driver/Src/stm32n6xx_hal.c **** void HAL_SYSCFG_SetSVTORAddress(uint32_t Address)
1013:../../Drivers/STM32N6xx_HAL_Driver/Src/stm32n6xx_hal.c **** {
 1772              		.loc 1 1013 1 is_stmt 1 view -0
 1773              		.cfi_startproc
 1774              		@ args = 0, pretend = 0, frame = 0
 1775              		@ frame_needed = 0, uses_anonymous_args = 0
 1776              		@ link register save eliminated.
1014:../../Drivers/STM32N6xx_HAL_Driver/Src/stm32n6xx_hal.c ****   /* Check the parameters */
1015:../../Drivers/STM32N6xx_HAL_Driver/Src/stm32n6xx_hal.c ****   assert_param(IS_VTOR_ADDRESS(Address));
 1777              		.loc 1 1015 3 view .LVU326
1016:../../Drivers/STM32N6xx_HAL_Driver/Src/stm32n6xx_hal.c **** 
1017:../../Drivers/STM32N6xx_HAL_Driver/Src/stm32n6xx_hal.c ****   WRITE_REG(SYSCFG->INITSVTORCR, Address);
 1778              		.loc 1 1017 3 view .LVU327
 1779 0000 014B     		ldr	r3, .L174
 1780 0002 1861     		str	r0, [r3, #16]
1018:../../Drivers/STM32N6xx_HAL_Driver/Src/stm32n6xx_hal.c **** }
 1781              		.loc 1 1018 1 is_stmt 0 view .LVU328
 1782 0004 7047     		bx	lr
 1783              	.L175:
 1784 0006 00BF     		.align	2
 1785              	.L174:
 1786 0008 00800056 		.word	1442873344
ARM GAS  C:\Users\SMART\AppData\Local\Temp\ccwDMaLv.s 			page 50


 1787              		.cfi_endproc
 1788              	.LFE911:
 1790              		.section	.text.HAL_SYSCFG_GetSVTORAddress,"ax",%progbits
 1791              		.align	1
 1792              		.global	HAL_SYSCFG_GetSVTORAddress
 1793              		.syntax unified
 1794              		.thumb
 1795              		.thumb_func
 1797              	HAL_SYSCFG_GetSVTORAddress:
 1798              	.LVL67:
 1799              	.LFB912:
1019:../../Drivers/STM32N6xx_HAL_Driver/Src/stm32n6xx_hal.c **** 
1020:../../Drivers/STM32N6xx_HAL_Driver/Src/stm32n6xx_hal.c **** /**
1021:../../Drivers/STM32N6xx_HAL_Driver/Src/stm32n6xx_hal.c ****   * @brief  Get the secure vector table (VTOR) address.
1022:../../Drivers/STM32N6xx_HAL_Driver/Src/stm32n6xx_hal.c ****   * @param  pAddress  Pointer to return the secure vector table address
1023:../../Drivers/STM32N6xx_HAL_Driver/Src/stm32n6xx_hal.c ****   * @retval HAL status
1024:../../Drivers/STM32N6xx_HAL_Driver/Src/stm32n6xx_hal.c ****   */
1025:../../Drivers/STM32N6xx_HAL_Driver/Src/stm32n6xx_hal.c **** HAL_StatusTypeDef HAL_SYSCFG_GetSVTORAddress(uint32_t *pAddress)
1026:../../Drivers/STM32N6xx_HAL_Driver/Src/stm32n6xx_hal.c **** {
 1800              		.loc 1 1026 1 is_stmt 1 view -0
 1801              		.cfi_startproc
 1802              		@ args = 0, pretend = 0, frame = 0
 1803              		@ frame_needed = 0, uses_anonymous_args = 0
 1804              		@ link register save eliminated.
1027:../../Drivers/STM32N6xx_HAL_Driver/Src/stm32n6xx_hal.c ****   /* Check null pointer */
1028:../../Drivers/STM32N6xx_HAL_Driver/Src/stm32n6xx_hal.c ****   if (pAddress == NULL)
 1805              		.loc 1 1028 3 view .LVU330
 1806              		.loc 1 1028 6 is_stmt 0 view .LVU331
 1807 0000 20B1     		cbz	r0, .L178
1029:../../Drivers/STM32N6xx_HAL_Driver/Src/stm32n6xx_hal.c ****   {
1030:../../Drivers/STM32N6xx_HAL_Driver/Src/stm32n6xx_hal.c ****     return HAL_ERROR;
1031:../../Drivers/STM32N6xx_HAL_Driver/Src/stm32n6xx_hal.c ****   }
1032:../../Drivers/STM32N6xx_HAL_Driver/Src/stm32n6xx_hal.c **** 
1033:../../Drivers/STM32N6xx_HAL_Driver/Src/stm32n6xx_hal.c ****   /* Get the secure VTOR address */
1034:../../Drivers/STM32N6xx_HAL_Driver/Src/stm32n6xx_hal.c ****   *pAddress = READ_REG(SYSCFG->INITSVTORCR);
 1808              		.loc 1 1034 3 is_stmt 1 view .LVU332
 1809              		.loc 1 1034 15 is_stmt 0 view .LVU333
 1810 0002 034A     		ldr	r2, .L179
 1811 0004 1269     		ldr	r2, [r2, #16]
 1812              		.loc 1 1034 13 view .LVU334
 1813 0006 0260     		str	r2, [r0]
1035:../../Drivers/STM32N6xx_HAL_Driver/Src/stm32n6xx_hal.c **** 
1036:../../Drivers/STM32N6xx_HAL_Driver/Src/stm32n6xx_hal.c ****   return HAL_OK;
 1814              		.loc 1 1036 3 is_stmt 1 view .LVU335
 1815              		.loc 1 1036 10 is_stmt 0 view .LVU336
 1816 0008 0020     		movs	r0, #0
 1817              	.LVL68:
 1818              		.loc 1 1036 10 view .LVU337
 1819 000a 7047     		bx	lr
 1820              	.LVL69:
 1821              	.L178:
1030:../../Drivers/STM32N6xx_HAL_Driver/Src/stm32n6xx_hal.c ****   }
 1822              		.loc 1 1030 12 view .LVU338
 1823 000c 0120     		movs	r0, #1
 1824              	.LVL70:
1037:../../Drivers/STM32N6xx_HAL_Driver/Src/stm32n6xx_hal.c **** }
 1825              		.loc 1 1037 1 view .LVU339
ARM GAS  C:\Users\SMART\AppData\Local\Temp\ccwDMaLv.s 			page 51


 1826 000e 7047     		bx	lr
 1827              	.L180:
 1828              		.align	2
 1829              	.L179:
 1830 0010 00800056 		.word	1442873344
 1831              		.cfi_endproc
 1832              	.LFE912:
 1834              		.section	.text.HAL_SYSCFG_SetNSVTORAddress,"ax",%progbits
 1835              		.align	1
 1836              		.global	HAL_SYSCFG_SetNSVTORAddress
 1837              		.syntax unified
 1838              		.thumb
 1839              		.thumb_func
 1841              	HAL_SYSCFG_SetNSVTORAddress:
 1842              	.LVL71:
 1843              	.LFB913:
1038:../../Drivers/STM32N6xx_HAL_Driver/Src/stm32n6xx_hal.c **** 
1039:../../Drivers/STM32N6xx_HAL_Driver/Src/stm32n6xx_hal.c **** /**
1040:../../Drivers/STM32N6xx_HAL_Driver/Src/stm32n6xx_hal.c ****   * @brief  Set the non secure vector table (VTOR) address.
1041:../../Drivers/STM32N6xx_HAL_Driver/Src/stm32n6xx_hal.c ****   * @param  Address Non-secure VTOR address
1042:../../Drivers/STM32N6xx_HAL_Driver/Src/stm32n6xx_hal.c ****   * @retval None
1043:../../Drivers/STM32N6xx_HAL_Driver/Src/stm32n6xx_hal.c ****   */
1044:../../Drivers/STM32N6xx_HAL_Driver/Src/stm32n6xx_hal.c **** void HAL_SYSCFG_SetNSVTORAddress(uint32_t Address)
1045:../../Drivers/STM32N6xx_HAL_Driver/Src/stm32n6xx_hal.c **** {
 1844              		.loc 1 1045 1 is_stmt 1 view -0
 1845              		.cfi_startproc
 1846              		@ args = 0, pretend = 0, frame = 0
 1847              		@ frame_needed = 0, uses_anonymous_args = 0
 1848              		@ link register save eliminated.
1046:../../Drivers/STM32N6xx_HAL_Driver/Src/stm32n6xx_hal.c ****   /* Check the parameters */
1047:../../Drivers/STM32N6xx_HAL_Driver/Src/stm32n6xx_hal.c ****   assert_param(IS_VTOR_ADDRESS(Address));
 1849              		.loc 1 1047 3 view .LVU341
1048:../../Drivers/STM32N6xx_HAL_Driver/Src/stm32n6xx_hal.c **** 
1049:../../Drivers/STM32N6xx_HAL_Driver/Src/stm32n6xx_hal.c ****   WRITE_REG(SYSCFG->INITNSVTORCR, Address);
 1850              		.loc 1 1049 3 view .LVU342
 1851 0000 014B     		ldr	r3, .L182
 1852 0002 5861     		str	r0, [r3, #20]
1050:../../Drivers/STM32N6xx_HAL_Driver/Src/stm32n6xx_hal.c **** }
 1853              		.loc 1 1050 1 is_stmt 0 view .LVU343
 1854 0004 7047     		bx	lr
 1855              	.L183:
 1856 0006 00BF     		.align	2
 1857              	.L182:
 1858 0008 00800056 		.word	1442873344
 1859              		.cfi_endproc
 1860              	.LFE913:
 1862              		.section	.text.HAL_SYSCFG_GetNSVTORAddress,"ax",%progbits
 1863              		.align	1
 1864              		.global	HAL_SYSCFG_GetNSVTORAddress
 1865              		.syntax unified
 1866              		.thumb
 1867              		.thumb_func
 1869              	HAL_SYSCFG_GetNSVTORAddress:
 1870              	.LVL72:
 1871              	.LFB914:
1051:../../Drivers/STM32N6xx_HAL_Driver/Src/stm32n6xx_hal.c **** 
1052:../../Drivers/STM32N6xx_HAL_Driver/Src/stm32n6xx_hal.c **** /**
ARM GAS  C:\Users\SMART\AppData\Local\Temp\ccwDMaLv.s 			page 52


1053:../../Drivers/STM32N6xx_HAL_Driver/Src/stm32n6xx_hal.c ****   * @brief  Get the non secure VTOR address.
1054:../../Drivers/STM32N6xx_HAL_Driver/Src/stm32n6xx_hal.c ****   * @param  pAddress  Pointer to return the non-secure vector table address
1055:../../Drivers/STM32N6xx_HAL_Driver/Src/stm32n6xx_hal.c ****   * @retval HAL status
1056:../../Drivers/STM32N6xx_HAL_Driver/Src/stm32n6xx_hal.c ****   */
1057:../../Drivers/STM32N6xx_HAL_Driver/Src/stm32n6xx_hal.c **** HAL_StatusTypeDef HAL_SYSCFG_GetNSVTORAddress(uint32_t *pAddress)
1058:../../Drivers/STM32N6xx_HAL_Driver/Src/stm32n6xx_hal.c **** {
 1872              		.loc 1 1058 1 is_stmt 1 view -0
 1873              		.cfi_startproc
 1874              		@ args = 0, pretend = 0, frame = 0
 1875              		@ frame_needed = 0, uses_anonymous_args = 0
 1876              		@ link register save eliminated.
1059:../../Drivers/STM32N6xx_HAL_Driver/Src/stm32n6xx_hal.c ****   /* Check null pointer */
1060:../../Drivers/STM32N6xx_HAL_Driver/Src/stm32n6xx_hal.c ****   if (pAddress == NULL)
 1877              		.loc 1 1060 3 view .LVU345
 1878              		.loc 1 1060 6 is_stmt 0 view .LVU346
 1879 0000 20B1     		cbz	r0, .L186
1061:../../Drivers/STM32N6xx_HAL_Driver/Src/stm32n6xx_hal.c ****   {
1062:../../Drivers/STM32N6xx_HAL_Driver/Src/stm32n6xx_hal.c ****     return HAL_ERROR;
1063:../../Drivers/STM32N6xx_HAL_Driver/Src/stm32n6xx_hal.c ****   }
1064:../../Drivers/STM32N6xx_HAL_Driver/Src/stm32n6xx_hal.c **** 
1065:../../Drivers/STM32N6xx_HAL_Driver/Src/stm32n6xx_hal.c ****   /* Get the non-secure VTOR address */
1066:../../Drivers/STM32N6xx_HAL_Driver/Src/stm32n6xx_hal.c ****   *pAddress = READ_REG(SYSCFG->INITNSVTORCR);
 1880              		.loc 1 1066 3 is_stmt 1 view .LVU347
 1881              		.loc 1 1066 15 is_stmt 0 view .LVU348
 1882 0002 034A     		ldr	r2, .L187
 1883 0004 5269     		ldr	r2, [r2, #20]
 1884              		.loc 1 1066 13 view .LVU349
 1885 0006 0260     		str	r2, [r0]
1067:../../Drivers/STM32N6xx_HAL_Driver/Src/stm32n6xx_hal.c **** 
1068:../../Drivers/STM32N6xx_HAL_Driver/Src/stm32n6xx_hal.c ****   return HAL_OK;
 1886              		.loc 1 1068 3 is_stmt 1 view .LVU350
 1887              		.loc 1 1068 10 is_stmt 0 view .LVU351
 1888 0008 0020     		movs	r0, #0
 1889              	.LVL73:
 1890              		.loc 1 1068 10 view .LVU352
 1891 000a 7047     		bx	lr
 1892              	.LVL74:
 1893              	.L186:
1062:../../Drivers/STM32N6xx_HAL_Driver/Src/stm32n6xx_hal.c ****   }
 1894              		.loc 1 1062 12 view .LVU353
 1895 000c 0120     		movs	r0, #1
 1896              	.LVL75:
1069:../../Drivers/STM32N6xx_HAL_Driver/Src/stm32n6xx_hal.c **** }
 1897              		.loc 1 1069 1 view .LVU354
 1898 000e 7047     		bx	lr
 1899              	.L188:
 1900              		.align	2
 1901              	.L187:
 1902 0010 00800056 		.word	1442873344
 1903              		.cfi_endproc
 1904              	.LFE914:
 1906              		.section	.text.HAL_SYSCFG_EnablePowerOnReset,"ax",%progbits
 1907              		.align	1
 1908              		.global	HAL_SYSCFG_EnablePowerOnReset
 1909              		.syntax unified
 1910              		.thumb
 1911              		.thumb_func
ARM GAS  C:\Users\SMART\AppData\Local\Temp\ccwDMaLv.s 			page 53


 1913              	HAL_SYSCFG_EnablePowerOnReset:
 1914              	.LFB915:
1070:../../Drivers/STM32N6xx_HAL_Driver/Src/stm32n6xx_hal.c **** 
1071:../../Drivers/STM32N6xx_HAL_Driver/Src/stm32n6xx_hal.c **** /**
1072:../../Drivers/STM32N6xx_HAL_Driver/Src/stm32n6xx_hal.c ****   * @brief  Enable the Power-on reset.
1073:../../Drivers/STM32N6xx_HAL_Driver/Src/stm32n6xx_hal.c ****   * @note   Select power-on reset to apply on core upon SYSRESETREQ (NVIC_SystemReset())
1074:../../Drivers/STM32N6xx_HAL_Driver/Src/stm32n6xx_hal.c ****   * @retval None
1075:../../Drivers/STM32N6xx_HAL_Driver/Src/stm32n6xx_hal.c ****   */
1076:../../Drivers/STM32N6xx_HAL_Driver/Src/stm32n6xx_hal.c **** void HAL_SYSCFG_EnablePowerOnReset(void)
1077:../../Drivers/STM32N6xx_HAL_Driver/Src/stm32n6xx_hal.c **** {
 1915              		.loc 1 1077 1 is_stmt 1 view -0
 1916              		.cfi_startproc
 1917              		@ args = 0, pretend = 0, frame = 0
 1918              		@ frame_needed = 0, uses_anonymous_args = 0
 1919              		@ link register save eliminated.
1078:../../Drivers/STM32N6xx_HAL_Driver/Src/stm32n6xx_hal.c ****   SET_BIT(SYSCFG->CM55RSTCR, SYSCFG_CM55RSTCR_CORE_RESET_TYPE);
 1920              		.loc 1 1078 3 view .LVU356
 1921 0000 024A     		ldr	r2, .L190
 1922 0002 9369     		ldr	r3, [r2, #24]
 1923 0004 43F00103 		orr	r3, r3, #1
 1924 0008 9361     		str	r3, [r2, #24]
1079:../../Drivers/STM32N6xx_HAL_Driver/Src/stm32n6xx_hal.c **** }
 1925              		.loc 1 1079 1 is_stmt 0 view .LVU357
 1926 000a 7047     		bx	lr
 1927              	.L191:
 1928              		.align	2
 1929              	.L190:
 1930 000c 00800056 		.word	1442873344
 1931              		.cfi_endproc
 1932              	.LFE915:
 1934              		.section	.text.HAL_SYSCFG_DisablePowerOnReset,"ax",%progbits
 1935              		.align	1
 1936              		.global	HAL_SYSCFG_DisablePowerOnReset
 1937              		.syntax unified
 1938              		.thumb
 1939              		.thumb_func
 1941              	HAL_SYSCFG_DisablePowerOnReset:
 1942              	.LFB916:
1080:../../Drivers/STM32N6xx_HAL_Driver/Src/stm32n6xx_hal.c **** 
1081:../../Drivers/STM32N6xx_HAL_Driver/Src/stm32n6xx_hal.c **** /**
1082:../../Drivers/STM32N6xx_HAL_Driver/Src/stm32n6xx_hal.c ****   * @brief  Disable the Power-on reset.
1083:../../Drivers/STM32N6xx_HAL_Driver/Src/stm32n6xx_hal.c ****   * @note   Select warm reset to apply on core upon SYSRESETREQ (NVIC_SystemReset())
1084:../../Drivers/STM32N6xx_HAL_Driver/Src/stm32n6xx_hal.c ****   * @retval None
1085:../../Drivers/STM32N6xx_HAL_Driver/Src/stm32n6xx_hal.c ****   */
1086:../../Drivers/STM32N6xx_HAL_Driver/Src/stm32n6xx_hal.c **** void HAL_SYSCFG_DisablePowerOnReset(void)
1087:../../Drivers/STM32N6xx_HAL_Driver/Src/stm32n6xx_hal.c **** {
 1943              		.loc 1 1087 1 is_stmt 1 view -0
 1944              		.cfi_startproc
 1945              		@ args = 0, pretend = 0, frame = 0
 1946              		@ frame_needed = 0, uses_anonymous_args = 0
 1947              		@ link register save eliminated.
1088:../../Drivers/STM32N6xx_HAL_Driver/Src/stm32n6xx_hal.c ****   CLEAR_BIT(SYSCFG->CM55RSTCR, SYSCFG_CM55RSTCR_CORE_RESET_TYPE);
 1948              		.loc 1 1088 3 view .LVU359
 1949 0000 024A     		ldr	r2, .L193
 1950 0002 9369     		ldr	r3, [r2, #24]
 1951 0004 23F00103 		bic	r3, r3, #1
 1952 0008 9361     		str	r3, [r2, #24]
ARM GAS  C:\Users\SMART\AppData\Local\Temp\ccwDMaLv.s 			page 54


1089:../../Drivers/STM32N6xx_HAL_Driver/Src/stm32n6xx_hal.c **** }
 1953              		.loc 1 1089 1 is_stmt 0 view .LVU360
 1954 000a 7047     		bx	lr
 1955              	.L194:
 1956              		.align	2
 1957              	.L193:
 1958 000c 00800056 		.word	1442873344
 1959              		.cfi_endproc
 1960              	.LFE916:
 1962              		.section	.text.HAL_SYSCFG_EnableLockupWarmResetonRCC,"ax",%progbits
 1963              		.align	1
 1964              		.global	HAL_SYSCFG_EnableLockupWarmResetonRCC
 1965              		.syntax unified
 1966              		.thumb
 1967              		.thumb_func
 1969              	HAL_SYSCFG_EnableLockupWarmResetonRCC:
 1970              	.LFB917:
1090:../../Drivers/STM32N6xx_HAL_Driver/Src/stm32n6xx_hal.c **** 
1091:../../Drivers/STM32N6xx_HAL_Driver/Src/stm32n6xx_hal.c **** /**
1092:../../Drivers/STM32N6xx_HAL_Driver/Src/stm32n6xx_hal.c ****   * @brief  Enable Lockup requests a warm reset to the RCC.
1093:../../Drivers/STM32N6xx_HAL_Driver/Src/stm32n6xx_hal.c ****   * @note   Select action to perform on a lockup state on the core
1094:../../Drivers/STM32N6xx_HAL_Driver/Src/stm32n6xx_hal.c ****   * @retval None
1095:../../Drivers/STM32N6xx_HAL_Driver/Src/stm32n6xx_hal.c ****   */
1096:../../Drivers/STM32N6xx_HAL_Driver/Src/stm32n6xx_hal.c **** void HAL_SYSCFG_EnableLockupWarmResetonRCC(void)
1097:../../Drivers/STM32N6xx_HAL_Driver/Src/stm32n6xx_hal.c **** {
 1971              		.loc 1 1097 1 is_stmt 1 view -0
 1972              		.cfi_startproc
 1973              		@ args = 0, pretend = 0, frame = 0
 1974              		@ frame_needed = 0, uses_anonymous_args = 0
 1975              		@ link register save eliminated.
1098:../../Drivers/STM32N6xx_HAL_Driver/Src/stm32n6xx_hal.c ****   SET_BIT(SYSCFG->CM55RSTCR, SYSCFG_CM55RSTCR_LOCKUP_RST_EN);
 1976              		.loc 1 1098 3 view .LVU362
 1977 0000 024A     		ldr	r2, .L196
 1978 0002 9369     		ldr	r3, [r2, #24]
 1979 0004 43F00203 		orr	r3, r3, #2
 1980 0008 9361     		str	r3, [r2, #24]
1099:../../Drivers/STM32N6xx_HAL_Driver/Src/stm32n6xx_hal.c **** }
 1981              		.loc 1 1099 1 is_stmt 0 view .LVU363
 1982 000a 7047     		bx	lr
 1983              	.L197:
 1984              		.align	2
 1985              	.L196:
 1986 000c 00800056 		.word	1442873344
 1987              		.cfi_endproc
 1988              	.LFE917:
 1990              		.section	.text.HAL_SYSCFG_DisableLockupWarmResetonRCC,"ax",%progbits
 1991              		.align	1
 1992              		.global	HAL_SYSCFG_DisableLockupWarmResetonRCC
 1993              		.syntax unified
 1994              		.thumb
 1995              		.thumb_func
 1997              	HAL_SYSCFG_DisableLockupWarmResetonRCC:
 1998              	.LFB918:
1100:../../Drivers/STM32N6xx_HAL_Driver/Src/stm32n6xx_hal.c **** 
1101:../../Drivers/STM32N6xx_HAL_Driver/Src/stm32n6xx_hal.c **** /**
1102:../../Drivers/STM32N6xx_HAL_Driver/Src/stm32n6xx_hal.c ****   * @brief  Disable Lockup requests a warm reset to the RCC.
1103:../../Drivers/STM32N6xx_HAL_Driver/Src/stm32n6xx_hal.c ****   * @note   Select action to perform on a lockup state on the core
ARM GAS  C:\Users\SMART\AppData\Local\Temp\ccwDMaLv.s 			page 55


1104:../../Drivers/STM32N6xx_HAL_Driver/Src/stm32n6xx_hal.c ****   * @retval None
1105:../../Drivers/STM32N6xx_HAL_Driver/Src/stm32n6xx_hal.c ****   */
1106:../../Drivers/STM32N6xx_HAL_Driver/Src/stm32n6xx_hal.c **** void HAL_SYSCFG_DisableLockupWarmResetonRCC(void)
1107:../../Drivers/STM32N6xx_HAL_Driver/Src/stm32n6xx_hal.c **** {
 1999              		.loc 1 1107 1 is_stmt 1 view -0
 2000              		.cfi_startproc
 2001              		@ args = 0, pretend = 0, frame = 0
 2002              		@ frame_needed = 0, uses_anonymous_args = 0
 2003              		@ link register save eliminated.
1108:../../Drivers/STM32N6xx_HAL_Driver/Src/stm32n6xx_hal.c ****   CLEAR_BIT(SYSCFG->CM55RSTCR, SYSCFG_CM55RSTCR_LOCKUP_RST_EN);
 2004              		.loc 1 1108 3 view .LVU365
 2005 0000 024A     		ldr	r2, .L199
 2006 0002 9369     		ldr	r3, [r2, #24]
 2007 0004 23F00203 		bic	r3, r3, #2
 2008 0008 9361     		str	r3, [r2, #24]
1109:../../Drivers/STM32N6xx_HAL_Driver/Src/stm32n6xx_hal.c **** }
 2009              		.loc 1 1109 1 is_stmt 0 view .LVU366
 2010 000a 7047     		bx	lr
 2011              	.L200:
 2012              		.align	2
 2013              	.L199:
 2014 000c 00800056 		.word	1442873344
 2015              		.cfi_endproc
 2016              	.LFE918:
 2018              		.section	.text.HAL_SYSCFG_EnableLockupGenerateNMI,"ax",%progbits
 2019              		.align	1
 2020              		.global	HAL_SYSCFG_EnableLockupGenerateNMI
 2021              		.syntax unified
 2022              		.thumb
 2023              		.thumb_func
 2025              	HAL_SYSCFG_EnableLockupGenerateNMI:
 2026              	.LFB919:
1110:../../Drivers/STM32N6xx_HAL_Driver/Src/stm32n6xx_hal.c **** 
1111:../../Drivers/STM32N6xx_HAL_Driver/Src/stm32n6xx_hal.c **** /**
1112:../../Drivers/STM32N6xx_HAL_Driver/Src/stm32n6xx_hal.c ****   * @brief  Enable Lockup generates a NMI on the core.
1113:../../Drivers/STM32N6xx_HAL_Driver/Src/stm32n6xx_hal.c ****   * @note   Select action to perform on a lockup state on the core
1114:../../Drivers/STM32N6xx_HAL_Driver/Src/stm32n6xx_hal.c ****   * @retval None
1115:../../Drivers/STM32N6xx_HAL_Driver/Src/stm32n6xx_hal.c ****   */
1116:../../Drivers/STM32N6xx_HAL_Driver/Src/stm32n6xx_hal.c **** void HAL_SYSCFG_EnableLockupGenerateNMI(void)
1117:../../Drivers/STM32N6xx_HAL_Driver/Src/stm32n6xx_hal.c **** {
 2027              		.loc 1 1117 1 is_stmt 1 view -0
 2028              		.cfi_startproc
 2029              		@ args = 0, pretend = 0, frame = 0
 2030              		@ frame_needed = 0, uses_anonymous_args = 0
 2031              		@ link register save eliminated.
1118:../../Drivers/STM32N6xx_HAL_Driver/Src/stm32n6xx_hal.c ****   SET_BIT(SYSCFG->CM55RSTCR, SYSCFG_CM55RSTCR_LOCKUP_NMI_EN);
 2032              		.loc 1 1118 3 view .LVU368
 2033 0000 024A     		ldr	r2, .L202
 2034 0002 9369     		ldr	r3, [r2, #24]
 2035 0004 43F00403 		orr	r3, r3, #4
 2036 0008 9361     		str	r3, [r2, #24]
1119:../../Drivers/STM32N6xx_HAL_Driver/Src/stm32n6xx_hal.c **** }
 2037              		.loc 1 1119 1 is_stmt 0 view .LVU369
 2038 000a 7047     		bx	lr
 2039              	.L203:
 2040              		.align	2
 2041              	.L202:
ARM GAS  C:\Users\SMART\AppData\Local\Temp\ccwDMaLv.s 			page 56


 2042 000c 00800056 		.word	1442873344
 2043              		.cfi_endproc
 2044              	.LFE919:
 2046              		.section	.text.HAL_SYSCFG_DisableLockupGenerateNMI,"ax",%progbits
 2047              		.align	1
 2048              		.global	HAL_SYSCFG_DisableLockupGenerateNMI
 2049              		.syntax unified
 2050              		.thumb
 2051              		.thumb_func
 2053              	HAL_SYSCFG_DisableLockupGenerateNMI:
 2054              	.LFB920:
1120:../../Drivers/STM32N6xx_HAL_Driver/Src/stm32n6xx_hal.c **** 
1121:../../Drivers/STM32N6xx_HAL_Driver/Src/stm32n6xx_hal.c **** /**
1122:../../Drivers/STM32N6xx_HAL_Driver/Src/stm32n6xx_hal.c ****   * @brief  Disable Lockup generates a NMI on the core.
1123:../../Drivers/STM32N6xx_HAL_Driver/Src/stm32n6xx_hal.c ****   * @note   Select action to perform on a lockup state on the core
1124:../../Drivers/STM32N6xx_HAL_Driver/Src/stm32n6xx_hal.c ****   * @retval None
1125:../../Drivers/STM32N6xx_HAL_Driver/Src/stm32n6xx_hal.c ****   */
1126:../../Drivers/STM32N6xx_HAL_Driver/Src/stm32n6xx_hal.c **** void HAL_SYSCFG_DisableLockupGenerateNMI(void)
1127:../../Drivers/STM32N6xx_HAL_Driver/Src/stm32n6xx_hal.c **** {
 2055              		.loc 1 1127 1 is_stmt 1 view -0
 2056              		.cfi_startproc
 2057              		@ args = 0, pretend = 0, frame = 0
 2058              		@ frame_needed = 0, uses_anonymous_args = 0
 2059              		@ link register save eliminated.
1128:../../Drivers/STM32N6xx_HAL_Driver/Src/stm32n6xx_hal.c ****   CLEAR_BIT(SYSCFG->CM55RSTCR, SYSCFG_CM55RSTCR_LOCKUP_NMI_EN);
 2060              		.loc 1 1128 3 view .LVU371
 2061 0000 024A     		ldr	r2, .L205
 2062 0002 9369     		ldr	r3, [r2, #24]
 2063 0004 23F00403 		bic	r3, r3, #4
 2064 0008 9361     		str	r3, [r2, #24]
1129:../../Drivers/STM32N6xx_HAL_Driver/Src/stm32n6xx_hal.c **** }
 2065              		.loc 1 1129 1 is_stmt 0 view .LVU372
 2066 000a 7047     		bx	lr
 2067              	.L206:
 2068              		.align	2
 2069              	.L205:
 2070 000c 00800056 		.word	1442873344
 2071              		.cfi_endproc
 2072              	.LFE920:
 2074              		.section	.text.HAL_SYSCFG_ReEnableWritePostingErrorCapture,"ax",%progbits
 2075              		.align	1
 2076              		.global	HAL_SYSCFG_ReEnableWritePostingErrorCapture
 2077              		.syntax unified
 2078              		.thumb
 2079              		.thumb_func
 2081              	HAL_SYSCFG_ReEnableWritePostingErrorCapture:
 2082              	.LFB921:
1130:../../Drivers/STM32N6xx_HAL_Driver/Src/stm32n6xx_hal.c **** 
1131:../../Drivers/STM32N6xx_HAL_Driver/Src/stm32n6xx_hal.c **** /**
1132:../../Drivers/STM32N6xx_HAL_Driver/Src/stm32n6xx_hal.c ****   * @brief   Enable the capture mechanism upon write posting buffer error.
1133:../../Drivers/STM32N6xx_HAL_Driver/Src/stm32n6xx_hal.c ****   * @note    Upon error detection, the erroneous address is logged on and
1134:../../Drivers/STM32N6xx_HAL_Driver/Src/stm32n6xx_hal.c ****   *          the capture mechanism is on hold.
1135:../../Drivers/STM32N6xx_HAL_Driver/Src/stm32n6xx_hal.c ****   *          The address error can be read thanks to
1136:../../Drivers/STM32N6xx_HAL_Driver/Src/stm32n6xx_hal.c ****   *          HAL_SYSCFG_GetAddressWritePostingBuffer.
1137:../../Drivers/STM32N6xx_HAL_Driver/Src/stm32n6xx_hal.c ****   *  @note   This function enables the error capture mechanism again.
1138:../../Drivers/STM32N6xx_HAL_Driver/Src/stm32n6xx_hal.c ****   *  @retval HAL status.
1139:../../Drivers/STM32N6xx_HAL_Driver/Src/stm32n6xx_hal.c ****   */
ARM GAS  C:\Users\SMART\AppData\Local\Temp\ccwDMaLv.s 			page 57


1140:../../Drivers/STM32N6xx_HAL_Driver/Src/stm32n6xx_hal.c **** HAL_StatusTypeDef HAL_SYSCFG_ReEnableWritePostingErrorCapture(void)
1141:../../Drivers/STM32N6xx_HAL_Driver/Src/stm32n6xx_hal.c **** {
 2083              		.loc 1 1141 1 is_stmt 1 view -0
 2084              		.cfi_startproc
 2085              		@ args = 0, pretend = 0, frame = 0
 2086              		@ frame_needed = 0, uses_anonymous_args = 0
 2087              		@ link register save eliminated.
1142:../../Drivers/STM32N6xx_HAL_Driver/Src/stm32n6xx_hal.c ****   /* Re-enable HW write posting detection mechanism */
1143:../../Drivers/STM32N6xx_HAL_Driver/Src/stm32n6xx_hal.c ****   SET_BIT(SYSCFG->CM55PAHBWPR, SYSCFG_CM55PAHBWPR_PAHB_ERROR_ACK);
 2088              		.loc 1 1143 3 view .LVU374
 2089 0000 054B     		ldr	r3, .L208
 2090 0002 DA69     		ldr	r2, [r3, #28]
 2091 0004 42F00102 		orr	r2, r2, #1
 2092 0008 DA61     		str	r2, [r3, #28]
1144:../../Drivers/STM32N6xx_HAL_Driver/Src/stm32n6xx_hal.c **** 
1145:../../Drivers/STM32N6xx_HAL_Driver/Src/stm32n6xx_hal.c ****   CLEAR_BIT(SYSCFG->CM55PAHBWPR, SYSCFG_CM55PAHBWPR_PAHB_ERROR_ACK);
 2093              		.loc 1 1145 3 view .LVU375
 2094 000a DA69     		ldr	r2, [r3, #28]
 2095 000c 22F00102 		bic	r2, r2, #1
 2096 0010 DA61     		str	r2, [r3, #28]
1146:../../Drivers/STM32N6xx_HAL_Driver/Src/stm32n6xx_hal.c **** 
1147:../../Drivers/STM32N6xx_HAL_Driver/Src/stm32n6xx_hal.c ****   return HAL_OK;
 2097              		.loc 1 1147 3 view .LVU376
1148:../../Drivers/STM32N6xx_HAL_Driver/Src/stm32n6xx_hal.c **** }
 2098              		.loc 1 1148 1 is_stmt 0 view .LVU377
 2099 0012 0020     		movs	r0, #0
 2100 0014 7047     		bx	lr
 2101              	.L209:
 2102 0016 00BF     		.align	2
 2103              	.L208:
 2104 0018 00800056 		.word	1442873344
 2105              		.cfi_endproc
 2106              	.LFE921:
 2108              		.section	.text.HAL_SYSCFG_EnableVENCRAMReserved,"ax",%progbits
 2109              		.align	1
 2110              		.global	HAL_SYSCFG_EnableVENCRAMReserved
 2111              		.syntax unified
 2112              		.thumb
 2113              		.thumb_func
 2115              	HAL_SYSCFG_EnableVENCRAMReserved:
 2116              	.LFB922:
1149:../../Drivers/STM32N6xx_HAL_Driver/Src/stm32n6xx_hal.c **** 
1150:../../Drivers/STM32N6xx_HAL_Driver/Src/stm32n6xx_hal.c **** #if defined(VENC)
1151:../../Drivers/STM32N6xx_HAL_Driver/Src/stm32n6xx_hal.c **** /**
1152:../../Drivers/STM32N6xx_HAL_Driver/Src/stm32n6xx_hal.c ****   * @brief  Reserve the VENCRAM allocation to VENC.
1153:../../Drivers/STM32N6xx_HAL_Driver/Src/stm32n6xx_hal.c ****   * @retval None
1154:../../Drivers/STM32N6xx_HAL_Driver/Src/stm32n6xx_hal.c ****   */
1155:../../Drivers/STM32N6xx_HAL_Driver/Src/stm32n6xx_hal.c **** void HAL_SYSCFG_EnableVENCRAMReserved(void)
1156:../../Drivers/STM32N6xx_HAL_Driver/Src/stm32n6xx_hal.c **** {
 2117              		.loc 1 1156 1 is_stmt 1 view -0
 2118              		.cfi_startproc
 2119              		@ args = 0, pretend = 0, frame = 0
 2120              		@ frame_needed = 0, uses_anonymous_args = 0
 2121              		@ link register save eliminated.
1157:../../Drivers/STM32N6xx_HAL_Driver/Src/stm32n6xx_hal.c ****   CLEAR_BIT(SYSCFG->VENCRAMCR, SYSCFG_VENCRAMCR_VENCRAM_EN);
 2122              		.loc 1 1157 3 view .LVU379
 2123 0000 024A     		ldr	r2, .L211
ARM GAS  C:\Users\SMART\AppData\Local\Temp\ccwDMaLv.s 			page 58


 2124 0002 136A     		ldr	r3, [r2, #32]
 2125 0004 23F00103 		bic	r3, r3, #1
 2126 0008 1362     		str	r3, [r2, #32]
1158:../../Drivers/STM32N6xx_HAL_Driver/Src/stm32n6xx_hal.c **** }
 2127              		.loc 1 1158 1 is_stmt 0 view .LVU380
 2128 000a 7047     		bx	lr
 2129              	.L212:
 2130              		.align	2
 2131              	.L211:
 2132 000c 00800056 		.word	1442873344
 2133              		.cfi_endproc
 2134              	.LFE922:
 2136              		.section	.text.HAL_SYSCFG_DisableVENCRAMReserved,"ax",%progbits
 2137              		.align	1
 2138              		.global	HAL_SYSCFG_DisableVENCRAMReserved
 2139              		.syntax unified
 2140              		.thumb
 2141              		.thumb_func
 2143              	HAL_SYSCFG_DisableVENCRAMReserved:
 2144              	.LFB923:
1159:../../Drivers/STM32N6xx_HAL_Driver/Src/stm32n6xx_hal.c **** 
1160:../../Drivers/STM32N6xx_HAL_Driver/Src/stm32n6xx_hal.c **** /**
1161:../../Drivers/STM32N6xx_HAL_Driver/Src/stm32n6xx_hal.c ****   * @brief  Release the VENCRAM allocation to VENC (any use allowed).
1162:../../Drivers/STM32N6xx_HAL_Driver/Src/stm32n6xx_hal.c ****   * @retval None
1163:../../Drivers/STM32N6xx_HAL_Driver/Src/stm32n6xx_hal.c ****   */
1164:../../Drivers/STM32N6xx_HAL_Driver/Src/stm32n6xx_hal.c **** void HAL_SYSCFG_DisableVENCRAMReserved(void)
1165:../../Drivers/STM32N6xx_HAL_Driver/Src/stm32n6xx_hal.c **** {
 2145              		.loc 1 1165 1 is_stmt 1 view -0
 2146              		.cfi_startproc
 2147              		@ args = 0, pretend = 0, frame = 0
 2148              		@ frame_needed = 0, uses_anonymous_args = 0
 2149              		@ link register save eliminated.
1166:../../Drivers/STM32N6xx_HAL_Driver/Src/stm32n6xx_hal.c ****   SET_BIT(SYSCFG->VENCRAMCR, SYSCFG_VENCRAMCR_VENCRAM_EN);
 2150              		.loc 1 1166 3 view .LVU382
 2151 0000 024A     		ldr	r2, .L214
 2152 0002 136A     		ldr	r3, [r2, #32]
 2153 0004 43F00103 		orr	r3, r3, #1
 2154 0008 1362     		str	r3, [r2, #32]
1167:../../Drivers/STM32N6xx_HAL_Driver/Src/stm32n6xx_hal.c **** }
 2155              		.loc 1 1167 1 is_stmt 0 view .LVU383
 2156 000a 7047     		bx	lr
 2157              	.L215:
 2158              		.align	2
 2159              	.L214:
 2160 000c 00800056 		.word	1442873344
 2161              		.cfi_endproc
 2162              	.LFE923:
 2164              		.section	.text.HAL_SYSCFG_EnableCRYPPotentialTamper,"ax",%progbits
 2165              		.align	1
 2166              		.global	HAL_SYSCFG_EnableCRYPPotentialTamper
 2167              		.syntax unified
 2168              		.thumb
 2169              		.thumb_func
 2171              	HAL_SYSCFG_EnableCRYPPotentialTamper:
 2172              	.LFB924:
1168:../../Drivers/STM32N6xx_HAL_Driver/Src/stm32n6xx_hal.c **** 
1169:../../Drivers/STM32N6xx_HAL_Driver/Src/stm32n6xx_hal.c **** #endif /* VENC */
ARM GAS  C:\Users\SMART\AppData\Local\Temp\ccwDMaLv.s 			page 59


1170:../../Drivers/STM32N6xx_HAL_Driver/Src/stm32n6xx_hal.c **** 
1171:../../Drivers/STM32N6xx_HAL_Driver/Src/stm32n6xx_hal.c **** /**
1172:../../Drivers/STM32N6xx_HAL_Driver/Src/stm32n6xx_hal.c ****   * @brief  Enable PKA, SAES, CRYP1/2, and HASH reset, in case of potential tamper
1173:../../Drivers/STM32N6xx_HAL_Driver/Src/stm32n6xx_hal.c ****   * @retval None
1174:../../Drivers/STM32N6xx_HAL_Driver/Src/stm32n6xx_hal.c ****   */
1175:../../Drivers/STM32N6xx_HAL_Driver/Src/stm32n6xx_hal.c **** void HAL_SYSCFG_EnableCRYPPotentialTamper(void)
1176:../../Drivers/STM32N6xx_HAL_Driver/Src/stm32n6xx_hal.c **** {
 2173              		.loc 1 1176 1 is_stmt 1 view -0
 2174              		.cfi_startproc
 2175              		@ args = 0, pretend = 0, frame = 0
 2176              		@ frame_needed = 0, uses_anonymous_args = 0
 2177              		@ link register save eliminated.
1177:../../Drivers/STM32N6xx_HAL_Driver/Src/stm32n6xx_hal.c ****   CLEAR_BIT(SYSCFG->POTTAMPRSTCR, SYSCFG_POTTAMPRSTCR_POTTAMPERSETMASK);
 2178              		.loc 1 1177 3 view .LVU385
 2179 0000 024A     		ldr	r2, .L217
 2180 0002 536A     		ldr	r3, [r2, #36]
 2181 0004 23F00103 		bic	r3, r3, #1
 2182 0008 5362     		str	r3, [r2, #36]
1178:../../Drivers/STM32N6xx_HAL_Driver/Src/stm32n6xx_hal.c **** }
 2183              		.loc 1 1178 1 is_stmt 0 view .LVU386
 2184 000a 7047     		bx	lr
 2185              	.L218:
 2186              		.align	2
 2187              	.L217:
 2188 000c 00800056 		.word	1442873344
 2189              		.cfi_endproc
 2190              	.LFE924:
 2192              		.section	.text.HAL_SYSCFG_DisableCRYPPotentialTamper,"ax",%progbits
 2193              		.align	1
 2194              		.global	HAL_SYSCFG_DisableCRYPPotentialTamper
 2195              		.syntax unified
 2196              		.thumb
 2197              		.thumb_func
 2199              	HAL_SYSCFG_DisableCRYPPotentialTamper:
 2200              	.LFB925:
1179:../../Drivers/STM32N6xx_HAL_Driver/Src/stm32n6xx_hal.c **** 
1180:../../Drivers/STM32N6xx_HAL_Driver/Src/stm32n6xx_hal.c **** /**
1181:../../Drivers/STM32N6xx_HAL_Driver/Src/stm32n6xx_hal.c ****   * @brief  Disable PKA, SAES, CRYP1/2, and HASH reset, in case of potential tamper
1182:../../Drivers/STM32N6xx_HAL_Driver/Src/stm32n6xx_hal.c ****   * @retval None
1183:../../Drivers/STM32N6xx_HAL_Driver/Src/stm32n6xx_hal.c ****   */
1184:../../Drivers/STM32N6xx_HAL_Driver/Src/stm32n6xx_hal.c **** void HAL_SYSCFG_DisableCRYPPotentialTamper(void)
1185:../../Drivers/STM32N6xx_HAL_Driver/Src/stm32n6xx_hal.c **** {
 2201              		.loc 1 1185 1 is_stmt 1 view -0
 2202              		.cfi_startproc
 2203              		@ args = 0, pretend = 0, frame = 0
 2204              		@ frame_needed = 0, uses_anonymous_args = 0
 2205              		@ link register save eliminated.
1186:../../Drivers/STM32N6xx_HAL_Driver/Src/stm32n6xx_hal.c ****   SET_BIT(SYSCFG->POTTAMPRSTCR, SYSCFG_POTTAMPRSTCR_POTTAMPERSETMASK);
 2206              		.loc 1 1186 3 view .LVU388
 2207 0000 024A     		ldr	r2, .L220
 2208 0002 536A     		ldr	r3, [r2, #36]
 2209 0004 43F00103 		orr	r3, r3, #1
 2210 0008 5362     		str	r3, [r2, #36]
1187:../../Drivers/STM32N6xx_HAL_Driver/Src/stm32n6xx_hal.c **** }
 2211              		.loc 1 1187 1 is_stmt 0 view .LVU389
 2212 000a 7047     		bx	lr
 2213              	.L221:
ARM GAS  C:\Users\SMART\AppData\Local\Temp\ccwDMaLv.s 			page 60


 2214              		.align	2
 2215              	.L220:
 2216 000c 00800056 		.word	1442873344
 2217              		.cfi_endproc
 2218              	.LFE925:
 2220              		.section	.text.HAL_SYSCFG_SetWriteQosNP1,"ax",%progbits
 2221              		.align	1
 2222              		.global	HAL_SYSCFG_SetWriteQosNP1
 2223              		.syntax unified
 2224              		.thumb
 2225              		.thumb_func
 2227              	HAL_SYSCFG_SetWriteQosNP1:
 2228              	.LVL76:
 2229              	.LFB926:
1188:../../Drivers/STM32N6xx_HAL_Driver/Src/stm32n6xx_hal.c **** 
1189:../../Drivers/STM32N6xx_HAL_Driver/Src/stm32n6xx_hal.c **** #if defined(SYSCFG_NPUNICQOSCR_NPU1_ARQOSR)
1190:../../Drivers/STM32N6xx_HAL_Driver/Src/stm32n6xx_hal.c **** /**
1191:../../Drivers/STM32N6xx_HAL_Driver/Src/stm32n6xx_hal.c ****   * @brief  Set write QoS information for master port from NP1 NPUNIC
1192:../../Drivers/STM32N6xx_HAL_Driver/Src/stm32n6xx_hal.c ****   * @param  QosValue Write QoS value (0 to 15).
1193:../../Drivers/STM32N6xx_HAL_Driver/Src/stm32n6xx_hal.c ****   * @retval None
1194:../../Drivers/STM32N6xx_HAL_Driver/Src/stm32n6xx_hal.c ****   */
1195:../../Drivers/STM32N6xx_HAL_Driver/Src/stm32n6xx_hal.c **** void HAL_SYSCFG_SetWriteQosNP1(uint32_t QosValue)
1196:../../Drivers/STM32N6xx_HAL_Driver/Src/stm32n6xx_hal.c **** {
 2230              		.loc 1 1196 1 is_stmt 1 view -0
 2231              		.cfi_startproc
 2232              		@ args = 0, pretend = 0, frame = 0
 2233              		@ frame_needed = 0, uses_anonymous_args = 0
 2234              		@ link register save eliminated.
1197:../../Drivers/STM32N6xx_HAL_Driver/Src/stm32n6xx_hal.c ****   /* Check the parameters */
1198:../../Drivers/STM32N6xx_HAL_Driver/Src/stm32n6xx_hal.c ****   assert_param(IS_SYSCFG_QOS_CPU(QosValue));
 2235              		.loc 1 1198 3 view .LVU391
1199:../../Drivers/STM32N6xx_HAL_Driver/Src/stm32n6xx_hal.c **** 
1200:../../Drivers/STM32N6xx_HAL_Driver/Src/stm32n6xx_hal.c ****   MODIFY_REG(SYSCFG->NPUNICQOSCR, SYSCFG_NPUNICQOSCR_NPU1_ARQOSW, QosValue << 4U);
 2236              		.loc 1 1200 3 view .LVU392
 2237 0000 034A     		ldr	r2, .L223
 2238 0002 936A     		ldr	r3, [r2, #40]
 2239 0004 23F0F003 		bic	r3, r3, #240
 2240 0008 43EA0013 		orr	r3, r3, r0, lsl #4
 2241 000c 9362     		str	r3, [r2, #40]
1201:../../Drivers/STM32N6xx_HAL_Driver/Src/stm32n6xx_hal.c **** }
 2242              		.loc 1 1201 1 is_stmt 0 view .LVU393
 2243 000e 7047     		bx	lr
 2244              	.L224:
 2245              		.align	2
 2246              	.L223:
 2247 0010 00800056 		.word	1442873344
 2248              		.cfi_endproc
 2249              	.LFE926:
 2251              		.section	.text.HAL_SYSCFG_GetWriteQosNP1,"ax",%progbits
 2252              		.align	1
 2253              		.global	HAL_SYSCFG_GetWriteQosNP1
 2254              		.syntax unified
 2255              		.thumb
 2256              		.thumb_func
 2258              	HAL_SYSCFG_GetWriteQosNP1:
 2259              	.LVL77:
 2260              	.LFB927:
ARM GAS  C:\Users\SMART\AppData\Local\Temp\ccwDMaLv.s 			page 61


1202:../../Drivers/STM32N6xx_HAL_Driver/Src/stm32n6xx_hal.c **** 
1203:../../Drivers/STM32N6xx_HAL_Driver/Src/stm32n6xx_hal.c **** /**
1204:../../Drivers/STM32N6xx_HAL_Driver/Src/stm32n6xx_hal.c ****   * @brief  Get write QoS information for master port from NP1 NPUNIC
1205:../../Drivers/STM32N6xx_HAL_Driver/Src/stm32n6xx_hal.c ****   * @param  pQosValue Pointer to return write QOS value (0 to 15)
1206:../../Drivers/STM32N6xx_HAL_Driver/Src/stm32n6xx_hal.c ****   * @retval HAL status
1207:../../Drivers/STM32N6xx_HAL_Driver/Src/stm32n6xx_hal.c ****   */
1208:../../Drivers/STM32N6xx_HAL_Driver/Src/stm32n6xx_hal.c **** 
1209:../../Drivers/STM32N6xx_HAL_Driver/Src/stm32n6xx_hal.c **** HAL_StatusTypeDef HAL_SYSCFG_GetWriteQosNP1(uint32_t *pQosValue)
1210:../../Drivers/STM32N6xx_HAL_Driver/Src/stm32n6xx_hal.c **** {
 2261              		.loc 1 1210 1 is_stmt 1 view -0
 2262              		.cfi_startproc
 2263              		@ args = 0, pretend = 0, frame = 0
 2264              		@ frame_needed = 0, uses_anonymous_args = 0
 2265              		@ link register save eliminated.
1211:../../Drivers/STM32N6xx_HAL_Driver/Src/stm32n6xx_hal.c ****   /* Check null pointer */
1212:../../Drivers/STM32N6xx_HAL_Driver/Src/stm32n6xx_hal.c ****   if (pQosValue == NULL)
 2266              		.loc 1 1212 3 view .LVU395
 2267              		.loc 1 1212 6 is_stmt 0 view .LVU396
 2268 0000 30B1     		cbz	r0, .L227
1213:../../Drivers/STM32N6xx_HAL_Driver/Src/stm32n6xx_hal.c ****   {
1214:../../Drivers/STM32N6xx_HAL_Driver/Src/stm32n6xx_hal.c ****     return HAL_ERROR;
1215:../../Drivers/STM32N6xx_HAL_Driver/Src/stm32n6xx_hal.c ****   }
1216:../../Drivers/STM32N6xx_HAL_Driver/Src/stm32n6xx_hal.c **** 
1217:../../Drivers/STM32N6xx_HAL_Driver/Src/stm32n6xx_hal.c ****   /* Get the QOS */
1218:../../Drivers/STM32N6xx_HAL_Driver/Src/stm32n6xx_hal.c ****   *pQosValue = (READ_BIT(SYSCFG->NPUNICQOSCR, SYSCFG_NPUNICQOSCR_NPU1_ARQOSW) >> 4U);
 2269              		.loc 1 1218 3 is_stmt 1 view .LVU397
 2270              		.loc 1 1218 17 is_stmt 0 view .LVU398
 2271 0002 044B     		ldr	r3, .L228
 2272 0004 9B6A     		ldr	r3, [r3, #40]
 2273              		.loc 1 1218 79 view .LVU399
 2274 0006 C3F30313 		ubfx	r3, r3, #4, #4
 2275              		.loc 1 1218 14 view .LVU400
 2276 000a 0360     		str	r3, [r0]
1219:../../Drivers/STM32N6xx_HAL_Driver/Src/stm32n6xx_hal.c **** 
1220:../../Drivers/STM32N6xx_HAL_Driver/Src/stm32n6xx_hal.c ****   return HAL_OK;
 2277              		.loc 1 1220 3 is_stmt 1 view .LVU401
 2278              		.loc 1 1220 10 is_stmt 0 view .LVU402
 2279 000c 0020     		movs	r0, #0
 2280              	.LVL78:
 2281              		.loc 1 1220 10 view .LVU403
 2282 000e 7047     		bx	lr
 2283              	.LVL79:
 2284              	.L227:
1214:../../Drivers/STM32N6xx_HAL_Driver/Src/stm32n6xx_hal.c ****   }
 2285              		.loc 1 1214 12 view .LVU404
 2286 0010 0120     		movs	r0, #1
 2287              	.LVL80:
1221:../../Drivers/STM32N6xx_HAL_Driver/Src/stm32n6xx_hal.c **** }
 2288              		.loc 1 1221 1 view .LVU405
 2289 0012 7047     		bx	lr
 2290              	.L229:
 2291              		.align	2
 2292              	.L228:
 2293 0014 00800056 		.word	1442873344
 2294              		.cfi_endproc
 2295              	.LFE927:
 2297              		.section	.text.HAL_SYSCFG_SetReadQosNP1,"ax",%progbits
ARM GAS  C:\Users\SMART\AppData\Local\Temp\ccwDMaLv.s 			page 62


 2298              		.align	1
 2299              		.global	HAL_SYSCFG_SetReadQosNP1
 2300              		.syntax unified
 2301              		.thumb
 2302              		.thumb_func
 2304              	HAL_SYSCFG_SetReadQosNP1:
 2305              	.LVL81:
 2306              	.LFB928:
1222:../../Drivers/STM32N6xx_HAL_Driver/Src/stm32n6xx_hal.c **** 
1223:../../Drivers/STM32N6xx_HAL_Driver/Src/stm32n6xx_hal.c **** /**
1224:../../Drivers/STM32N6xx_HAL_Driver/Src/stm32n6xx_hal.c ****   * @brief  Set read QoS information for master port from NP1 NPUNIC
1225:../../Drivers/STM32N6xx_HAL_Driver/Src/stm32n6xx_hal.c ****   * @param  QosValue Read QoS value (0 to 15)
1226:../../Drivers/STM32N6xx_HAL_Driver/Src/stm32n6xx_hal.c ****   * @retval None
1227:../../Drivers/STM32N6xx_HAL_Driver/Src/stm32n6xx_hal.c ****   */
1228:../../Drivers/STM32N6xx_HAL_Driver/Src/stm32n6xx_hal.c **** void HAL_SYSCFG_SetReadQosNP1(uint32_t QosValue)
1229:../../Drivers/STM32N6xx_HAL_Driver/Src/stm32n6xx_hal.c **** {
 2307              		.loc 1 1229 1 is_stmt 1 view -0
 2308              		.cfi_startproc
 2309              		@ args = 0, pretend = 0, frame = 0
 2310              		@ frame_needed = 0, uses_anonymous_args = 0
 2311              		@ link register save eliminated.
1230:../../Drivers/STM32N6xx_HAL_Driver/Src/stm32n6xx_hal.c ****   /* Check the parameters */
1231:../../Drivers/STM32N6xx_HAL_Driver/Src/stm32n6xx_hal.c ****   assert_param(IS_SYSCFG_QOS_CPU(QosValue));
 2312              		.loc 1 1231 3 view .LVU407
1232:../../Drivers/STM32N6xx_HAL_Driver/Src/stm32n6xx_hal.c **** 
1233:../../Drivers/STM32N6xx_HAL_Driver/Src/stm32n6xx_hal.c ****   MODIFY_REG(SYSCFG->NPUNICQOSCR, SYSCFG_NPUNICQOSCR_NPU1_ARQOSR, QosValue);
 2313              		.loc 1 1233 3 view .LVU408
 2314 0000 034A     		ldr	r2, .L231
 2315 0002 936A     		ldr	r3, [r2, #40]
 2316 0004 23F00F03 		bic	r3, r3, #15
 2317 0008 0343     		orrs	r3, r3, r0
 2318 000a 9362     		str	r3, [r2, #40]
1234:../../Drivers/STM32N6xx_HAL_Driver/Src/stm32n6xx_hal.c **** }
 2319              		.loc 1 1234 1 is_stmt 0 view .LVU409
 2320 000c 7047     		bx	lr
 2321              	.L232:
 2322 000e 00BF     		.align	2
 2323              	.L231:
 2324 0010 00800056 		.word	1442873344
 2325              		.cfi_endproc
 2326              	.LFE928:
 2328              		.section	.text.HAL_SYSCFG_GetReadQosNP1,"ax",%progbits
 2329              		.align	1
 2330              		.global	HAL_SYSCFG_GetReadQosNP1
 2331              		.syntax unified
 2332              		.thumb
 2333              		.thumb_func
 2335              	HAL_SYSCFG_GetReadQosNP1:
 2336              	.LVL82:
 2337              	.LFB929:
1235:../../Drivers/STM32N6xx_HAL_Driver/Src/stm32n6xx_hal.c **** 
1236:../../Drivers/STM32N6xx_HAL_Driver/Src/stm32n6xx_hal.c **** /**
1237:../../Drivers/STM32N6xx_HAL_Driver/Src/stm32n6xx_hal.c ****   * @brief  Get read QoS information for master port from NP1 NPUNIC
1238:../../Drivers/STM32N6xx_HAL_Driver/Src/stm32n6xx_hal.c ****   * @param  pQosValue Pointer to return read QOS value (0 to 15)
1239:../../Drivers/STM32N6xx_HAL_Driver/Src/stm32n6xx_hal.c ****   * @retval HAL status
1240:../../Drivers/STM32N6xx_HAL_Driver/Src/stm32n6xx_hal.c ****   */
1241:../../Drivers/STM32N6xx_HAL_Driver/Src/stm32n6xx_hal.c **** HAL_StatusTypeDef HAL_SYSCFG_GetReadQosNP1(uint32_t *pQosValue)
ARM GAS  C:\Users\SMART\AppData\Local\Temp\ccwDMaLv.s 			page 63


1242:../../Drivers/STM32N6xx_HAL_Driver/Src/stm32n6xx_hal.c **** {
 2338              		.loc 1 1242 1 is_stmt 1 view -0
 2339              		.cfi_startproc
 2340              		@ args = 0, pretend = 0, frame = 0
 2341              		@ frame_needed = 0, uses_anonymous_args = 0
 2342              		@ link register save eliminated.
1243:../../Drivers/STM32N6xx_HAL_Driver/Src/stm32n6xx_hal.c ****   /* Check null pointer */
1244:../../Drivers/STM32N6xx_HAL_Driver/Src/stm32n6xx_hal.c ****   if (pQosValue == NULL)
 2343              		.loc 1 1244 3 view .LVU411
 2344              		.loc 1 1244 6 is_stmt 0 view .LVU412
 2345 0000 30B1     		cbz	r0, .L235
1245:../../Drivers/STM32N6xx_HAL_Driver/Src/stm32n6xx_hal.c ****   {
1246:../../Drivers/STM32N6xx_HAL_Driver/Src/stm32n6xx_hal.c ****     return HAL_ERROR;
1247:../../Drivers/STM32N6xx_HAL_Driver/Src/stm32n6xx_hal.c ****   }
1248:../../Drivers/STM32N6xx_HAL_Driver/Src/stm32n6xx_hal.c **** 
1249:../../Drivers/STM32N6xx_HAL_Driver/Src/stm32n6xx_hal.c ****   /* Get the QOS */
1250:../../Drivers/STM32N6xx_HAL_Driver/Src/stm32n6xx_hal.c ****   *pQosValue = READ_BIT(SYSCFG->NPUNICQOSCR, SYSCFG_NPUNICQOSCR_NPU1_ARQOSR);
 2346              		.loc 1 1250 3 is_stmt 1 view .LVU413
 2347              		.loc 1 1250 16 is_stmt 0 view .LVU414
 2348 0002 044B     		ldr	r3, .L236
 2349 0004 9B6A     		ldr	r3, [r3, #40]
 2350 0006 03F00F03 		and	r3, r3, #15
 2351              		.loc 1 1250 14 view .LVU415
 2352 000a 0360     		str	r3, [r0]
1251:../../Drivers/STM32N6xx_HAL_Driver/Src/stm32n6xx_hal.c **** 
1252:../../Drivers/STM32N6xx_HAL_Driver/Src/stm32n6xx_hal.c ****   return HAL_OK;
 2353              		.loc 1 1252 3 is_stmt 1 view .LVU416
 2354              		.loc 1 1252 10 is_stmt 0 view .LVU417
 2355 000c 0020     		movs	r0, #0
 2356              	.LVL83:
 2357              		.loc 1 1252 10 view .LVU418
 2358 000e 7047     		bx	lr
 2359              	.LVL84:
 2360              	.L235:
1246:../../Drivers/STM32N6xx_HAL_Driver/Src/stm32n6xx_hal.c ****   }
 2361              		.loc 1 1246 12 view .LVU419
 2362 0010 0120     		movs	r0, #1
 2363              	.LVL85:
1253:../../Drivers/STM32N6xx_HAL_Driver/Src/stm32n6xx_hal.c **** }
 2364              		.loc 1 1253 1 view .LVU420
 2365 0012 7047     		bx	lr
 2366              	.L237:
 2367              		.align	2
 2368              	.L236:
 2369 0014 00800056 		.word	1442873344
 2370              		.cfi_endproc
 2371              	.LFE929:
 2373              		.section	.text.HAL_SYSCFG_SetWriteQosNP2,"ax",%progbits
 2374              		.align	1
 2375              		.global	HAL_SYSCFG_SetWriteQosNP2
 2376              		.syntax unified
 2377              		.thumb
 2378              		.thumb_func
 2380              	HAL_SYSCFG_SetWriteQosNP2:
 2381              	.LVL86:
 2382              	.LFB930:
1254:../../Drivers/STM32N6xx_HAL_Driver/Src/stm32n6xx_hal.c **** 
ARM GAS  C:\Users\SMART\AppData\Local\Temp\ccwDMaLv.s 			page 64


1255:../../Drivers/STM32N6xx_HAL_Driver/Src/stm32n6xx_hal.c **** /**
1256:../../Drivers/STM32N6xx_HAL_Driver/Src/stm32n6xx_hal.c ****   * @brief  Set write QoS information for master port from NP2 NPUNIC
1257:../../Drivers/STM32N6xx_HAL_Driver/Src/stm32n6xx_hal.c ****   * @param  QosValue Write Qos value (0 to 15)
1258:../../Drivers/STM32N6xx_HAL_Driver/Src/stm32n6xx_hal.c ****   * @retval None
1259:../../Drivers/STM32N6xx_HAL_Driver/Src/stm32n6xx_hal.c ****   */
1260:../../Drivers/STM32N6xx_HAL_Driver/Src/stm32n6xx_hal.c **** void HAL_SYSCFG_SetWriteQosNP2(uint32_t QosValue)
1261:../../Drivers/STM32N6xx_HAL_Driver/Src/stm32n6xx_hal.c **** {
 2383              		.loc 1 1261 1 is_stmt 1 view -0
 2384              		.cfi_startproc
 2385              		@ args = 0, pretend = 0, frame = 0
 2386              		@ frame_needed = 0, uses_anonymous_args = 0
 2387              		@ link register save eliminated.
1262:../../Drivers/STM32N6xx_HAL_Driver/Src/stm32n6xx_hal.c ****   /* Check the parameters */
1263:../../Drivers/STM32N6xx_HAL_Driver/Src/stm32n6xx_hal.c ****   assert_param(IS_SYSCFG_QOS_CPU(QosValue));
 2388              		.loc 1 1263 3 view .LVU422
1264:../../Drivers/STM32N6xx_HAL_Driver/Src/stm32n6xx_hal.c **** 
1265:../../Drivers/STM32N6xx_HAL_Driver/Src/stm32n6xx_hal.c ****   MODIFY_REG(SYSCFG->NPUNICQOSCR, SYSCFG_NPUNICQOSCR_NPU2_ARQOSW, QosValue << 12U);
 2389              		.loc 1 1265 3 view .LVU423
 2390 0000 034A     		ldr	r2, .L239
 2391 0002 936A     		ldr	r3, [r2, #40]
 2392 0004 23F47043 		bic	r3, r3, #61440
 2393 0008 43EA0033 		orr	r3, r3, r0, lsl #12
 2394 000c 9362     		str	r3, [r2, #40]
1266:../../Drivers/STM32N6xx_HAL_Driver/Src/stm32n6xx_hal.c **** }
 2395              		.loc 1 1266 1 is_stmt 0 view .LVU424
 2396 000e 7047     		bx	lr
 2397              	.L240:
 2398              		.align	2
 2399              	.L239:
 2400 0010 00800056 		.word	1442873344
 2401              		.cfi_endproc
 2402              	.LFE930:
 2404              		.section	.text.HAL_SYSCFG_GetWriteQosNP2,"ax",%progbits
 2405              		.align	1
 2406              		.global	HAL_SYSCFG_GetWriteQosNP2
 2407              		.syntax unified
 2408              		.thumb
 2409              		.thumb_func
 2411              	HAL_SYSCFG_GetWriteQosNP2:
 2412              	.LVL87:
 2413              	.LFB931:
1267:../../Drivers/STM32N6xx_HAL_Driver/Src/stm32n6xx_hal.c **** 
1268:../../Drivers/STM32N6xx_HAL_Driver/Src/stm32n6xx_hal.c **** /**
1269:../../Drivers/STM32N6xx_HAL_Driver/Src/stm32n6xx_hal.c ****   * @brief  Get write QoS information for master port from NP2 NPUNIC
1270:../../Drivers/STM32N6xx_HAL_Driver/Src/stm32n6xx_hal.c ****   * @param  pQosValue Pointer to return write QOS value (0 to 15)
1271:../../Drivers/STM32N6xx_HAL_Driver/Src/stm32n6xx_hal.c ****   * @retval HAL status
1272:../../Drivers/STM32N6xx_HAL_Driver/Src/stm32n6xx_hal.c ****   */
1273:../../Drivers/STM32N6xx_HAL_Driver/Src/stm32n6xx_hal.c **** HAL_StatusTypeDef HAL_SYSCFG_GetWriteQosNP2(uint32_t *pQosValue)
1274:../../Drivers/STM32N6xx_HAL_Driver/Src/stm32n6xx_hal.c **** {
 2414              		.loc 1 1274 1 is_stmt 1 view -0
 2415              		.cfi_startproc
 2416              		@ args = 0, pretend = 0, frame = 0
 2417              		@ frame_needed = 0, uses_anonymous_args = 0
 2418              		@ link register save eliminated.
1275:../../Drivers/STM32N6xx_HAL_Driver/Src/stm32n6xx_hal.c ****   /* Check null pointer */
1276:../../Drivers/STM32N6xx_HAL_Driver/Src/stm32n6xx_hal.c ****   if (pQosValue == NULL)
 2419              		.loc 1 1276 3 view .LVU426
ARM GAS  C:\Users\SMART\AppData\Local\Temp\ccwDMaLv.s 			page 65


 2420              		.loc 1 1276 6 is_stmt 0 view .LVU427
 2421 0000 30B1     		cbz	r0, .L243
1277:../../Drivers/STM32N6xx_HAL_Driver/Src/stm32n6xx_hal.c ****   {
1278:../../Drivers/STM32N6xx_HAL_Driver/Src/stm32n6xx_hal.c ****     return HAL_ERROR;
1279:../../Drivers/STM32N6xx_HAL_Driver/Src/stm32n6xx_hal.c ****   }
1280:../../Drivers/STM32N6xx_HAL_Driver/Src/stm32n6xx_hal.c **** 
1281:../../Drivers/STM32N6xx_HAL_Driver/Src/stm32n6xx_hal.c ****   /* Get the QOS */
1282:../../Drivers/STM32N6xx_HAL_Driver/Src/stm32n6xx_hal.c ****   *pQosValue = (READ_BIT(SYSCFG->NPUNICQOSCR, SYSCFG_NPUNICQOSCR_NPU2_ARQOSW) >> 12U);
 2422              		.loc 1 1282 3 is_stmt 1 view .LVU428
 2423              		.loc 1 1282 17 is_stmt 0 view .LVU429
 2424 0002 044B     		ldr	r3, .L244
 2425 0004 9B6A     		ldr	r3, [r3, #40]
 2426              		.loc 1 1282 79 view .LVU430
 2427 0006 C3F30333 		ubfx	r3, r3, #12, #4
 2428              		.loc 1 1282 14 view .LVU431
 2429 000a 0360     		str	r3, [r0]
1283:../../Drivers/STM32N6xx_HAL_Driver/Src/stm32n6xx_hal.c **** 
1284:../../Drivers/STM32N6xx_HAL_Driver/Src/stm32n6xx_hal.c ****   return HAL_OK;
 2430              		.loc 1 1284 3 is_stmt 1 view .LVU432
 2431              		.loc 1 1284 10 is_stmt 0 view .LVU433
 2432 000c 0020     		movs	r0, #0
 2433              	.LVL88:
 2434              		.loc 1 1284 10 view .LVU434
 2435 000e 7047     		bx	lr
 2436              	.LVL89:
 2437              	.L243:
1278:../../Drivers/STM32N6xx_HAL_Driver/Src/stm32n6xx_hal.c ****   }
 2438              		.loc 1 1278 12 view .LVU435
 2439 0010 0120     		movs	r0, #1
 2440              	.LVL90:
1285:../../Drivers/STM32N6xx_HAL_Driver/Src/stm32n6xx_hal.c **** }
 2441              		.loc 1 1285 1 view .LVU436
 2442 0012 7047     		bx	lr
 2443              	.L245:
 2444              		.align	2
 2445              	.L244:
 2446 0014 00800056 		.word	1442873344
 2447              		.cfi_endproc
 2448              	.LFE931:
 2450              		.section	.text.HAL_SYSCFG_SetReadQosNP2,"ax",%progbits
 2451              		.align	1
 2452              		.global	HAL_SYSCFG_SetReadQosNP2
 2453              		.syntax unified
 2454              		.thumb
 2455              		.thumb_func
 2457              	HAL_SYSCFG_SetReadQosNP2:
 2458              	.LVL91:
 2459              	.LFB932:
1286:../../Drivers/STM32N6xx_HAL_Driver/Src/stm32n6xx_hal.c **** 
1287:../../Drivers/STM32N6xx_HAL_Driver/Src/stm32n6xx_hal.c **** /**
1288:../../Drivers/STM32N6xx_HAL_Driver/Src/stm32n6xx_hal.c ****   * @brief  Set read QoS information for master port from NP2 NPUNIC
1289:../../Drivers/STM32N6xx_HAL_Driver/Src/stm32n6xx_hal.c ****   * @param  QosValue Read Qos value (0 to 15)
1290:../../Drivers/STM32N6xx_HAL_Driver/Src/stm32n6xx_hal.c ****   * @retval None
1291:../../Drivers/STM32N6xx_HAL_Driver/Src/stm32n6xx_hal.c ****   */
1292:../../Drivers/STM32N6xx_HAL_Driver/Src/stm32n6xx_hal.c **** void HAL_SYSCFG_SetReadQosNP2(uint32_t QosValue)
1293:../../Drivers/STM32N6xx_HAL_Driver/Src/stm32n6xx_hal.c **** {
 2460              		.loc 1 1293 1 is_stmt 1 view -0
ARM GAS  C:\Users\SMART\AppData\Local\Temp\ccwDMaLv.s 			page 66


 2461              		.cfi_startproc
 2462              		@ args = 0, pretend = 0, frame = 0
 2463              		@ frame_needed = 0, uses_anonymous_args = 0
 2464              		@ link register save eliminated.
1294:../../Drivers/STM32N6xx_HAL_Driver/Src/stm32n6xx_hal.c ****   /* Check the parameters */
1295:../../Drivers/STM32N6xx_HAL_Driver/Src/stm32n6xx_hal.c ****   assert_param(IS_SYSCFG_QOS_CPU(QosValue));
 2465              		.loc 1 1295 3 view .LVU438
1296:../../Drivers/STM32N6xx_HAL_Driver/Src/stm32n6xx_hal.c **** 
1297:../../Drivers/STM32N6xx_HAL_Driver/Src/stm32n6xx_hal.c ****   MODIFY_REG(SYSCFG->NPUNICQOSCR, SYSCFG_NPUNICQOSCR_NPU2_ARQOSR, QosValue << 8U);
 2466              		.loc 1 1297 3 view .LVU439
 2467 0000 034A     		ldr	r2, .L247
 2468 0002 936A     		ldr	r3, [r2, #40]
 2469 0004 23F47063 		bic	r3, r3, #3840
 2470 0008 43EA0023 		orr	r3, r3, r0, lsl #8
 2471 000c 9362     		str	r3, [r2, #40]
1298:../../Drivers/STM32N6xx_HAL_Driver/Src/stm32n6xx_hal.c **** }
 2472              		.loc 1 1298 1 is_stmt 0 view .LVU440
 2473 000e 7047     		bx	lr
 2474              	.L248:
 2475              		.align	2
 2476              	.L247:
 2477 0010 00800056 		.word	1442873344
 2478              		.cfi_endproc
 2479              	.LFE932:
 2481              		.section	.text.HAL_SYSCFG_GetReadQosNP2,"ax",%progbits
 2482              		.align	1
 2483              		.global	HAL_SYSCFG_GetReadQosNP2
 2484              		.syntax unified
 2485              		.thumb
 2486              		.thumb_func
 2488              	HAL_SYSCFG_GetReadQosNP2:
 2489              	.LVL92:
 2490              	.LFB933:
1299:../../Drivers/STM32N6xx_HAL_Driver/Src/stm32n6xx_hal.c **** 
1300:../../Drivers/STM32N6xx_HAL_Driver/Src/stm32n6xx_hal.c **** /**
1301:../../Drivers/STM32N6xx_HAL_Driver/Src/stm32n6xx_hal.c ****   * @brief  Get read QoS information for master port from NP2 NPUNIC
1302:../../Drivers/STM32N6xx_HAL_Driver/Src/stm32n6xx_hal.c ****   * @param  pQosValue Pointer to return read QOS value (0 to 15)
1303:../../Drivers/STM32N6xx_HAL_Driver/Src/stm32n6xx_hal.c ****   * @retval HAL status
1304:../../Drivers/STM32N6xx_HAL_Driver/Src/stm32n6xx_hal.c ****   */
1305:../../Drivers/STM32N6xx_HAL_Driver/Src/stm32n6xx_hal.c **** HAL_StatusTypeDef HAL_SYSCFG_GetReadQosNP2(uint32_t *pQosValue)
1306:../../Drivers/STM32N6xx_HAL_Driver/Src/stm32n6xx_hal.c **** {
 2491              		.loc 1 1306 1 is_stmt 1 view -0
 2492              		.cfi_startproc
 2493              		@ args = 0, pretend = 0, frame = 0
 2494              		@ frame_needed = 0, uses_anonymous_args = 0
 2495              		@ link register save eliminated.
1307:../../Drivers/STM32N6xx_HAL_Driver/Src/stm32n6xx_hal.c ****   /* Check null pointer */
1308:../../Drivers/STM32N6xx_HAL_Driver/Src/stm32n6xx_hal.c ****   if (pQosValue == NULL)
 2496              		.loc 1 1308 3 view .LVU442
 2497              		.loc 1 1308 6 is_stmt 0 view .LVU443
 2498 0000 30B1     		cbz	r0, .L251
1309:../../Drivers/STM32N6xx_HAL_Driver/Src/stm32n6xx_hal.c ****   {
1310:../../Drivers/STM32N6xx_HAL_Driver/Src/stm32n6xx_hal.c ****     return HAL_ERROR;
1311:../../Drivers/STM32N6xx_HAL_Driver/Src/stm32n6xx_hal.c ****   }
1312:../../Drivers/STM32N6xx_HAL_Driver/Src/stm32n6xx_hal.c **** 
1313:../../Drivers/STM32N6xx_HAL_Driver/Src/stm32n6xx_hal.c ****   /* Get the QOS */
1314:../../Drivers/STM32N6xx_HAL_Driver/Src/stm32n6xx_hal.c ****   *pQosValue = (READ_BIT(SYSCFG->NPUNICQOSCR, SYSCFG_NPUNICQOSCR_NPU2_ARQOSR) >> 8U);
ARM GAS  C:\Users\SMART\AppData\Local\Temp\ccwDMaLv.s 			page 67


 2499              		.loc 1 1314 3 is_stmt 1 view .LVU444
 2500              		.loc 1 1314 17 is_stmt 0 view .LVU445
 2501 0002 044B     		ldr	r3, .L252
 2502 0004 9B6A     		ldr	r3, [r3, #40]
 2503              		.loc 1 1314 79 view .LVU446
 2504 0006 C3F30323 		ubfx	r3, r3, #8, #4
 2505              		.loc 1 1314 14 view .LVU447
 2506 000a 0360     		str	r3, [r0]
1315:../../Drivers/STM32N6xx_HAL_Driver/Src/stm32n6xx_hal.c **** 
1316:../../Drivers/STM32N6xx_HAL_Driver/Src/stm32n6xx_hal.c ****   return HAL_OK;
 2507              		.loc 1 1316 3 is_stmt 1 view .LVU448
 2508              		.loc 1 1316 10 is_stmt 0 view .LVU449
 2509 000c 0020     		movs	r0, #0
 2510              	.LVL93:
 2511              		.loc 1 1316 10 view .LVU450
 2512 000e 7047     		bx	lr
 2513              	.LVL94:
 2514              	.L251:
1310:../../Drivers/STM32N6xx_HAL_Driver/Src/stm32n6xx_hal.c ****   }
 2515              		.loc 1 1310 12 view .LVU451
 2516 0010 0120     		movs	r0, #1
 2517              	.LVL95:
1317:../../Drivers/STM32N6xx_HAL_Driver/Src/stm32n6xx_hal.c **** }
 2518              		.loc 1 1317 1 view .LVU452
 2519 0012 7047     		bx	lr
 2520              	.L253:
 2521              		.align	2
 2522              	.L252:
 2523 0014 00800056 		.word	1442873344
 2524              		.cfi_endproc
 2525              	.LFE933:
 2527              		.section	.text.HAL_SYSCFG_SetWriteQosCPUSS,"ax",%progbits
 2528              		.align	1
 2529              		.global	HAL_SYSCFG_SetWriteQosCPUSS
 2530              		.syntax unified
 2531              		.thumb
 2532              		.thumb_func
 2534              	HAL_SYSCFG_SetWriteQosCPUSS:
 2535              	.LVL96:
 2536              	.LFB934:
1318:../../Drivers/STM32N6xx_HAL_Driver/Src/stm32n6xx_hal.c **** 
1319:../../Drivers/STM32N6xx_HAL_Driver/Src/stm32n6xx_hal.c **** /**
1320:../../Drivers/STM32N6xx_HAL_Driver/Src/stm32n6xx_hal.c ****   * @brief  Set write QoS information for master port from CPUSS NPUNIC
1321:../../Drivers/STM32N6xx_HAL_Driver/Src/stm32n6xx_hal.c ****   * @param  QosValue Write QoS value (0 to 15)
1322:../../Drivers/STM32N6xx_HAL_Driver/Src/stm32n6xx_hal.c ****   * @retval None
1323:../../Drivers/STM32N6xx_HAL_Driver/Src/stm32n6xx_hal.c ****   */
1324:../../Drivers/STM32N6xx_HAL_Driver/Src/stm32n6xx_hal.c **** void HAL_SYSCFG_SetWriteQosCPUSS(uint32_t QosValue)
1325:../../Drivers/STM32N6xx_HAL_Driver/Src/stm32n6xx_hal.c **** {
 2537              		.loc 1 1325 1 is_stmt 1 view -0
 2538              		.cfi_startproc
 2539              		@ args = 0, pretend = 0, frame = 0
 2540              		@ frame_needed = 0, uses_anonymous_args = 0
 2541              		@ link register save eliminated.
1326:../../Drivers/STM32N6xx_HAL_Driver/Src/stm32n6xx_hal.c ****   /* Check the parameters */
1327:../../Drivers/STM32N6xx_HAL_Driver/Src/stm32n6xx_hal.c ****   assert_param(IS_SYSCFG_QOS_CPU(QosValue));
 2542              		.loc 1 1327 3 view .LVU454
1328:../../Drivers/STM32N6xx_HAL_Driver/Src/stm32n6xx_hal.c **** 
ARM GAS  C:\Users\SMART\AppData\Local\Temp\ccwDMaLv.s 			page 68


1329:../../Drivers/STM32N6xx_HAL_Driver/Src/stm32n6xx_hal.c ****   MODIFY_REG(SYSCFG->NPUNICQOSCR, SYSCFG_NPUNICQOSCR_CPUSS_ARQOSW, QosValue << 20U);
 2543              		.loc 1 1329 3 view .LVU455
 2544 0000 034A     		ldr	r2, .L255
 2545 0002 936A     		ldr	r3, [r2, #40]
 2546 0004 23F47003 		bic	r3, r3, #15728640
 2547 0008 43EA0053 		orr	r3, r3, r0, lsl #20
 2548 000c 9362     		str	r3, [r2, #40]
1330:../../Drivers/STM32N6xx_HAL_Driver/Src/stm32n6xx_hal.c **** }
 2549              		.loc 1 1330 1 is_stmt 0 view .LVU456
 2550 000e 7047     		bx	lr
 2551              	.L256:
 2552              		.align	2
 2553              	.L255:
 2554 0010 00800056 		.word	1442873344
 2555              		.cfi_endproc
 2556              	.LFE934:
 2558              		.section	.text.HAL_SYSCFG_GetwriteQosCPUSS,"ax",%progbits
 2559              		.align	1
 2560              		.global	HAL_SYSCFG_GetwriteQosCPUSS
 2561              		.syntax unified
 2562              		.thumb
 2563              		.thumb_func
 2565              	HAL_SYSCFG_GetwriteQosCPUSS:
 2566              	.LVL97:
 2567              	.LFB935:
1331:../../Drivers/STM32N6xx_HAL_Driver/Src/stm32n6xx_hal.c **** 
1332:../../Drivers/STM32N6xx_HAL_Driver/Src/stm32n6xx_hal.c **** /**
1333:../../Drivers/STM32N6xx_HAL_Driver/Src/stm32n6xx_hal.c ****   * @brief  Get write QoS information for master port from CPUSS NPUNIC
1334:../../Drivers/STM32N6xx_HAL_Driver/Src/stm32n6xx_hal.c ****   * @param  pQosValue Pointer to return write QOS value (0 to 15)
1335:../../Drivers/STM32N6xx_HAL_Driver/Src/stm32n6xx_hal.c ****   * @retval HAL status
1336:../../Drivers/STM32N6xx_HAL_Driver/Src/stm32n6xx_hal.c ****   */
1337:../../Drivers/STM32N6xx_HAL_Driver/Src/stm32n6xx_hal.c **** HAL_StatusTypeDef HAL_SYSCFG_GetwriteQosCPUSS(uint32_t *pQosValue)
1338:../../Drivers/STM32N6xx_HAL_Driver/Src/stm32n6xx_hal.c **** {
 2568              		.loc 1 1338 1 is_stmt 1 view -0
 2569              		.cfi_startproc
 2570              		@ args = 0, pretend = 0, frame = 0
 2571              		@ frame_needed = 0, uses_anonymous_args = 0
 2572              		@ link register save eliminated.
1339:../../Drivers/STM32N6xx_HAL_Driver/Src/stm32n6xx_hal.c ****   /* Check null pointer */
1340:../../Drivers/STM32N6xx_HAL_Driver/Src/stm32n6xx_hal.c ****   if (pQosValue == NULL)
 2573              		.loc 1 1340 3 view .LVU458
 2574              		.loc 1 1340 6 is_stmt 0 view .LVU459
 2575 0000 30B1     		cbz	r0, .L259
1341:../../Drivers/STM32N6xx_HAL_Driver/Src/stm32n6xx_hal.c ****   {
1342:../../Drivers/STM32N6xx_HAL_Driver/Src/stm32n6xx_hal.c ****     return HAL_ERROR;
1343:../../Drivers/STM32N6xx_HAL_Driver/Src/stm32n6xx_hal.c ****   }
1344:../../Drivers/STM32N6xx_HAL_Driver/Src/stm32n6xx_hal.c **** 
1345:../../Drivers/STM32N6xx_HAL_Driver/Src/stm32n6xx_hal.c ****   /* Get the QOS */
1346:../../Drivers/STM32N6xx_HAL_Driver/Src/stm32n6xx_hal.c ****   *pQosValue = (READ_BIT(SYSCFG->NPUNICQOSCR, SYSCFG_NPUNICQOSCR_CPUSS_ARQOSW) >> 20U);
 2576              		.loc 1 1346 3 is_stmt 1 view .LVU460
 2577              		.loc 1 1346 17 is_stmt 0 view .LVU461
 2578 0002 044B     		ldr	r3, .L260
 2579 0004 9B6A     		ldr	r3, [r3, #40]
 2580              		.loc 1 1346 80 view .LVU462
 2581 0006 C3F30353 		ubfx	r3, r3, #20, #4
 2582              		.loc 1 1346 14 view .LVU463
 2583 000a 0360     		str	r3, [r0]
ARM GAS  C:\Users\SMART\AppData\Local\Temp\ccwDMaLv.s 			page 69


1347:../../Drivers/STM32N6xx_HAL_Driver/Src/stm32n6xx_hal.c **** 
1348:../../Drivers/STM32N6xx_HAL_Driver/Src/stm32n6xx_hal.c ****   return HAL_OK;
 2584              		.loc 1 1348 3 is_stmt 1 view .LVU464
 2585              		.loc 1 1348 10 is_stmt 0 view .LVU465
 2586 000c 0020     		movs	r0, #0
 2587              	.LVL98:
 2588              		.loc 1 1348 10 view .LVU466
 2589 000e 7047     		bx	lr
 2590              	.LVL99:
 2591              	.L259:
1342:../../Drivers/STM32N6xx_HAL_Driver/Src/stm32n6xx_hal.c ****   }
 2592              		.loc 1 1342 12 view .LVU467
 2593 0010 0120     		movs	r0, #1
 2594              	.LVL100:
1349:../../Drivers/STM32N6xx_HAL_Driver/Src/stm32n6xx_hal.c **** }
 2595              		.loc 1 1349 1 view .LVU468
 2596 0012 7047     		bx	lr
 2597              	.L261:
 2598              		.align	2
 2599              	.L260:
 2600 0014 00800056 		.word	1442873344
 2601              		.cfi_endproc
 2602              	.LFE935:
 2604              		.section	.text.HAL_SYSCFG_SetReadQosCPUSS,"ax",%progbits
 2605              		.align	1
 2606              		.global	HAL_SYSCFG_SetReadQosCPUSS
 2607              		.syntax unified
 2608              		.thumb
 2609              		.thumb_func
 2611              	HAL_SYSCFG_SetReadQosCPUSS:
 2612              	.LVL101:
 2613              	.LFB936:
1350:../../Drivers/STM32N6xx_HAL_Driver/Src/stm32n6xx_hal.c **** 
1351:../../Drivers/STM32N6xx_HAL_Driver/Src/stm32n6xx_hal.c **** /**
1352:../../Drivers/STM32N6xx_HAL_Driver/Src/stm32n6xx_hal.c ****   * @brief  Set read QoS information for master port from CPUSS NPUNIC
1353:../../Drivers/STM32N6xx_HAL_Driver/Src/stm32n6xx_hal.c ****   * @param  QosValue Read QoS value (0 to 15)
1354:../../Drivers/STM32N6xx_HAL_Driver/Src/stm32n6xx_hal.c ****   * @retval None
1355:../../Drivers/STM32N6xx_HAL_Driver/Src/stm32n6xx_hal.c ****   */
1356:../../Drivers/STM32N6xx_HAL_Driver/Src/stm32n6xx_hal.c **** void HAL_SYSCFG_SetReadQosCPUSS(uint32_t QosValue)
1357:../../Drivers/STM32N6xx_HAL_Driver/Src/stm32n6xx_hal.c **** {
 2614              		.loc 1 1357 1 is_stmt 1 view -0
 2615              		.cfi_startproc
 2616              		@ args = 0, pretend = 0, frame = 0
 2617              		@ frame_needed = 0, uses_anonymous_args = 0
 2618              		@ link register save eliminated.
1358:../../Drivers/STM32N6xx_HAL_Driver/Src/stm32n6xx_hal.c ****   /* Check the parameters */
1359:../../Drivers/STM32N6xx_HAL_Driver/Src/stm32n6xx_hal.c ****   assert_param(IS_SYSCFG_QOS_CPU(QosValue));
 2619              		.loc 1 1359 3 view .LVU470
1360:../../Drivers/STM32N6xx_HAL_Driver/Src/stm32n6xx_hal.c **** 
1361:../../Drivers/STM32N6xx_HAL_Driver/Src/stm32n6xx_hal.c ****   MODIFY_REG(SYSCFG->NPUNICQOSCR, SYSCFG_NPUNICQOSCR_CPUSS_ARQOSR, QosValue << 16U);
 2620              		.loc 1 1361 3 view .LVU471
 2621 0000 034A     		ldr	r2, .L263
 2622 0002 936A     		ldr	r3, [r2, #40]
 2623 0004 23F47023 		bic	r3, r3, #983040
 2624 0008 43EA0043 		orr	r3, r3, r0, lsl #16
 2625 000c 9362     		str	r3, [r2, #40]
1362:../../Drivers/STM32N6xx_HAL_Driver/Src/stm32n6xx_hal.c **** }
ARM GAS  C:\Users\SMART\AppData\Local\Temp\ccwDMaLv.s 			page 70


 2626              		.loc 1 1362 1 is_stmt 0 view .LVU472
 2627 000e 7047     		bx	lr
 2628              	.L264:
 2629              		.align	2
 2630              	.L263:
 2631 0010 00800056 		.word	1442873344
 2632              		.cfi_endproc
 2633              	.LFE936:
 2635              		.section	.text.HAL_SYSCFG_GetReadQosCPUSS,"ax",%progbits
 2636              		.align	1
 2637              		.global	HAL_SYSCFG_GetReadQosCPUSS
 2638              		.syntax unified
 2639              		.thumb
 2640              		.thumb_func
 2642              	HAL_SYSCFG_GetReadQosCPUSS:
 2643              	.LVL102:
 2644              	.LFB937:
1363:../../Drivers/STM32N6xx_HAL_Driver/Src/stm32n6xx_hal.c **** 
1364:../../Drivers/STM32N6xx_HAL_Driver/Src/stm32n6xx_hal.c **** /**
1365:../../Drivers/STM32N6xx_HAL_Driver/Src/stm32n6xx_hal.c ****   * @brief  Get read QoS information for master port from CPUSS NPUNIC
1366:../../Drivers/STM32N6xx_HAL_Driver/Src/stm32n6xx_hal.c ****   * @param  pQosValue Pointer to return read QOS value (0 to 15)
1367:../../Drivers/STM32N6xx_HAL_Driver/Src/stm32n6xx_hal.c ****   * @retval HAL status
1368:../../Drivers/STM32N6xx_HAL_Driver/Src/stm32n6xx_hal.c ****   */
1369:../../Drivers/STM32N6xx_HAL_Driver/Src/stm32n6xx_hal.c **** HAL_StatusTypeDef HAL_SYSCFG_GetReadQosCPUSS(uint32_t *pQosValue)
1370:../../Drivers/STM32N6xx_HAL_Driver/Src/stm32n6xx_hal.c **** {
 2645              		.loc 1 1370 1 is_stmt 1 view -0
 2646              		.cfi_startproc
 2647              		@ args = 0, pretend = 0, frame = 0
 2648              		@ frame_needed = 0, uses_anonymous_args = 0
 2649              		@ link register save eliminated.
1371:../../Drivers/STM32N6xx_HAL_Driver/Src/stm32n6xx_hal.c ****   /* Check null pointer */
1372:../../Drivers/STM32N6xx_HAL_Driver/Src/stm32n6xx_hal.c ****   if (pQosValue == NULL)
 2650              		.loc 1 1372 3 view .LVU474
 2651              		.loc 1 1372 6 is_stmt 0 view .LVU475
 2652 0000 30B1     		cbz	r0, .L267
1373:../../Drivers/STM32N6xx_HAL_Driver/Src/stm32n6xx_hal.c ****   {
1374:../../Drivers/STM32N6xx_HAL_Driver/Src/stm32n6xx_hal.c ****     return HAL_ERROR;
1375:../../Drivers/STM32N6xx_HAL_Driver/Src/stm32n6xx_hal.c ****   }
1376:../../Drivers/STM32N6xx_HAL_Driver/Src/stm32n6xx_hal.c **** 
1377:../../Drivers/STM32N6xx_HAL_Driver/Src/stm32n6xx_hal.c ****   /* Get the QOS */
1378:../../Drivers/STM32N6xx_HAL_Driver/Src/stm32n6xx_hal.c ****   *pQosValue = (READ_BIT(SYSCFG->NPUNICQOSCR, SYSCFG_NPUNICQOSCR_CPUSS_ARQOSR) >> 16U);
 2653              		.loc 1 1378 3 is_stmt 1 view .LVU476
 2654              		.loc 1 1378 17 is_stmt 0 view .LVU477
 2655 0002 044B     		ldr	r3, .L268
 2656 0004 9B6A     		ldr	r3, [r3, #40]
 2657              		.loc 1 1378 80 view .LVU478
 2658 0006 C3F30343 		ubfx	r3, r3, #16, #4
 2659              		.loc 1 1378 14 view .LVU479
 2660 000a 0360     		str	r3, [r0]
1379:../../Drivers/STM32N6xx_HAL_Driver/Src/stm32n6xx_hal.c **** 
1380:../../Drivers/STM32N6xx_HAL_Driver/Src/stm32n6xx_hal.c ****   return HAL_OK;
 2661              		.loc 1 1380 3 is_stmt 1 view .LVU480
 2662              		.loc 1 1380 10 is_stmt 0 view .LVU481
 2663 000c 0020     		movs	r0, #0
 2664              	.LVL103:
 2665              		.loc 1 1380 10 view .LVU482
 2666 000e 7047     		bx	lr
ARM GAS  C:\Users\SMART\AppData\Local\Temp\ccwDMaLv.s 			page 71


 2667              	.LVL104:
 2668              	.L267:
1374:../../Drivers/STM32N6xx_HAL_Driver/Src/stm32n6xx_hal.c ****   }
 2669              		.loc 1 1374 12 view .LVU483
 2670 0010 0120     		movs	r0, #1
 2671              	.LVL105:
1381:../../Drivers/STM32N6xx_HAL_Driver/Src/stm32n6xx_hal.c **** }
 2672              		.loc 1 1381 1 view .LVU484
 2673 0012 7047     		bx	lr
 2674              	.L269:
 2675              		.align	2
 2676              	.L268:
 2677 0014 00800056 		.word	1442873344
 2678              		.cfi_endproc
 2679              	.LFE937:
 2681              		.section	.text.HAL_SYSCFG_EnableSDMMCEarlyWRRESP,"ax",%progbits
 2682              		.align	1
 2683              		.global	HAL_SYSCFG_EnableSDMMCEarlyWRRESP
 2684              		.syntax unified
 2685              		.thumb
 2686              		.thumb_func
 2688              	HAL_SYSCFG_EnableSDMMCEarlyWRRESP:
 2689              	.LVL106:
 2690              	.LFB938:
1382:../../Drivers/STM32N6xx_HAL_Driver/Src/stm32n6xx_hal.c **** #endif /* defined(SYSCFG_NPUNICQOSCR_NPU1_ARQOSR) */
1383:../../Drivers/STM32N6xx_HAL_Driver/Src/stm32n6xx_hal.c **** 
1384:../../Drivers/STM32N6xx_HAL_Driver/Src/stm32n6xx_hal.c **** /**
1385:../../Drivers/STM32N6xx_HAL_Driver/Src/stm32n6xx_hal.c ****   * @brief  Enable SDMMC early-write response.
1386:../../Drivers/STM32N6xx_HAL_Driver/Src/stm32n6xx_hal.c ****   * @param  Sdmmc Selected SDMMC instance(s).
1387:../../Drivers/STM32N6xx_HAL_Driver/Src/stm32n6xx_hal.c ****   *               This parameter can be a one of @ref SYSCFG_SDMMCId
1388:../../Drivers/STM32N6xx_HAL_Driver/Src/stm32n6xx_hal.c ****   * @retval None
1389:../../Drivers/STM32N6xx_HAL_Driver/Src/stm32n6xx_hal.c ****   */
1390:../../Drivers/STM32N6xx_HAL_Driver/Src/stm32n6xx_hal.c **** void HAL_SYSCFG_EnableSDMMCEarlyWRRESP(uint32_t Sdmmc)
1391:../../Drivers/STM32N6xx_HAL_Driver/Src/stm32n6xx_hal.c **** {
 2691              		.loc 1 1391 1 is_stmt 1 view -0
 2692              		.cfi_startproc
 2693              		@ args = 0, pretend = 0, frame = 0
 2694              		@ frame_needed = 0, uses_anonymous_args = 0
 2695              		@ link register save eliminated.
1392:../../Drivers/STM32N6xx_HAL_Driver/Src/stm32n6xx_hal.c ****   /* Check the parameters */
1393:../../Drivers/STM32N6xx_HAL_Driver/Src/stm32n6xx_hal.c ****   assert_param(IS_SYSCFG_SDMMC(Sdmmc));
 2696              		.loc 1 1393 3 view .LVU486
1394:../../Drivers/STM32N6xx_HAL_Driver/Src/stm32n6xx_hal.c **** 
1395:../../Drivers/STM32N6xx_HAL_Driver/Src/stm32n6xx_hal.c ****   SET_BIT(SYSCFG->ICNEWRCR, Sdmmc);
 2697              		.loc 1 1395 3 view .LVU487
 2698 0000 024A     		ldr	r2, .L271
 2699 0002 536B     		ldr	r3, [r2, #52]
 2700 0004 0343     		orrs	r3, r3, r0
 2701 0006 5363     		str	r3, [r2, #52]
1396:../../Drivers/STM32N6xx_HAL_Driver/Src/stm32n6xx_hal.c **** }
 2702              		.loc 1 1396 1 is_stmt 0 view .LVU488
 2703 0008 7047     		bx	lr
 2704              	.L272:
 2705 000a 00BF     		.align	2
 2706              	.L271:
 2707 000c 00800056 		.word	1442873344
 2708              		.cfi_endproc
ARM GAS  C:\Users\SMART\AppData\Local\Temp\ccwDMaLv.s 			page 72


 2709              	.LFE938:
 2711              		.section	.text.HAL_SYSCFG_DisableSDMMCEarlyWRRSP,"ax",%progbits
 2712              		.align	1
 2713              		.global	HAL_SYSCFG_DisableSDMMCEarlyWRRSP
 2714              		.syntax unified
 2715              		.thumb
 2716              		.thumb_func
 2718              	HAL_SYSCFG_DisableSDMMCEarlyWRRSP:
 2719              	.LVL107:
 2720              	.LFB939:
1397:../../Drivers/STM32N6xx_HAL_Driver/Src/stm32n6xx_hal.c **** 
1398:../../Drivers/STM32N6xx_HAL_Driver/Src/stm32n6xx_hal.c **** /**
1399:../../Drivers/STM32N6xx_HAL_Driver/Src/stm32n6xx_hal.c ****   * @brief  Disable SDMMC early-write response.
1400:../../Drivers/STM32N6xx_HAL_Driver/Src/stm32n6xx_hal.c ****   * @param  Sdmmc Selected SDMMC instance(s).
1401:../../Drivers/STM32N6xx_HAL_Driver/Src/stm32n6xx_hal.c ****   *               This parameter can be a one of @ref SYSCFG_SDMMCId
1402:../../Drivers/STM32N6xx_HAL_Driver/Src/stm32n6xx_hal.c ****   * @retval None
1403:../../Drivers/STM32N6xx_HAL_Driver/Src/stm32n6xx_hal.c ****   */
1404:../../Drivers/STM32N6xx_HAL_Driver/Src/stm32n6xx_hal.c **** void HAL_SYSCFG_DisableSDMMCEarlyWRRSP(uint32_t Sdmmc)
1405:../../Drivers/STM32N6xx_HAL_Driver/Src/stm32n6xx_hal.c **** {
 2721              		.loc 1 1405 1 is_stmt 1 view -0
 2722              		.cfi_startproc
 2723              		@ args = 0, pretend = 0, frame = 0
 2724              		@ frame_needed = 0, uses_anonymous_args = 0
 2725              		@ link register save eliminated.
1406:../../Drivers/STM32N6xx_HAL_Driver/Src/stm32n6xx_hal.c ****   /* Check the parameters */
