ARM GAS  C:\Users\SMART\AppData\Local\Temp\ccqIi0Bn.s 			page 1


   1              		.arch armv8.1-m.main
   2              		.fpu fpv5-d16
   3              		.arch_extension dsp
   4              		.arch_extension fp
   5              		.arch_extension fp.dp
   6              		.arch_extension mve
   7              		.arch_extension mve.fp
   8              		.eabi_attribute 5, "cortex-m55"
   9              		.eabi_attribute 28, 1
  10              		.eabi_attribute 20, 1
  11              		.eabi_attribute 21, 1
  12              		.eabi_attribute 23, 3
  13              		.eabi_attribute 24, 1
  14              		.eabi_attribute 25, 1
  15              		.eabi_attribute 26, 1
  16              		.eabi_attribute 30, 1
  17              		.eabi_attribute 34, 1
  18              		.eabi_attribute 38, 1
  19              		.eabi_attribute 18, 4
  20              		.file	"extmem_manager.c"
  21              		.text
  22              	.Ltext0:
  23              		.cfi_sections	.debug_frame
  24              		.file 1 "../../FSBL/Core/Src/extmem_manager.c"
  25              		.section	.text.MX_EXTMEM_MANAGER_Init,"ax",%progbits
  26              		.align	1
  27              		.global	MX_EXTMEM_MANAGER_Init
  28              		.syntax unified
  29              		.thumb
  30              		.thumb_func
  32              	MX_EXTMEM_MANAGER_Init:
  33              	.LFB862:
   1:../../FSBL/Core/Src/extmem_manager.c **** /* USER CODE BEGIN Header */
   2:../../FSBL/Core/Src/extmem_manager.c **** /**
   3:../../FSBL/Core/Src/extmem_manager.c ****   ******************************************************************************
   4:../../FSBL/Core/Src/extmem_manager.c ****   * @file           : extmem_manager.c
   5:../../FSBL/Core/Src/extmem_manager.c ****   * @version        : 1.0.0
   6:../../FSBL/Core/Src/extmem_manager.c ****   * @brief          : This file implements the extmem configuration
   7:../../FSBL/Core/Src/extmem_manager.c ****   ******************************************************************************
   8:../../FSBL/Core/Src/extmem_manager.c ****   * @attention
   9:../../FSBL/Core/Src/extmem_manager.c ****   *
  10:../../FSBL/Core/Src/extmem_manager.c ****   * Copyright (c) 2025 STMicroelectronics.
  11:../../FSBL/Core/Src/extmem_manager.c ****   * All rights reserved.
  12:../../FSBL/Core/Src/extmem_manager.c ****   *
  13:../../FSBL/Core/Src/extmem_manager.c ****   * This software is licensed under terms that can be found in the LICENSE file
  14:../../FSBL/Core/Src/extmem_manager.c ****   * in the root directory of this software component.
  15:../../FSBL/Core/Src/extmem_manager.c ****   * If no LICENSE file comes with this software, it is provided AS-IS.
  16:../../FSBL/Core/Src/extmem_manager.c ****   *
  17:../../FSBL/Core/Src/extmem_manager.c ****   ******************************************************************************
  18:../../FSBL/Core/Src/extmem_manager.c ****   */
  19:../../FSBL/Core/Src/extmem_manager.c **** /* USER CODE END Header */
  20:../../FSBL/Core/Src/extmem_manager.c **** 
  21:../../FSBL/Core/Src/extmem_manager.c **** /* Includes ------------------------------------------------------------------*/
  22:../../FSBL/Core/Src/extmem_manager.c **** #include "extmem_manager.h"
  23:../../FSBL/Core/Src/extmem_manager.c **** #include <string.h>
  24:../../FSBL/Core/Src/extmem_manager.c **** 
  25:../../FSBL/Core/Src/extmem_manager.c **** /* USER CODE BEGIN Includes */
ARM GAS  C:\Users\SMART\AppData\Local\Temp\ccqIi0Bn.s 			page 2


  26:../../FSBL/Core/Src/extmem_manager.c **** 
  27:../../FSBL/Core/Src/extmem_manager.c **** /* USER CODE END Includes */
  28:../../FSBL/Core/Src/extmem_manager.c **** 
  29:../../FSBL/Core/Src/extmem_manager.c **** /* USER CODE BEGIN PV */
  30:../../FSBL/Core/Src/extmem_manager.c **** /* Private variables ---------------------------------------------------------*/
  31:../../FSBL/Core/Src/extmem_manager.c **** 
  32:../../FSBL/Core/Src/extmem_manager.c **** /* USER CODE END PV */
  33:../../FSBL/Core/Src/extmem_manager.c **** 
  34:../../FSBL/Core/Src/extmem_manager.c **** /* USER CODE BEGIN PFP */
  35:../../FSBL/Core/Src/extmem_manager.c **** /* Private function prototypes -----------------------------------------------*/
  36:../../FSBL/Core/Src/extmem_manager.c **** 
  37:../../FSBL/Core/Src/extmem_manager.c **** /* USER CODE END PFP */
  38:../../FSBL/Core/Src/extmem_manager.c **** 
  39:../../FSBL/Core/Src/extmem_manager.c **** /*
  40:../../FSBL/Core/Src/extmem_manager.c ****  * -- Insert your variables declaration here --
  41:../../FSBL/Core/Src/extmem_manager.c ****  */
  42:../../FSBL/Core/Src/extmem_manager.c **** /* USER CODE BEGIN 0 */
  43:../../FSBL/Core/Src/extmem_manager.c **** 
  44:../../FSBL/Core/Src/extmem_manager.c **** /* USER CODE END 0 */
  45:../../FSBL/Core/Src/extmem_manager.c **** 
  46:../../FSBL/Core/Src/extmem_manager.c **** /*
  47:../../FSBL/Core/Src/extmem_manager.c ****  * -- Insert your external function declaration here --
  48:../../FSBL/Core/Src/extmem_manager.c ****  */
  49:../../FSBL/Core/Src/extmem_manager.c **** /* USER CODE BEGIN 1 */
  50:../../FSBL/Core/Src/extmem_manager.c **** 
  51:../../FSBL/Core/Src/extmem_manager.c **** /* USER CODE END 1 */
  52:../../FSBL/Core/Src/extmem_manager.c **** 
  53:../../FSBL/Core/Src/extmem_manager.c **** /**
  54:../../FSBL/Core/Src/extmem_manager.c ****   * Init External memory manager
  55:../../FSBL/Core/Src/extmem_manager.c ****   * @retval None
  56:../../FSBL/Core/Src/extmem_manager.c ****   */
  57:../../FSBL/Core/Src/extmem_manager.c **** void MX_EXTMEM_MANAGER_Init(void)
  58:../../FSBL/Core/Src/extmem_manager.c **** {
  34              		.loc 1 58 1 view -0
  35              		.cfi_startproc
  36              		@ args = 0, pretend = 0, frame = 0
  37              		@ frame_needed = 0, uses_anonymous_args = 0
  38 0000 38B5     		push	{r3, r4, r5, lr}
  39              	.LCFI0:
  40              		.cfi_def_cfa_offset 16
  41              		.cfi_offset 3, -16
  42              		.cfi_offset 4, -12
  43              		.cfi_offset 5, -8
  44              		.cfi_offset 14, -4
  59:../../FSBL/Core/Src/extmem_manager.c **** 
  60:../../FSBL/Core/Src/extmem_manager.c ****   /* USER CODE BEGIN MX_EXTMEM_Init_PreTreatment */
  61:../../FSBL/Core/Src/extmem_manager.c **** 
  62:../../FSBL/Core/Src/extmem_manager.c ****   /* USER CODE END MX_EXTMEM_Init_PreTreatment */
  63:../../FSBL/Core/Src/extmem_manager.c **** 
  64:../../FSBL/Core/Src/extmem_manager.c ****   /* Initialization of the memory parameters */
  65:../../FSBL/Core/Src/extmem_manager.c ****   memset(extmem_list_config, 0x0, sizeof(extmem_list_config));
  45              		.loc 1 65 3 view .LVU1
  46 0002 254C     		ldr	r4, .L3
  47 0004 4FF4AC72 		mov	r2, #344
  48 0008 0021     		movs	r1, #0
  49 000a 2046     		mov	r0, r4
  50 000c FFF7FEFF 		bl	memset
ARM GAS  C:\Users\SMART\AppData\Local\Temp\ccqIi0Bn.s 			page 3


  51              	.LVL0:
  66:../../FSBL/Core/Src/extmem_manager.c **** 
  67:../../FSBL/Core/Src/extmem_manager.c ****   /* EXTMEMORY_1 */
  68:../../FSBL/Core/Src/extmem_manager.c ****   extmem_list_config[0].MemType = EXTMEM_NOR_SFDP;
  52              		.loc 1 68 3 view .LVU2
  69:../../FSBL/Core/Src/extmem_manager.c ****   extmem_list_config[0].Handle = (void*)&hxspi2;
  53              		.loc 1 69 3 view .LVU3
  54              		.loc 1 69 32 is_stmt 0 view .LVU4
  55 0010 224B     		ldr	r3, .L3+4
  56 0012 6360     		str	r3, [r4, #4]
  70:../../FSBL/Core/Src/extmem_manager.c ****   extmem_list_config[0].ConfigType = EXTMEM_LINK_CONFIG_8LINES;
  57              		.loc 1 70 3 is_stmt 1 view .LVU5
  58              		.loc 1 70 36 is_stmt 0 view .LVU6
  59 0014 0323     		movs	r3, #3
  60 0016 2372     		strb	r3, [r4, #8]
  71:../../FSBL/Core/Src/extmem_manager.c **** 
  72:../../FSBL/Core/Src/extmem_manager.c ****   /* EXTMEMORY_2 */
  73:../../FSBL/Core/Src/extmem_manager.c ****   extmem_list_config[1].MemType = EXTMEM_PSRAM;
  61              		.loc 1 73 3 is_stmt 1 view .LVU7
  62              		.loc 1 73 33 is_stmt 0 view .LVU8
  63 0018 0221     		movs	r1, #2
  64 001a 84F8AC10 		strb	r1, [r4, #172]
  74:../../FSBL/Core/Src/extmem_manager.c ****   extmem_list_config[1].Handle = (void*)&hxspi1;
  65              		.loc 1 74 3 is_stmt 1 view .LVU9
  66              		.loc 1 74 32 is_stmt 0 view .LVU10
  67 001e 204B     		ldr	r3, .L3+8
  68 0020 C4F8B030 		str	r3, [r4, #176]
  75:../../FSBL/Core/Src/extmem_manager.c ****   extmem_list_config[1].ConfigType = EXTMEM_LINK_CONFIG_16LINES;
  69              		.loc 1 75 3 is_stmt 1 view .LVU11
  70              		.loc 1 75 36 is_stmt 0 view .LVU12
  71 0024 0423     		movs	r3, #4
  72 0026 84F8B430 		strb	r3, [r4, #180]
  76:../../FSBL/Core/Src/extmem_manager.c **** 
  77:../../FSBL/Core/Src/extmem_manager.c **** #if DK_BOARD == 1
  78:../../FSBL/Core/Src/extmem_manager.c ****   extmem_list_config[1].PsramObject.psram_public.MemorySize = HAL_XSPI_SIZE_256MB;  /* DK Board: 25
  79:../../FSBL/Core/Src/extmem_manager.c **** #else
  80:../../FSBL/Core/Src/extmem_manager.c ****   extmem_list_config[1].PsramObject.psram_public.MemorySize = HAL_XSPI_SIZE_512MB;  /* Custom Board
  73              		.loc 1 80 3 is_stmt 1 view .LVU13
  74              		.loc 1 80 61 is_stmt 0 view .LVU14
  75 002a 1922     		movs	r2, #25
  76 002c C4F80C21 		str	r2, [r4, #268]
  81:../../FSBL/Core/Src/extmem_manager.c **** #endif
  82:../../FSBL/Core/Src/extmem_manager.c ****   extmem_list_config[1].PsramObject.psram_public.FreqMax = 200 * 1000000u;
  77              		.loc 1 82 3 is_stmt 1 view .LVU15
  78              		.loc 1 82 58 is_stmt 0 view .LVU16
  79 0030 1C4A     		ldr	r2, .L3+12
  80 0032 C4F81021 		str	r2, [r4, #272]
  83:../../FSBL/Core/Src/extmem_manager.c ****   extmem_list_config[1].PsramObject.psram_public.NumberOfConfig = 1u;
  81              		.loc 1 83 3 is_stmt 1 view .LVU17
  82              		.loc 1 83 65 is_stmt 0 view .LVU18
  83 0036 0125     		movs	r5, #1
  84 0038 84F81451 		strb	r5, [r4, #276]
  84:../../FSBL/Core/Src/extmem_manager.c **** 
  85:../../FSBL/Core/Src/extmem_manager.c ****   /* Config */
  86:../../FSBL/Core/Src/extmem_manager.c ****   extmem_list_config[1].PsramObject.psram_public.config[0].WriteMask = 0x40u;
  85              		.loc 1 86 3 is_stmt 1 view .LVU19
  86              		.loc 1 86 70 is_stmt 0 view .LVU20
ARM GAS  C:\Users\SMART\AppData\Local\Temp\ccqIi0Bn.s 			page 4


  87 003c 4022     		movs	r2, #64
  88 003e 84F81521 		strb	r2, [r4, #277]
  87:../../FSBL/Core/Src/extmem_manager.c ****   extmem_list_config[1].PsramObject.psram_public.config[0].WriteValue = 0x40u;
  89              		.loc 1 87 3 is_stmt 1 view .LVU21
  90              		.loc 1 87 71 is_stmt 0 view .LVU22
  91 0042 84F81621 		strb	r2, [r4, #278]
  88:../../FSBL/Core/Src/extmem_manager.c ****   extmem_list_config[1].PsramObject.psram_public.config[0].REGAddress = 0x08u;
  92              		.loc 1 88 3 is_stmt 1 view .LVU23
  93              		.loc 1 88 71 is_stmt 0 view .LVU24
  94 0046 0820     		movs	r0, #8
  95 0048 84F81701 		strb	r0, [r4, #279]
  89:../../FSBL/Core/Src/extmem_manager.c **** 
  90:../../FSBL/Core/Src/extmem_manager.c ****   /* Memory command configuration */
  91:../../FSBL/Core/Src/extmem_manager.c ****   extmem_list_config[1].PsramObject.psram_public.ReadREG           = 0x40u;
  96              		.loc 1 91 3 is_stmt 1 view .LVU25
  97              		.loc 1 91 68 is_stmt 0 view .LVU26
  98 004c 84F81E21 		strb	r2, [r4, #286]
  92:../../FSBL/Core/Src/extmem_manager.c ****   extmem_list_config[1].PsramObject.psram_public.WriteREG          = 0xC0u;
  99              		.loc 1 92 3 is_stmt 1 view .LVU27
 100              		.loc 1 92 68 is_stmt 0 view .LVU28
 101 0050 C022     		movs	r2, #192
 102 0052 84F81F21 		strb	r2, [r4, #287]
  93:../../FSBL/Core/Src/extmem_manager.c ****   extmem_list_config[1].PsramObject.psram_public.ReadREGSize       = 2u;
 103              		.loc 1 93 3 is_stmt 1 view .LVU29
 104              		.loc 1 93 68 is_stmt 0 view .LVU30
 105 0056 84F82011 		strb	r1, [r4, #288]
  94:../../FSBL/Core/Src/extmem_manager.c ****   extmem_list_config[1].PsramObject.psram_public.REG_DummyCycle    = 4u;
 106              		.loc 1 94 3 is_stmt 1 view .LVU31
 107              		.loc 1 94 68 is_stmt 0 view .LVU32
 108 005a 84F82131 		strb	r3, [r4, #289]
  95:../../FSBL/Core/Src/extmem_manager.c ****   extmem_list_config[1].PsramObject.psram_public.Write_command     = 0xA0u;
 109              		.loc 1 95 3 is_stmt 1 view .LVU33
 110              		.loc 1 95 68 is_stmt 0 view .LVU34
 111 005e A022     		movs	r2, #160
 112 0060 84F82221 		strb	r2, [r4, #290]
  96:../../FSBL/Core/Src/extmem_manager.c ****   extmem_list_config[1].PsramObject.psram_public.Write_DummyCycle  = 4u;
 113              		.loc 1 96 3 is_stmt 1 view .LVU35
 114              		.loc 1 96 68 is_stmt 0 view .LVU36
 115 0064 84F82331 		strb	r3, [r4, #291]
  97:../../FSBL/Core/Src/extmem_manager.c ****   extmem_list_config[1].PsramObject.psram_public.Read_command      = 0x20u;
 116              		.loc 1 97 3 is_stmt 1 view .LVU37
 117              		.loc 1 97 68 is_stmt 0 view .LVU38
 118 0068 2022     		movs	r2, #32
 119 006a 84F82421 		strb	r2, [r4, #292]
  98:../../FSBL/Core/Src/extmem_manager.c ****   extmem_list_config[1].PsramObject.psram_public.WrapRead_command  = 0x00u;
 120              		.loc 1 98 3 is_stmt 1 view .LVU39
  99:../../FSBL/Core/Src/extmem_manager.c ****   extmem_list_config[1].PsramObject.psram_public.Read_DummyCycle   = 4u;
 121              		.loc 1 99 3 view .LVU40
 122              		.loc 1 99 68 is_stmt 0 view .LVU41
 123 006e 84F82631 		strb	r3, [r4, #294]
 100:../../FSBL/Core/Src/extmem_manager.c **** 
 101:../../FSBL/Core/Src/extmem_manager.c ****   EXTMEM_Init(EXTMEMORY_1, HAL_RCCEx_GetPeriphCLKFreq(RCC_PERIPHCLK_XSPI2));
 124              		.loc 1 101 3 is_stmt 1 view .LVU42
 125 0072 0020     		movs	r0, #0
 126 0074 4FF40001 		mov	r1, #8388608
 127 0078 FFF7FEFF 		bl	HAL_RCCEx_GetPeriphCLKFreq
 128              	.LVL1:
ARM GAS  C:\Users\SMART\AppData\Local\Temp\ccqIi0Bn.s 			page 5


 129 007c 0146     		mov	r1, r0
 130              		.loc 1 101 3 is_stmt 0 discriminator 1 view .LVU43
 131 007e 0020     		movs	r0, #0
 132 0080 FFF7FEFF 		bl	EXTMEM_Init
 133              	.LVL2:
 102:../../FSBL/Core/Src/extmem_manager.c ****   EXTMEM_Init(EXTMEMORY_2, HAL_RCCEx_GetPeriphCLKFreq(RCC_PERIPHCLK_XSPI1));
 134              		.loc 1 102 3 is_stmt 1 view .LVU44
 135 0084 0020     		movs	r0, #0
 136 0086 4FF48001 		mov	r1, #4194304
 137 008a FFF7FEFF 		bl	HAL_RCCEx_GetPeriphCLKFreq
 138              	.LVL3:
 139 008e 0146     		mov	r1, r0
 140              		.loc 1 102 3 is_stmt 0 discriminator 1 view .LVU45
 141 0090 2846     		mov	r0, r5
 142 0092 FFF7FEFF 		bl	EXTMEM_Init
 143              	.LVL4:
 103:../../FSBL/Core/Src/extmem_manager.c **** 
 104:../../FSBL/Core/Src/extmem_manager.c ****   /* USER CODE BEGIN MX_EXTMEM_Init_PostTreatment */
 105:../../FSBL/Core/Src/extmem_manager.c **** 
 106:../../FSBL/Core/Src/extmem_manager.c ****   /* USER CODE END MX_EXTMEM_Init_PostTreatment */
 107:../../FSBL/Core/Src/extmem_manager.c **** }
 144              		.loc 1 107 1 view .LVU46
 145 0096 38BD     		pop	{r3, r4, r5, pc}
 146              	.L4:
 147              		.align	2
 148              	.L3:
 149 0098 00000000 		.word	extmem_list_config
 150 009c 00000000 		.word	hxspi2
 151 00a0 00000000 		.word	hxspi1
 152 00a4 00C2EB0B 		.word	200000000
 153              		.cfi_endproc
 154              	.LFE862:
 156              		.text
 157              	.Letext0:
 158              		.file 2 "C:\\ST\\STM32CubeIDE_2.0.0\\STM32CubeIDE\\plugins\\com.st.stm32cube.ide.mcu.externaltools
 159              		.file 3 "C:\\ST\\STM32CubeIDE_2.0.0\\STM32CubeIDE\\plugins\\com.st.stm32cube.ide.mcu.externaltools
 160              		.file 4 "C:\\ST\\STM32CubeIDE_2.0.0\\STM32CubeIDE\\plugins\\com.st.stm32cube.ide.mcu.externaltools
 161              		.file 5 "../../Drivers/CMSIS/Device/ST/STM32N6xx/Include/stm32n657xx.h"
 162              		.file 6 "../../Drivers/STM32N6xx_HAL_Driver/Inc/stm32n6xx_hal_def.h"
 163              		.file 7 "../../Drivers/STM32N6xx_HAL_Driver/Inc/stm32n6xx_hal_dma.h"
 164              		.file 8 "../../Drivers/STM32N6xx_HAL_Driver/Inc/stm32n6xx_hal_dma_ex.h"
 165              		.file 9 "../../Drivers/STM32N6xx_HAL_Driver/Inc/stm32n6xx_hal_xspi.h"
 166              		.file 10 "../../Middlewares/ST/STM32_ExtMem_Manager/stm32_extmem.h"
 167              		.file 11 "../../Middlewares/ST/STM32_ExtMem_Manager/sal/stm32_sal_xspi_type.h"
 168              		.file 12 "../../Middlewares/ST/STM32_ExtMem_Manager/nor_sfdp/stm32_sfdp_driver_type.h"
 169              		.file 13 "../../Middlewares/ST/STM32_ExtMem_Manager/psram/stm32_psram_driver_type.h"
 170              		.file 14 "../../Middlewares/ST/STM32_ExtMem_Manager/stm32_extmem_type.h"
 171              		.file 15 "../../FSBL/Core/Inc/stm32_extmem_conf.h"
 172              		.file 16 "../../Drivers/STM32N6xx_HAL_Driver/Inc/stm32n6xx_hal_rcc_ex.h"
 173              		.file 17 "C:\\ST\\STM32CubeIDE_2.0.0\\STM32CubeIDE\\plugins\\com.st.stm32cube.ide.mcu.externaltool
 174              		.file 18 "<built-in>"
ARM GAS  C:\Users\SMART\AppData\Local\Temp\ccqIi0Bn.s 			page 6

